

Microchip MPLAB XC8 Assembler V2.05 build -831301201 
                                                                                               Mon Mar 28 14:43:07 2022

Microchip MPLAB XC8 C Compiler v2.05 (Free license) build 20181220022703 Og1 
     1                           	processor	18F2550
     2                           	fnconf	rparam,??,?,0
     3                           	opt	pw 120
     4                           	opt	flic
     5                           	psect	idataCOMRAM,global,class=CODE,delta=1,noexec
     6                           	psect	nvCOMRAM,global,class=COMRAM,space=1,delta=1,noexec
     7                           	psect	cinit,global,reloc=2,class=CODE,delta=1
     8                           	psect	bssCOMRAM,global,class=COMRAM,space=1,delta=1,noexec
     9                           	psect	dataCOMRAM,global,class=COMRAM,space=1,delta=1,noexec
    10                           	psect	cstackCOMRAM,global,class=COMRAM,space=1,delta=1,noexec
    11                           	psect	text0,global,reloc=2,class=CODE,delta=1
    12                           	psect	text1,global,reloc=2,class=CODE,delta=1
    13                           	psect	text2,global,reloc=2,class=CODE,delta=1,group=1
    14                           	psect	text3,global,reloc=2,class=CODE,delta=1
    15                           	psect	text4,global,reloc=2,class=CODE,delta=1
    16                           	psect	text5,global,reloc=2,class=CODE,delta=1
    17                           	psect	text6,global,reloc=2,class=CODE,delta=1
    18                           	psect	text7,global,reloc=2,class=CODE,delta=1
    19                           	psect	text8,global,reloc=2,class=CODE,delta=1
    20                           	psect	text9,global,reloc=2,class=CODE,delta=1
    21                           	psect	text10,global,reloc=2,class=CODE,delta=1
    22                           	psect	text11,global,reloc=2,class=CODE,delta=1
    23                           	psect	text12,global,reloc=2,class=CODE,delta=1
    24                           	psect	text13,global,reloc=2,class=CODE,delta=1
    25                           	psect	text14,global,reloc=2,class=CODE,delta=1
    26                           	psect	text15,global,reloc=2,class=CODE,delta=1
    27                           	psect	text16,global,reloc=2,class=CODE,delta=1
    28                           	psect	text17,global,reloc=2,class=CODE,delta=1
    29                           	psect	text18,global,reloc=2,class=CODE,delta=1
    30                           	psect	text19,global,reloc=2,class=CODE,delta=1
    31                           	psect	text20,global,reloc=2,class=CODE,delta=1
    32                           	psect	text21,global,reloc=2,class=CODE,delta=1
    33                           	psect	text22,global,reloc=2,class=CODE,delta=1
    34                           	psect	text23,global,reloc=2,class=CODE,delta=1
    35                           	psect	text24,global,reloc=2,class=CODE,delta=1
    36                           	psect	text25,global,reloc=2,class=CODE,delta=1
    37                           	psect	text26,global,reloc=2,class=CODE,delta=1
    38                           	psect	text27,global,reloc=2,class=CODE,delta=1
    39                           	psect	text28,global,reloc=2,class=CODE,delta=1
    40                           	psect	text29,global,reloc=2,class=CODE,delta=1
    41                           	psect	text30,global,reloc=2,class=CODE,delta=1
    42                           	psect	text31,global,reloc=2,class=CODE,delta=1
    43                           	psect	text32,global,reloc=2,class=CODE,delta=1
    44                           	psect	text33,global,reloc=2,class=CODE,delta=1
    45                           	psect	text34,global,reloc=2,class=CODE,delta=1
    46                           	psect	text35,global,reloc=2,class=CODE,delta=1
    47                           	psect	text36,global,reloc=2,class=CODE,delta=1
    48                           	psect	text37,global,reloc=2,class=CODE,delta=1
    49                           	psect	text38,global,reloc=2,class=CODE,delta=1
    50                           	psect	text39,global,reloc=2,class=CODE,delta=1
    51                           	psect	text40,global,reloc=2,class=CODE,delta=1
    52                           	psect	text41,global,reloc=2,class=CODE,delta=1
    53                           	psect	text42,global,reloc=2,class=CODE,delta=1
    54                           	psect	text43,global,reloc=2,class=CODE,delta=1
    55                           	psect	text44,global,reloc=2,class=CODE,delta=1
    56                           	psect	text45,global,reloc=2,class=CODE,delta=1,group=1
    57                           	psect	text46,global,reloc=2,class=CODE,delta=1
    58                           	psect	text47,global,reloc=2,class=CODE,delta=1
    59                           	psect	text48,global,reloc=2,class=CODE,delta=1
    60                           	psect	text49,global,reloc=2,class=CODE,delta=1
    61                           	psect	text50,global,reloc=2,class=CODE,delta=1
    62                           	psect	intsave_regs,global,class=BIGRAM,space=1,delta=1,noexec
    63                           	psect	rparam,global,class=COMRAM,space=1,delta=1,noexec
    64  0000                     
    65                           ; Version 2.05
    66                           ; Generated 20/12/2018 GMT
    67                           ; 
    68                           ; Copyright © 2018, Microchip Technology Inc. and its subsidiaries ("Microchip")
    69                           ; All rights reserved.
    70                           ; 
    71                           ; This software is developed by Microchip Technology Inc. and its subsidiaries ("Microch
      +                          ip").
    72                           ; 
    73                           ; Redistribution and use in source and binary forms, with or without modification, are
    74                           ; permitted provided that the following conditions are met:
    75                           ; 
    76                           ;     1. Redistributions of source code must retain the above copyright notice, this lis
      +                          t of
    77                           ;        conditions and the following disclaimer.
    78                           ; 
    79                           ;     2. Redistributions in binary form must reproduce the above copyright notice, this 
      +                          list
    80                           ;        of conditions and the following disclaimer in the documentation and/or other
    81                           ;        materials provided with the distribution.
    82                           ; 
    83                           ;     3. Microchip's name may not be used to endorse or promote products derived from th
      +                          is
    84                           ;        software without specific prior written permission.
    85                           ; 
    86                           ; THIS SOFTWARE IS PROVIDED BY MICROCHIP "AS IS" AND ANY EXPRESS OR IMPLIED WARRANTIES,
    87                           ; INCLUDING, BUT NOT LIMITED TO, THE IMPLIED WARRANTIES OF MERCHANTABILITY AND FITNESS F
      +                          OR
    88                           ; PURPOSE ARE DISCLAIMED.  IN NO EVENT SHALL MICROCHIP BE LIABLE FOR ANY DIRECT, INDIREC
      +                          T,
    89                           ; INCIDENTAL, SPECIAL, EXEMPLARY, OR CONSEQUENTIAL DAMAGES (INCLUDING BUT NOT LIMITED TO
    90                           ; PROCUREMENT OF SUBSTITUTE GOODS OR SERVICES; LOSS OF USE, DATA OR PROFITS; OR BUSINESS
    91                           ; INTERRUPTION) HOWSOEVER CAUSED AND ON ANY THEORY OF LIABILITY, WHETHER IN CONTRACT, ST
      +                          RICT
    92                           ; LIABILITY, OR TORT (INCLUDING NEGLIGENCE OR OTHERWISE) ARISING IN ANY WAY OUT OF THE U
      +                          SE OF
    93                           ; THIS SOFTWARE, EVEN IF ADVISED OF THE POSSIBILITY OF SUCH DAMAGE.
    94                           ; 
    95                           ; 
    96                           ; Code-generator required, PIC18F2550 Definitions
    97                           ; 
    98                           ; SFR Addresses
    99  0000                     
   100                           	psect	idataCOMRAM
   101  0060BB                     __pidataCOMRAM:
   102                           	opt callstack 0
   103                           
   104                           ;initializer for _Time_Auto_Close
   105  0060BB  0001               	dw	1
   106  0060BD  0000               	dw	0
   107                           
   108                           ;initializer for _Last_Button_Menu_Down_State
   109  0060BF  01                 	db	1
   110                           
   111                           ;initializer for _Last_Button_Menu_Up_State
   112  0060C0  01                 	db	1
   113                           
   114                           ;initializer for _Last_Open_Contact_State
   115  0060C1  01                 	db	1
   116                           
   117                           	psect	nvCOMRAM
   118  000048                     __pnvCOMRAM:
   119                           	opt callstack 0
   120  000048                     _Time_Open_State:
   121                           	opt callstack 0
   122  000048                     	ds	2
   123  00004A                     _Time_Inductive_State:
   124                           	opt callstack 0
   125  00004A                     	ds	2
   126  00004C                     _Latch:
   127                           	opt callstack 0
   128  00004C                     	ds	1
   129  00004D                     _End_Stop_Close_State:
   130                           	opt callstack 0
   131  00004D                     	ds	1
   132  00004E                     _Inductive_State:
   133                           	opt callstack 0
   134  00004E                     	ds	1
   135  0000                     _EECON2	set	4007
   136  0000                     _INTCONbits	set	4082
   137  0000                     _EECON1bits	set	4006
   138  0000                     _EEDATA	set	4008
   139  0000                     _EEADR	set	4009
   140  0000                     _ADRESL	set	4035
   141  0000                     _ADRESH	set	4036
   142  0000                     _PORTAbits	set	3968
   143  0000                     _PORTCbits	set	3970
   144  0000                     _PORTB	set	3969
   145  0000                     _TRISB	set	3987
   146  0000                     _ADCON2bits	set	4032
   147  0000                     _ADCON0bits	set	4034
   148  0000                     _TRISCbits	set	3988
   149  0000                     _TRISAbits	set	3986
   150  0000                     _ADCON1	set	4033
   151                           
   152                           ; #config settings
   153  0000                     
   154                           	psect	cinit
   155  00678E                     __pcinit:
   156                           	opt callstack 0
   157  00678E                     start_initialization:
   158                           	opt callstack 0
   159  00678E                     __initialization:
   160                           	opt callstack 0
   161                           
   162                           ; Initialize objects allocated to COMRAM (7 bytes)
   163                           ; load TBLPTR registers with __pidataCOMRAM
   164  00678E  0EBB               	movlw	low __pidataCOMRAM
   165  006790  6EF6               	movwf	tblptrl,c
   166  006792  0E60               	movlw	high __pidataCOMRAM
   167  006794  6EF7               	movwf	tblptrh,c
   168  006796  0E00               	movlw	low (__pidataCOMRAM shr (0+16))
   169  006798  6EF8               	movwf	tblptru,c
   170  00679A  EE00  F04F         	lfsr	0,__pdataCOMRAM
   171  00679E  EE10 F007          	lfsr	1,7
   172  0067A2                     copy_data0:
   173  0067A2  0009               	tblrd		*+
   174  0067A4  CFF5 FFEE          	movff	tablat,postinc0
   175  0067A8  50E5               	movf	postdec1,w,c
   176  0067AA  50E1               	movf	fsr1l,w,c
   177  0067AC  E1FA               	bnz	copy_data0
   178                           
   179                           ; Clear objects allocated to COMRAM (54 bytes)
   180  0067AE  EE00  F001         	lfsr	0,__pbssCOMRAM
   181  0067B2  0E36               	movlw	54
   182  0067B4                     clear_0:
   183  0067B4  6AEE               	clrf	postinc0,c
   184  0067B6  06E8               	decf	wreg,f,c
   185  0067B8  E1FD               	bnz	clear_0
   186  0067BA                     end_of_initialization:
   187                           	opt callstack 0
   188  0067BA                     __end_of__initialization:
   189                           	opt callstack 0
   190  0067BA  0E00               	movlw	low (__Lmediumconst shr (0+16))
   191  0067BC  6EF8               	movwf	tblptru,c
   192  0067BE  0100               	movlb	0
   193  0067C0  EF49  F034         	goto	_main	;jump to C main() function
   194                           
   195                           	psect	bssCOMRAM
   196  000001                     __pbssCOMRAM:
   197                           	opt callstack 0
   198  000001                     _Buffer1:
   199                           	opt callstack 0
   200  000001                     	ds	16
   201  000011                     _Count_Exit_Menu:
   202                           	opt callstack 0
   203  000011                     	ds	4
   204  000015                     _Count_Save:
   205                           	opt callstack 0
   206  000015                     	ds	4
   207  000019                     _Count_Auto_Close:
   208                           	opt callstack 0
   209  000019                     	ds	4
   210  00001D                     _Count_Time_Close:
   211                           	opt callstack 0
   212  00001D                     	ds	4
   213  000021                     _data_test:
   214                           	opt callstack 0
   215  000021                     	ds	2
   216  000023                     _ADC:
   217                           	opt callstack 0
   218  000023                     	ds	2
   219  000025                     _Count_Led:
   220                           	opt callstack 0
   221  000025                     	ds	2
   222  000027                     _Count_Push_Button:
   223                           	opt callstack 0
   224  000027                     	ds	2
   225  000029                     _Current:
   226                           	opt callstack 0
   227  000029                     	ds	2
   228  00002B                     _Count_Peake_Current:
   229                           	opt callstack 0
   230  00002B                     	ds	2
   231  00002D                     _Flag_End_Stop_Open:
   232                           	opt callstack 0
   233  00002D                     	ds	1
   234  00002E                     _Flag_Latch:
   235                           	opt callstack 0
   236  00002E                     	ds	1
   237  00002F                     _Flag_Menu:
   238                           	opt callstack 0
   239  00002F                     	ds	1
   240  000030                     _Toggle_Down:
   241                           	opt callstack 0
   242  000030                     	ds	1
   243  000031                     _Toggle_Up:
   244                           	opt callstack 0
   245  000031                     	ds	1
   246  000032                     _Button_Menu_Down_State:
   247                           	opt callstack 0
   248  000032                     	ds	1
   249  000033                     _Button_Menu_Up_State:
   250                           	opt callstack 0
   251  000033                     	ds	1
   252  000034                     _End_Stop_Open_State:
   253                           	opt callstack 0
   254  000034                     	ds	1
   255  000035                     _Open_Contact_State:
   256                           	opt callstack 0
   257  000035                     	ds	1
   258  000036                     _Last_Inductive_State:
   259                           	opt callstack 0
   260  000036                     	ds	1
   261                           
   262                           	psect	dataCOMRAM
   263  00004F                     __pdataCOMRAM:
   264                           	opt callstack 0
   265  00004F                     _Time_Auto_Close:
   266                           	opt callstack 0
   267  00004F                     	ds	4
   268  000053                     _Last_Button_Menu_Down_State:
   269                           	opt callstack 0
   270  000053                     	ds	1
   271  000054                     _Last_Button_Menu_Up_State:
   272                           	opt callstack 0
   273  000054                     	ds	1
   274  000055                     _Last_Open_Contact_State:
   275                           	opt callstack 0
   276  000055                     	ds	1
   277                           
   278                           	psect	cstackCOMRAM
   279  000037                     __pcstackCOMRAM:
   280                           	opt callstack 0
   281  000037                     ??_Draw_P1:
   282  000037                     ??_Draw_P2:
   283  000037                     ??_Draw_P3:
   284  000037                     ??_Draw_P4:
   285  000037                     ??_Draw_0:
   286  000037                     ??_Draw_1:
   287  000037                     ??_Draw_2:
   288  000037                     ??_Draw_3:
   289  000037                     ??_Draw_4:
   290  000037                     ??_Draw_5:
   291  000037                     ??_Draw_6:
   292  000037                     ??_Draw_7:
   293  000037                     ??_Draw_8:
   294  000037                     ??_Draw_9:
   295  000037                     ??_Draw_10:
   296  000037                     ??_Draw_11:
   297  000037                     ??_Draw_12:
   298  000037                     ??_Draw_13:
   299  000037                     ??_Draw_14:
   300  000037                     ??_Draw_15:
   301  000037                     ??_Draw_16:
   302  000037                     ??_Draw_18:
   303  000037                     ??_Draw_20:
   304  000037                     ??_Draw_22:
   305  000037                     ??_Draw_24:
   306  000037                     ??_Draw_26:
   307  000037                     ??_Draw_28:
   308  000037                     ??_Draw_30:
   309  000037                     ??_Draw_Save_Dot_One:
   310  000037                     ??_Draw_Save_Dot_Two:
   311  000037                     ?_Analog_Read:
   312                           	opt callstack 0
   313  000037                     ?___wmul:
   314                           	opt callstack 0
   315  000037                     ?___lmul:
   316                           	opt callstack 0
   317  000037                     eeprom_writex@address:
   318                           	opt callstack 0
   319  000037                     eeprom_readx@address:
   320                           	opt callstack 0
   321  000037                     ___wmul@multiplier:
   322                           	opt callstack 0
   323  000037                     ___lmul@multiplier:
   324                           	opt callstack 0
   325                           
   326                           ; 4 bytes @ 0x0
   327  000037                     	ds	1
   328  000038                     ??_Recording:
   329                           
   330                           ; 1 bytes @ 0x1
   331  000038                     	ds	1
   332  000039                     ??_Closing:
   333  000039                     eeprom_writex@data:
   334                           	opt callstack 0
   335  000039                     ___wmul@multiplicand:
   336                           	opt callstack 0
   337                           
   338                           ; 2 bytes @ 0x2
   339  000039                     	ds	1
   340  00003A                     ??_Menu_P1:
   341  00003A                     ??_Menu_P2:
   342  00003A                     ??_Menu_P3:
   343  00003A                     ??_Menu_P4:
   344  00003A                     
   345                           ; 1 bytes @ 0x3
   346  00003A                     	ds	1
   347  00003B                     ___wmul@product:
   348                           	opt callstack 0
   349  00003B                     ___lmul@multiplicand:
   350                           	opt callstack 0
   351                           
   352                           ; 4 bytes @ 0x4
   353  00003B                     	ds	1
   354  00003C                     ??_Menu:
   355                           
   356                           ; 1 bytes @ 0x5
   357  00003C                     	ds	1
   358  00003D                     ??_Close_Lock:
   359                           
   360                           ; 1 bytes @ 0x6
   361  00003D                     	ds	1
   362  00003E                     ??_Menu_In:
   363                           
   364                           ; 1 bytes @ 0x7
   365  00003E                     	ds	1
   366  00003F                     ___lmul@product:
   367                           	opt callstack 0
   368                           
   369                           ; 4 bytes @ 0x8
   370  00003F                     	ds	4
   371  000043                     ??_Open_Lock:
   372                           
   373                           ; 1 bytes @ 0xC
   374  000043                     	ds	2
   375  000045                     Open_Lock@Value_Latch:
   376                           	opt callstack 0
   377                           
   378                           ; 2 bytes @ 0xE
   379  000045                     	ds	2
   380  000047                     ??_main:
   381                           
   382                           ; 1 bytes @ 0x10
   383  000047                     	ds	1
   384                           
   385 ;;
   386 ;;Main: autosize = 0, tempsize = 1, incstack = 0, save=0
   387 ;;
   388 ;; *************** function _main *****************
   389 ;; Defined at:
   390 ;;		line 134 in file "main.c"
   391 ;; Parameters:    Size  Location     Type
   392 ;;		None
   393 ;; Auto vars:     Size  Location     Type
   394 ;;		None
   395 ;; Return value:  Size  Location     Type
   396 ;;                  1    wreg      void 
   397 ;; Registers used:
   398 ;;		wreg, status,2, status,0, prodl, prodh, cstack
   399 ;; Tracked objects:
   400 ;;		On entry : 0/0
   401 ;;		On exit  : 0/0
   402 ;;		Unchanged: 0/0
   403 ;; Data sizes:     COMRAM   BANK0   BANK1   BANK2   BANK3   BANK4   BANK5   BANK6   BANK7
   404 ;;      Params:         0       0       0       0       0       0       0       0       0
   405 ;;      Locals:         0       0       0       0       0       0       0       0       0
   406 ;;      Temps:          1       0       0       0       0       0       0       0       0
   407 ;;      Totals:         1       0       0       0       0       0       0       0       0
   408 ;;Total ram usage:        1 bytes
   409 ;; Hardware stack levels required when called:    5
   410 ;; This function calls:
   411 ;;		_Close_Lock
   412 ;;		_Indicator
   413 ;;		_Menu_In
   414 ;;		_Open_Lock
   415 ;;		_eeprom_readx
   416 ;; This function is called by:
   417 ;;		Startup code after reset
   418 ;; This function uses a non-reentrant model
   419 ;;
   420                           
   421                           	psect	text0
   422  006892                     __ptext0:
   423                           	opt callstack 0
   424  006892                     _main:
   425                           	opt callstack 26
   426                           
   427                           ;main.c: 135:     ADCON1 = 0X0E;
   428                           
   429                           ;incstack = 0
   430  006892  0E0E               	movlw	14
   431  006894  6EC1               	movwf	4033,c	;volatile
   432                           
   433                           ;main.c: 137:     TRISAbits.RA0 = 1;
   434  006896  8092               	bsf	3986,0,c	;volatile
   435                           
   436                           ;main.c: 138:     TRISAbits.RA3 = 1;
   437  006898  8692               	bsf	3986,3,c	;volatile
   438                           
   439                           ;main.c: 139:     TRISCbits.RC0 = 1;
   440  00689A  8094               	bsf	3988,0,c	;volatile
   441                           
   442                           ;main.c: 140:     TRISCbits.RC1 = 0;
   443  00689C  9294               	bcf	3988,1,c	;volatile
   444                           
   445                           ;main.c: 141:     TRISCbits.RC2 = 0;
   446  00689E  9494               	bcf	3988,2,c	;volatile
   447                           
   448                           ;main.c: 142:     TRISCbits.RC6 = 0;
   449  0068A0  9C94               	bcf	3988,6,c	;volatile
   450                           
   451                           ;main.c: 143:     TRISCbits.RC7 = 0;
   452  0068A2  9E94               	bcf	3988,7,c	;volatile
   453                           
   454                           ;main.c: 144:     TRISAbits.RA4 = 1;
   455  0068A4  8892               	bsf	3986,4,c	;volatile
   456                           
   457                           ;main.c: 145:     TRISAbits.RA5 = 1;
   458  0068A6  8A92               	bsf	3986,5,c	;volatile
   459                           
   460                           ;main.c: 146:     TRISAbits.RA1 = 1;
   461  0068A8  8292               	bsf	3986,1,c	;volatile
   462                           
   463                           ;main.c: 147:     TRISAbits.RA2 = 1;
   464  0068AA  8492               	bsf	3986,2,c	;volatile
   465                           
   466                           ;main.c: 150:     ADCON0bits.CHS = 0;
   467  0068AC  0EC3               	movlw	-61
   468  0068AE  16C2               	andwf	4034,f,c	;volatile
   469                           
   470                           ;main.c: 153:     ADCON2bits.ADCS = 0b000;
   471  0068B0  0EF8               	movlw	-8
   472  0068B2  16C0               	andwf	4032,f,c	;volatile
   473                           
   474                           ;main.c: 154:     ADCON2bits.ADFM = 1;
   475  0068B4  8EC0               	bsf	4032,7,c	;volatile
   476                           
   477                           ;main.c: 155:     ADCON0bits.ADON = 1;
   478  0068B6  80C2               	bsf	4034,0,c	;volatile
   479                           
   480                           ;main.c: 157:     TRISB = 0x00;
   481  0068B8  0E00               	movlw	0
   482  0068BA  6E93               	movwf	3987,c	;volatile
   483                           
   484                           ;main.c: 158:     PORTB = 0xFF;
   485  0068BC  6881               	setf	3969,c	;volatile
   486                           
   487                           ;main.c: 160:     PORTCbits.RC7 = 0;
   488  0068BE  9E82               	bcf	3970,7,c	;volatile
   489                           
   490                           ;main.c: 161:     PORTCbits.RC6 = 0;
   491  0068C0  9C82               	bcf	3970,6,c	;volatile
   492                           
   493                           ;main.c: 162:     PORTCbits.RC1 = 0;
   494  0068C2  9282               	bcf	3970,1,c	;volatile
   495                           
   496                           ;main.c: 163:     PORTCbits.RC2 = 0;
   497  0068C4  9482               	bcf	3970,2,c	;volatile
   498                           
   499                           ;main.c: 165:     Latch = eeprom_readx(0x01);
   500  0068C6  0E00               	movlw	0
   501  0068C8  6E38               	movwf	eeprom_readx@address+1,c
   502  0068CA  0E01               	movlw	1
   503  0068CC  6E37               	movwf	eeprom_readx@address,c
   504  0068CE  EC66  F030         	call	_eeprom_readx	;wreg free
   505  0068D2  0900               	iorlw	0
   506  0068D4  B4D8               	btfsc	status,2,c
   507  0068D6  D002               	goto	u1870
   508  0068D8  0E01               	movlw	1
   509  0068DA  D001               	goto	u1880
   510  0068DC                     u1870:
   511  0068DC  0E00               	movlw	0
   512  0068DE                     u1880:
   513  0068DE  6E4C               	movwf	_Latch,c
   514                           
   515                           ;main.c: 166:     Time_Inductive_State = eeprom_readx(0x02);
   516  0068E0  0E00               	movlw	0
   517  0068E2  6E38               	movwf	eeprom_readx@address+1,c
   518  0068E4  0E02               	movlw	2
   519  0068E6  6E37               	movwf	eeprom_readx@address,c
   520  0068E8  EC66  F030         	call	_eeprom_readx	;wreg free
   521  0068EC  6E47               	movwf	??_main& (0+255),c
   522  0068EE  5047               	movf	??_main,w,c
   523  0068F0  6E4A               	movwf	_Time_Inductive_State,c
   524  0068F2  6A4B               	clrf	_Time_Inductive_State+1,c
   525                           
   526                           ;main.c: 167:     Time_Open_State = eeprom_readx(0x04);
   527  0068F4  0E00               	movlw	0
   528  0068F6  6E38               	movwf	eeprom_readx@address+1,c
   529  0068F8  0E04               	movlw	4
   530  0068FA  6E37               	movwf	eeprom_readx@address,c
   531  0068FC  EC66  F030         	call	_eeprom_readx	;wreg free
   532  006900  6E47               	movwf	??_main& (0+255),c
   533  006902  5047               	movf	??_main,w,c
   534  006904  6E48               	movwf	_Time_Open_State,c
   535  006906  6A49               	clrf	_Time_Open_State+1,c
   536  006908                     l4032:
   537                           
   538                           ;main.c: 170:         Indicator();
   539  006908  EC0D  F034         	call	_Indicator	;wreg free
   540                           
   541                           ;main.c: 171:         Menu_In();
   542  00690C  ECD2  F034         	call	_Menu_In	;wreg free
   543                           
   544                           ;main.c: 172:         Close_Lock();
   545  006910  EC59  F03B         	call	_Close_Lock	;wreg free
   546                           
   547                           ;main.c: 173:         Open_Lock();
   548  006914  EC45  F03D         	call	_Open_Lock	;wreg free
   549  006918  D7F7               	goto	l4032
   550  00691A                     __end_of_main:
   551                           	opt callstack 0
   552                           
   553 ;; *************** function _Open_Lock *****************
   554 ;; Defined at:
   555 ;;		line 225 in file "main.c"
   556 ;; Parameters:    Size  Location     Type
   557 ;;		None
   558 ;; Auto vars:     Size  Location     Type
   559 ;;  Value_Latch     2   14[COMRAM] int 
   560 ;; Return value:  Size  Location     Type
   561 ;;                  1    wreg      void 
   562 ;; Registers used:
   563 ;;		wreg, status,2, status,0, prodl, prodh, cstack
   564 ;; Tracked objects:
   565 ;;		On entry : 0/0
   566 ;;		On exit  : 0/0
   567 ;;		Unchanged: 0/0
   568 ;; Data sizes:     COMRAM   BANK0   BANK1   BANK2   BANK3   BANK4   BANK5   BANK6   BANK7
   569 ;;      Params:         0       0       0       0       0       0       0       0       0
   570 ;;      Locals:         2       0       0       0       0       0       0       0       0
   571 ;;      Temps:          2       0       0       0       0       0       0       0       0
   572 ;;      Totals:         4       0       0       0       0       0       0       0       0
   573 ;;Total ram usage:        4 bytes
   574 ;; Hardware stack levels used:    1
   575 ;; Hardware stack levels required when called:    3
   576 ;; This function calls:
   577 ;;		_Closing
   578 ;;		_Sense_Current
   579 ;;		___lmul
   580 ;;		___wmul
   581 ;;		_eeprom_readx
   582 ;; This function is called by:
   583 ;;		_main
   584 ;; This function uses a non-reentrant model
   585 ;;
   586                           
   587                           	psect	text1
   588  007A8A                     __ptext1:
   589                           	opt callstack 0
   590  007A8A                     _Open_Lock:
   591                           	opt callstack 27
   592                           
   593                           ;main.c: 226:     Open_Contact_State = PORTCbits.RC0;
   594                           
   595                           ;incstack = 0
   596  007A8A  A082               	btfss	3970,0,c	;volatile
   597  007A8C  D002               	goto	u1650
   598  007A8E  0E01               	movlw	1
   599  007A90  D001               	goto	u1656
   600  007A92                     u1650:
   601  007A92  0E00               	movlw	0
   602  007A94                     u1656:
   603  007A94  6E35               	movwf	_Open_Contact_State,c
   604                           
   605                           ;main.c: 227:     _delay((unsigned long)((50)*(20000000/4000.0)));
   606  007A96  0E02               	movlw	2
   607  007A98  6E44               	movwf	(??_Open_Lock+1)& (0+255),c
   608  007A9A  0E45               	movlw	69
   609  007A9C  6E43               	movwf	??_Open_Lock& (0+255),c
   610  007A9E  0EAA               	movlw	170
   611  007AA0                     u1897:
   612  007AA0  2EE8               	decfsz	wreg,f,c
   613  007AA2  D7FE               	bra	u1897
   614  007AA4  2E43               	decfsz	??_Open_Lock& (0+255),f,c
   615  007AA6  D7FC               	bra	u1897
   616  007AA8  2E44               	decfsz	(??_Open_Lock+1)& (0+255),f,c
   617  007AAA  D7FA               	bra	u1897
   618                           
   619                           ;main.c: 228:     if(Open_Contact_State == 0 && Last_Open_Contact_State == 1) {
   620  007AAC  5035               	movf	_Open_Contact_State,w,c
   621  007AAE  A4D8               	btfss	status,2,c
   622  007AB0  D2A4               	goto	l3922
   623  007AB2  0455               	decf	_Last_Open_Contact_State,w,c
   624  007AB4  A4D8               	btfss	status,2,c
   625  007AB6  D2A1               	goto	l3922
   626                           
   627                           ;main.c: 229:         _delay((unsigned long)((50)*(20000000/4000.0)));
   628  007AB8  0E02               	movlw	2
   629  007ABA  6E44               	movwf	(??_Open_Lock+1)& (0+255),c
   630  007ABC  0E45               	movlw	69
   631  007ABE  6E43               	movwf	??_Open_Lock& (0+255),c
   632  007AC0  0EAA               	movlw	170
   633  007AC2                     u1907:
   634  007AC2  2EE8               	decfsz	wreg,f,c
   635  007AC4  D7FE               	bra	u1907
   636  007AC6  2E43               	decfsz	??_Open_Lock& (0+255),f,c
   637  007AC8  D7FC               	bra	u1907
   638  007ACA  2E44               	decfsz	(??_Open_Lock+1)& (0+255),f,c
   639  007ACC  D7FA               	bra	u1907
   640                           
   641                           ;main.c: 230:         End_Stop_Open_State = PORTAbits.RA4;
   642  007ACE  A880               	btfss	3968,4,c	;volatile
   643  007AD0  D002               	goto	u1680
   644  007AD2  0E01               	movlw	1
   645  007AD4  D001               	goto	u1686
   646  007AD6                     u1680:
   647  007AD6  0E00               	movlw	0
   648  007AD8                     u1686:
   649  007AD8  6E34               	movwf	_End_Stop_Open_State,c
   650                           
   651                           ;main.c: 231:         if(Open_Contact_State == 0 && Last_Open_Contact_State == 1 && End_
      +                          Stop_Open_State == 1) {
   652  007ADA  5035               	movf	_Open_Contact_State,w,c
   653  007ADC  A4D8               	btfss	status,2,c
   654  007ADE  D28D               	goto	l3922
   655  007AE0  0455               	decf	_Last_Open_Contact_State,w,c
   656  007AE2  A4D8               	btfss	status,2,c
   657  007AE4  D28A               	goto	l3922
   658  007AE6  0434               	decf	_End_Stop_Open_State,w,c
   659  007AE8  A4D8               	btfss	status,2,c
   660  007AEA  D287               	goto	l3922
   661                           
   662                           ;main.c: 232:             Time_Open_State = eeprom_readx(0x04);
   663  007AEC  0E00               	movlw	0
   664  007AEE  6E38               	movwf	eeprom_readx@address+1,c
   665  007AF0  0E04               	movlw	4
   666  007AF2  6E37               	movwf	eeprom_readx@address,c
   667  007AF4  EC66  F030         	call	_eeprom_readx	;wreg free
   668  007AF8  6E43               	movwf	??_Open_Lock& (0+255),c
   669  007AFA  5043               	movf	??_Open_Lock,w,c
   670  007AFC  6E48               	movwf	_Time_Open_State,c
   671  007AFE  6A49               	clrf	_Time_Open_State+1,c
   672                           
   673                           ;main.c: 233:             Time_Open_State = Time_Open_State * 1000;
   674  007B00  C048  F037         	movff	_Time_Open_State,___wmul@multiplier
   675  007B04  C049  F038         	movff	_Time_Open_State+1,___wmul@multiplier+1
   676  007B08  0E03               	movlw	3
   677  007B0A  6E3A               	movwf	___wmul@multiplicand+1,c
   678  007B0C  0EE8               	movlw	232
   679  007B0E  6E39               	movwf	___wmul@multiplicand,c
   680  007B10  EC8F  F030         	call	___wmul	;wreg free
   681  007B14  C037  F048         	movff	?___wmul,_Time_Open_State
   682  007B18  C038  F049         	movff	?___wmul+1,_Time_Open_State+1
   683                           
   684                           ;main.c: 234:             switch (Time_Open_State)
   685  007B1C  D0ED               	goto	l3850
   686  007B1E                     l3818:
   687  007B1E  0E1A               	movlw	26
   688  007B20  6E44               	movwf	(??_Open_Lock+1)& (0+255),c
   689  007B22  0E5E               	movlw	94
   690  007B24  6E43               	movwf	??_Open_Lock& (0+255),c
   691  007B26  0E6E               	movlw	110
   692  007B28                     u1917:
   693  007B28  2EE8               	decfsz	wreg,f,c
   694  007B2A  D7FE               	bra	u1917
   695  007B2C  2E43               	decfsz	??_Open_Lock& (0+255),f,c
   696  007B2E  D7FC               	bra	u1917
   697  007B30  2E44               	decfsz	(??_Open_Lock+1)& (0+255),f,c
   698  007B32  D7FA               	bra	u1917
   699  007B34  D082               	goto	L5
   700  007B36                     l3820:
   701  007B36  0E33               	movlw	51
   702  007B38  6E44               	movwf	(??_Open_Lock+1)& (0+255),c
   703  007B3A  0EBB               	movlw	187
   704  007B3C  6E43               	movwf	??_Open_Lock& (0+255),c
   705  007B3E  0EE0               	movlw	224
   706  007B40                     u1927:
   707  007B40  2EE8               	decfsz	wreg,f,c
   708  007B42  D7FE               	bra	u1927
   709  007B44  2E43               	decfsz	??_Open_Lock& (0+255),f,c
   710  007B46  D7FC               	bra	u1927
   711  007B48  2E44               	decfsz	(??_Open_Lock+1)& (0+255),f,c
   712  007B4A  D7FA               	bra	u1927
   713  007B4C  D158               	goto	l3852
   714  007B4E                     l3822:
   715  007B4E  0E4D               	movlw	77
   716  007B50  6E44               	movwf	(??_Open_Lock+1)& (0+255),c
   717  007B52  0E19               	movlw	25
   718  007B54  6E43               	movwf	??_Open_Lock& (0+255),c
   719  007B56  0E50               	movlw	80
   720  007B58                     u1937:
   721  007B58  2EE8               	decfsz	wreg,f,c
   722  007B5A  D7FE               	bra	u1937
   723  007B5C  2E43               	decfsz	??_Open_Lock& (0+255),f,c
   724  007B5E  D7FC               	bra	u1937
   725  007B60  2E44               	decfsz	(??_Open_Lock+1)& (0+255),f,c
   726  007B62  D7FA               	bra	u1937
   727  007B64  D14C               	goto	l3852
   728  007B66                     l3824:
   729  007B66  0E66               	movlw	102
   730  007B68  6E44               	movwf	(??_Open_Lock+1)& (0+255),c
   731  007B6A  0E76               	movlw	118
   732  007B6C  6E43               	movwf	??_Open_Lock& (0+255),c
   733  007B6E  0EC1               	movlw	193
   734  007B70                     u1947:
   735  007B70  2EE8               	decfsz	wreg,f,c
   736  007B72  D7FE               	bra	u1947
   737  007B74  2E43               	decfsz	??_Open_Lock& (0+255),f,c
   738  007B76  D7FC               	bra	u1947
   739  007B78  2E44               	decfsz	(??_Open_Lock+1)& (0+255),f,c
   740  007B7A  D7FA               	bra	u1947
   741  007B7C  D0A4               	goto	L6
   742  007B7E                     l3826:
   743  007B7E  0E7F               	movlw	127
   744  007B80  6E44               	movwf	(??_Open_Lock+1)& (0+255),c
   745  007B82  0ED4               	movlw	212
   746  007B84  6E43               	movwf	??_Open_Lock& (0+255),c
   747  007B86  0E32               	movlw	50
   748  007B88                     u1957:
   749  007B88  2EE8               	decfsz	wreg,f,c
   750  007B8A  D7FE               	bra	u1957
   751  007B8C  2E43               	decfsz	??_Open_Lock& (0+255),f,c
   752  007B8E  D7FC               	bra	u1957
   753  007B90  2E44               	decfsz	(??_Open_Lock+1)& (0+255),f,c
   754  007B92  D7FA               	bra	u1957
   755  007B94  D134               	goto	l3852
   756  007B96                     l3828:
   757  007B96  0E99               	movlw	153
   758  007B98  6E44               	movwf	(??_Open_Lock+1)& (0+255),c
   759  007B9A  0E31               	movlw	49
   760  007B9C  6E43               	movwf	??_Open_Lock& (0+255),c
   761  007B9E  0EA2               	movlw	162
   762  007BA0                     u1967:
   763  007BA0  2EE8               	decfsz	wreg,f,c
   764  007BA2  D7FE               	bra	u1967
   765  007BA4  2E43               	decfsz	??_Open_Lock& (0+255),f,c
   766  007BA6  D7FC               	bra	u1967
   767  007BA8  2E44               	decfsz	(??_Open_Lock+1)& (0+255),f,c
   768  007BAA  D7FA               	bra	u1967
   769  007BAC  D046               	goto	L5
   770  007BAE                     l3830:
   771  007BAE  0EB2               	movlw	178
   772  007BB0  6E44               	movwf	(??_Open_Lock+1)& (0+255),c
   773  007BB2  0E8F               	movlw	143
   774  007BB4  6E43               	movwf	??_Open_Lock& (0+255),c
   775  007BB6  0E13               	movlw	19
   776  007BB8                     u1977:
   777  007BB8  2EE8               	decfsz	wreg,f,c
   778  007BBA  D7FE               	bra	u1977
   779  007BBC  2E43               	decfsz	??_Open_Lock& (0+255),f,c
   780  007BBE  D7FC               	bra	u1977
   781  007BC0  2E44               	decfsz	(??_Open_Lock+1)& (0+255),f,c
   782  007BC2  D7FA               	bra	u1977
   783  007BC4  D080               	goto	L6
   784  007BC6                     l3832:
   785  007BC6  0ECB               	movlw	203
   786  007BC8  6E44               	movwf	(??_Open_Lock+1)& (0+255),c
   787  007BCA  0EEC               	movlw	236
   788  007BCC  6E43               	movwf	??_Open_Lock& (0+255),c
   789  007BCE  0E84               	movlw	132
   790  007BD0                     u1987:
   791  007BD0  2EE8               	decfsz	wreg,f,c
   792  007BD2  D7FE               	bra	u1987
   793  007BD4  2E43               	decfsz	??_Open_Lock& (0+255),f,c
   794  007BD6  D7FC               	bra	u1987
   795  007BD8  2E44               	decfsz	(??_Open_Lock+1)& (0+255),f,c
   796  007BDA  D7FA               	bra	u1987
   797  007BDC  D02E               	goto	L5
   798  007BDE                     l3834:
   799  007BDE  0EE5               	movlw	229
   800  007BE0  6E44               	movwf	(??_Open_Lock+1)& (0+255),c
   801  007BE2  0E49               	movlw	73
   802  007BE4  6E43               	movwf	??_Open_Lock& (0+255),c
   803  007BE6  0EF5               	movlw	245
   804  007BE8                     u1997:
   805  007BE8  2EE8               	decfsz	wreg,f,c
   806  007BEA  D7FE               	bra	u1997
   807  007BEC  2E43               	decfsz	??_Open_Lock& (0+255),f,c
   808  007BEE  D7FC               	bra	u1997
   809  007BF0  2E44               	decfsz	(??_Open_Lock+1)& (0+255),f,c
   810  007BF2  D7FA               	bra	u1997
   811  007BF4  D068               	goto	L6
   812  007BF6                     l3836:
   813  007BF6  0EFE               	movlw	254
   814  007BF8  6E44               	movwf	(??_Open_Lock+1)& (0+255),c
   815  007BFA  0EA7               	movlw	167
   816  007BFC  6E43               	movwf	??_Open_Lock& (0+255),c
   817  007BFE  0E66               	movlw	102
   818  007C00                     u2007:
   819  007C00  2EE8               	decfsz	wreg,f,c
   820  007C02  D7FE               	bra	u2007
   821  007C04  2E43               	decfsz	??_Open_Lock& (0+255),f,c
   822  007C06  D7FC               	bra	u2007
   823  007C08  2E44               	decfsz	(??_Open_Lock+1)& (0+255),f,c
   824  007C0A  D7FA               	bra	u2007
   825  007C0C  D0F8               	goto	l3852
   826  007C0E                     l3838:
   827  007C0E  0EFE               	movlw	254
   828  007C10  6E44               	movwf	(??_Open_Lock+1)& (0+255),c
   829  007C12  0EA7               	movlw	167
   830  007C14  6E43               	movwf	??_Open_Lock& (0+255),c
   831  007C16  0E66               	movlw	102
   832  007C18                     u2017:
   833  007C18  2EE8               	decfsz	wreg,f,c
   834  007C1A  D7FE               	bra	u2017
   835  007C1C  2E43               	decfsz	??_Open_Lock& (0+255),f,c
   836  007C1E  D7FC               	bra	u2017
   837  007C20  2E44               	decfsz	(??_Open_Lock+1)& (0+255),f,c
   838  007C22  D7FA               	bra	u2017
   839  007C24  0E1A               	movlw	26
   840  007C26  6E44               	movwf	(??_Open_Lock+1)& (0+255),c
   841  007C28  0E5E               	movlw	94
   842  007C2A  6E43               	movwf	??_Open_Lock& (0+255),c
   843  007C2C  0E6E               	movlw	110
   844  007C2E                     u2027:
   845  007C2E  2EE8               	decfsz	wreg,f,c
   846  007C30  D7FE               	bra	u2027
   847  007C32  2E43               	decfsz	??_Open_Lock& (0+255),f,c
   848  007C34  D7FC               	bra	u2027
   849  007C36  2E44               	decfsz	(??_Open_Lock+1)& (0+255),f,c
   850  007C38  D7FA               	bra	u2027
   851  007C3A                     L5:
   852  007C3A  D000               	nop2	
   853  007C3C  D0E0               	goto	l3852
   854  007C3E                     l3840:
   855  007C3E  0EFE               	movlw	254
   856  007C40  6E44               	movwf	(??_Open_Lock+1)& (0+255),c
   857  007C42  0EA7               	movlw	167
   858  007C44  6E43               	movwf	??_Open_Lock& (0+255),c
   859  007C46  0E66               	movlw	102
   860  007C48                     u2037:
   861  007C48  2EE8               	decfsz	wreg,f,c
   862  007C4A  D7FE               	bra	u2037
   863  007C4C  2E43               	decfsz	??_Open_Lock& (0+255),f,c
   864  007C4E  D7FC               	bra	u2037
   865  007C50  2E44               	decfsz	(??_Open_Lock+1)& (0+255),f,c
   866  007C52  D7FA               	bra	u2037
   867  007C54  0E33               	movlw	51
   868  007C56  6E44               	movwf	(??_Open_Lock+1)& (0+255),c
   869  007C58  0EBB               	movlw	187
   870  007C5A  6E43               	movwf	??_Open_Lock& (0+255),c
   871  007C5C  0EE0               	movlw	224
   872  007C5E                     u2047:
   873  007C5E  2EE8               	decfsz	wreg,f,c
   874  007C60  D7FE               	bra	u2047
   875  007C62  2E43               	decfsz	??_Open_Lock& (0+255),f,c
   876  007C64  D7FC               	bra	u2047
   877  007C66  2E44               	decfsz	(??_Open_Lock+1)& (0+255),f,c
   878  007C68  D7FA               	bra	u2047
   879  007C6A  D0C9               	goto	l3852
   880  007C6C                     l3842:
   881  007C6C  0EFE               	movlw	254
   882  007C6E  6E44               	movwf	(??_Open_Lock+1)& (0+255),c
   883  007C70  0EA7               	movlw	167
   884  007C72  6E43               	movwf	??_Open_Lock& (0+255),c
   885  007C74  0E66               	movlw	102
   886  007C76                     u2057:
   887  007C76  2EE8               	decfsz	wreg,f,c
   888  007C78  D7FE               	bra	u2057
   889  007C7A  2E43               	decfsz	??_Open_Lock& (0+255),f,c
   890  007C7C  D7FC               	bra	u2057
   891  007C7E  2E44               	decfsz	(??_Open_Lock+1)& (0+255),f,c
   892  007C80  D7FA               	bra	u2057
   893  007C82  0E4D               	movlw	77
   894  007C84  6E44               	movwf	(??_Open_Lock+1)& (0+255),c
   895  007C86  0E19               	movlw	25
   896  007C88  6E43               	movwf	??_Open_Lock& (0+255),c
   897  007C8A  0E50               	movlw	80
   898  007C8C                     u2067:
   899  007C8C  2EE8               	decfsz	wreg,f,c
   900  007C8E  D7FE               	bra	u2067
   901  007C90  2E43               	decfsz	??_Open_Lock& (0+255),f,c
   902  007C92  D7FC               	bra	u2067
   903  007C94  2E44               	decfsz	(??_Open_Lock+1)& (0+255),f,c
   904  007C96  D7FA               	bra	u2067
   905  007C98  D0B2               	goto	l3852
   906  007C9A                     l3844:
   907  007C9A  0EFE               	movlw	254
   908  007C9C  6E44               	movwf	(??_Open_Lock+1)& (0+255),c
   909  007C9E  0EA7               	movlw	167
   910  007CA0  6E43               	movwf	??_Open_Lock& (0+255),c
   911  007CA2  0E66               	movlw	102
   912  007CA4                     u2077:
   913  007CA4  2EE8               	decfsz	wreg,f,c
   914  007CA6  D7FE               	bra	u2077
   915  007CA8  2E43               	decfsz	??_Open_Lock& (0+255),f,c
   916  007CAA  D7FC               	bra	u2077
   917  007CAC  2E44               	decfsz	(??_Open_Lock+1)& (0+255),f,c
   918  007CAE  D7FA               	bra	u2077
   919  007CB0  0E66               	movlw	102
   920  007CB2  6E44               	movwf	(??_Open_Lock+1)& (0+255),c
   921  007CB4  0E76               	movlw	118
   922  007CB6  6E43               	movwf	??_Open_Lock& (0+255),c
   923  007CB8  0EC1               	movlw	193
   924  007CBA                     u2087:
   925  007CBA  2EE8               	decfsz	wreg,f,c
   926  007CBC  D7FE               	bra	u2087
   927  007CBE  2E43               	decfsz	??_Open_Lock& (0+255),f,c
   928  007CC0  D7FC               	bra	u2087
   929  007CC2  2E44               	decfsz	(??_Open_Lock+1)& (0+255),f,c
   930  007CC4  D7FA               	bra	u2087
   931  007CC6                     L6:
   932  007CC6  F000               	nop	
   933  007CC8  D09A               	goto	l3852
   934  007CCA                     l3846:
   935  007CCA  0EFE               	movlw	254
   936  007CCC  6E44               	movwf	(??_Open_Lock+1)& (0+255),c
   937  007CCE  0EA7               	movlw	167
   938  007CD0  6E43               	movwf	??_Open_Lock& (0+255),c
   939  007CD2  0E66               	movlw	102
   940  007CD4                     u2097:
   941  007CD4  2EE8               	decfsz	wreg,f,c
   942  007CD6  D7FE               	bra	u2097
   943  007CD8  2E43               	decfsz	??_Open_Lock& (0+255),f,c
   944  007CDA  D7FC               	bra	u2097
   945  007CDC  2E44               	decfsz	(??_Open_Lock+1)& (0+255),f,c
   946  007CDE  D7FA               	bra	u2097
   947  007CE0  0E7F               	movlw	127
   948  007CE2  6E44               	movwf	(??_Open_Lock+1)& (0+255),c
   949  007CE4  0ED4               	movlw	212
   950  007CE6  6E43               	movwf	??_Open_Lock& (0+255),c
   951  007CE8  0E32               	movlw	50
   952  007CEA                     u2107:
   953  007CEA  2EE8               	decfsz	wreg,f,c
   954  007CEC  D7FE               	bra	u2107
   955  007CEE  2E43               	decfsz	??_Open_Lock& (0+255),f,c
   956  007CF0  D7FC               	bra	u2107
   957  007CF2  2E44               	decfsz	(??_Open_Lock+1)& (0+255),f,c
   958  007CF4  D7FA               	bra	u2107
   959  007CF6  D083               	goto	l3852
   960  007CF8                     l3850:
   961  007CF8  C048  F043         	movff	_Time_Open_State,??_Open_Lock
   962  007CFC  C049  F044         	movff	_Time_Open_State+1,??_Open_Lock+1
   963                           
   964                           ; Switch on 2 bytes has been partitioned into a top level switch of size 1, and 16 sub-s
      +                          witches
   965                           ; Switch size 1, requested type "simple"
   966                           ; Number of cases is 16, Range of values is 0 to 58
   967                           ; switch strategies available:
   968                           ; Name         Instructions Cycles
   969                           ; simple_byte           49    25 (average)
   970                           ;	Chosen strategy is simple_byte
   971  007D00  5044               	movf	??_Open_Lock+1,w,c
   972  007D02  0A00               	xorlw	0	; case 0
   973  007D04  B4D8               	btfsc	status,2,c
   974  007D06  D02E               	goto	l4208
   975  007D08  0A03               	xorlw	3	; case 3
   976  007D0A  B4D8               	btfsc	status,2,c
   977  007D0C  D02E               	goto	l4210
   978  007D0E  0A04               	xorlw	4	; case 7
   979  007D10  B4D8               	btfsc	status,2,c
   980  007D12  D030               	goto	l4212
   981  007D14  0A0C               	xorlw	12	; case 11
   982  007D16  B4D8               	btfsc	status,2,c
   983  007D18  D032               	goto	l4214
   984  007D1A  0A04               	xorlw	4	; case 15
   985  007D1C  B4D8               	btfsc	status,2,c
   986  007D1E  D034               	goto	l4216
   987  007D20  0A1C               	xorlw	28	; case 19
   988  007D22  B4D8               	btfsc	status,2,c
   989  007D24  D036               	goto	l4218
   990  007D26  0A04               	xorlw	4	; case 23
   991  007D28  B4D8               	btfsc	status,2,c
   992  007D2A  D038               	goto	l4220
   993  007D2C  0A0C               	xorlw	12	; case 27
   994  007D2E  B4D8               	btfsc	status,2,c
   995  007D30  D03A               	goto	l4222
   996  007D32  0A04               	xorlw	4	; case 31
   997  007D34  B4D8               	btfsc	status,2,c
   998  007D36  D03C               	goto	l4224
   999  007D38  0A3C               	xorlw	60	; case 35
  1000  007D3A  B4D8               	btfsc	status,2,c
  1001  007D3C  D03E               	goto	l4226
  1002  007D3E  0A04               	xorlw	4	; case 39
  1003  007D40  B4D8               	btfsc	status,2,c
  1004  007D42  D040               	goto	l4228
  1005  007D44  0A0D               	xorlw	13	; case 42
  1006  007D46  B4D8               	btfsc	status,2,c
  1007  007D48  D042               	goto	l4230
  1008  007D4A  0A04               	xorlw	4	; case 46
  1009  007D4C  B4D8               	btfsc	status,2,c
  1010  007D4E  D044               	goto	l4232
  1011  007D50  0A1C               	xorlw	28	; case 50
  1012  007D52  B4D8               	btfsc	status,2,c
  1013  007D54  D046               	goto	l4234
  1014  007D56  0A04               	xorlw	4	; case 54
  1015  007D58  B4D8               	btfsc	status,2,c
  1016  007D5A  D048               	goto	l4236
  1017  007D5C  0A0C               	xorlw	12	; case 58
  1018  007D5E  B4D8               	btfsc	status,2,c
  1019  007D60  D04A               	goto	l4238
  1020  007D62  D04D               	goto	l3852
  1021  007D64                     l4208:
  1022                           
  1023                           ; Switch size 1, requested type "simple"
  1024                           ; Number of cases is 1, Range of values is 0 to 0
  1025                           ; switch strategies available:
  1026                           ; Name         Instructions Cycles
  1027                           ; simple_byte            4     3 (average)
  1028                           ;	Chosen strategy is simple_byte
  1029  007D64  5043               	movf	??_Open_Lock,w,c
  1030  007D66  0A00               	xorlw	0	; case 0
  1031  007D68  D04A               	goto	l3852
  1032  007D6A                     l4210:
  1033                           
  1034                           ; Switch size 1, requested type "simple"
  1035                           ; Number of cases is 1, Range of values is 232 to 232
  1036                           ; switch strategies available:
  1037                           ; Name         Instructions Cycles
  1038                           ; simple_byte            4     3 (average)
  1039                           ;	Chosen strategy is simple_byte
  1040  007D6A  5043               	movf	??_Open_Lock,w,c
  1041  007D6C  0AE8               	xorlw	232	; case 232
  1042  007D6E  B4D8               	btfsc	status,2,c
  1043  007D70  D6D6               	goto	l3818
  1044  007D72  D045               	goto	l3852
  1045  007D74                     l4212:
  1046                           
  1047                           ; Switch size 1, requested type "simple"
  1048                           ; Number of cases is 1, Range of values is 208 to 208
  1049                           ; switch strategies available:
  1050                           ; Name         Instructions Cycles
  1051                           ; simple_byte            4     3 (average)
  1052                           ;	Chosen strategy is simple_byte
  1053  007D74  5043               	movf	??_Open_Lock,w,c
  1054  007D76  0AD0               	xorlw	208	; case 208
  1055  007D78  B4D8               	btfsc	status,2,c
  1056  007D7A  D6DD               	goto	l3820
  1057  007D7C  D040               	goto	l3852
  1058  007D7E                     l4214:
  1059                           
  1060                           ; Switch size 1, requested type "simple"
  1061                           ; Number of cases is 1, Range of values is 184 to 184
  1062                           ; switch strategies available:
  1063                           ; Name         Instructions Cycles
  1064                           ; simple_byte            4     3 (average)
  1065                           ;	Chosen strategy is simple_byte
  1066  007D7E  5043               	movf	??_Open_Lock,w,c
  1067  007D80  0AB8               	xorlw	184	; case 184
  1068  007D82  B4D8               	btfsc	status,2,c
  1069  007D84  D6E4               	goto	l3822
  1070  007D86  D03B               	goto	l3852
  1071  007D88                     l4216:
  1072                           
  1073                           ; Switch size 1, requested type "simple"
  1074                           ; Number of cases is 1, Range of values is 160 to 160
  1075                           ; switch strategies available:
  1076                           ; Name         Instructions Cycles
  1077                           ; simple_byte            4     3 (average)
  1078                           ;	Chosen strategy is simple_byte
  1079  007D88  5043               	movf	??_Open_Lock,w,c
  1080  007D8A  0AA0               	xorlw	160	; case 160
  1081  007D8C  B4D8               	btfsc	status,2,c
  1082  007D8E  D6EB               	goto	l3824
  1083  007D90  D036               	goto	l3852
  1084  007D92                     l4218:
  1085                           
  1086                           ; Switch size 1, requested type "simple"
  1087                           ; Number of cases is 1, Range of values is 136 to 136
  1088                           ; switch strategies available:
  1089                           ; Name         Instructions Cycles
  1090                           ; simple_byte            4     3 (average)
  1091                           ;	Chosen strategy is simple_byte
  1092  007D92  5043               	movf	??_Open_Lock,w,c
  1093  007D94  0A88               	xorlw	136	; case 136
  1094  007D96  B4D8               	btfsc	status,2,c
  1095  007D98  D6F2               	goto	l3826
  1096  007D9A  D031               	goto	l3852
  1097  007D9C                     l4220:
  1098                           
  1099                           ; Switch size 1, requested type "simple"
  1100                           ; Number of cases is 1, Range of values is 112 to 112
  1101                           ; switch strategies available:
  1102                           ; Name         Instructions Cycles
  1103                           ; simple_byte            4     3 (average)
  1104                           ;	Chosen strategy is simple_byte
  1105  007D9C  5043               	movf	??_Open_Lock,w,c
  1106  007D9E  0A70               	xorlw	112	; case 112
  1107  007DA0  B4D8               	btfsc	status,2,c
  1108  007DA2  D6F9               	goto	l3828
  1109  007DA4  D02C               	goto	l3852
  1110  007DA6                     l4222:
  1111                           
  1112                           ; Switch size 1, requested type "simple"
  1113                           ; Number of cases is 1, Range of values is 88 to 88
  1114                           ; switch strategies available:
  1115                           ; Name         Instructions Cycles
  1116                           ; simple_byte            4     3 (average)
  1117                           ;	Chosen strategy is simple_byte
  1118  007DA6  5043               	movf	??_Open_Lock,w,c
  1119  007DA8  0A58               	xorlw	88	; case 88
  1120  007DAA  B4D8               	btfsc	status,2,c
  1121  007DAC  D700               	goto	l3830
  1122  007DAE  D027               	goto	l3852
  1123  007DB0                     l4224:
  1124                           
  1125                           ; Switch size 1, requested type "simple"
  1126                           ; Number of cases is 1, Range of values is 64 to 64
  1127                           ; switch strategies available:
  1128                           ; Name         Instructions Cycles
  1129                           ; simple_byte            4     3 (average)
  1130                           ;	Chosen strategy is simple_byte
  1131  007DB0  5043               	movf	??_Open_Lock,w,c
  1132  007DB2  0A40               	xorlw	64	; case 64
  1133  007DB4  B4D8               	btfsc	status,2,c
  1134  007DB6  D707               	goto	l3832
  1135  007DB8  D022               	goto	l3852
  1136  007DBA                     l4226:
  1137                           
  1138                           ; Switch size 1, requested type "simple"
  1139                           ; Number of cases is 1, Range of values is 40 to 40
  1140                           ; switch strategies available:
  1141                           ; Name         Instructions Cycles
  1142                           ; simple_byte            4     3 (average)
  1143                           ;	Chosen strategy is simple_byte
  1144  007DBA  5043               	movf	??_Open_Lock,w,c
  1145  007DBC  0A28               	xorlw	40	; case 40
  1146  007DBE  B4D8               	btfsc	status,2,c
  1147  007DC0  D70E               	goto	l3834
  1148  007DC2  D01D               	goto	l3852
  1149  007DC4                     l4228:
  1150                           
  1151                           ; Switch size 1, requested type "simple"
  1152                           ; Number of cases is 1, Range of values is 16 to 16
  1153                           ; switch strategies available:
  1154                           ; Name         Instructions Cycles
  1155                           ; simple_byte            4     3 (average)
  1156                           ;	Chosen strategy is simple_byte
  1157  007DC4  5043               	movf	??_Open_Lock,w,c
  1158  007DC6  0A10               	xorlw	16	; case 16
  1159  007DC8  B4D8               	btfsc	status,2,c
  1160  007DCA  D715               	goto	l3836
  1161  007DCC  D018               	goto	l3852
  1162  007DCE                     l4230:
  1163                           
  1164                           ; Switch size 1, requested type "simple"
  1165                           ; Number of cases is 1, Range of values is 248 to 248
  1166                           ; switch strategies available:
  1167                           ; Name         Instructions Cycles
  1168                           ; simple_byte            4     3 (average)
  1169                           ;	Chosen strategy is simple_byte
  1170  007DCE  5043               	movf	??_Open_Lock,w,c
  1171  007DD0  0AF8               	xorlw	248	; case 248
  1172  007DD2  B4D8               	btfsc	status,2,c
  1173  007DD4  D71C               	goto	l3838
  1174  007DD6  D013               	goto	l3852
  1175  007DD8                     l4232:
  1176                           
  1177                           ; Switch size 1, requested type "simple"
  1178                           ; Number of cases is 1, Range of values is 224 to 224
  1179                           ; switch strategies available:
  1180                           ; Name         Instructions Cycles
  1181                           ; simple_byte            4     3 (average)
  1182                           ;	Chosen strategy is simple_byte
  1183  007DD8  5043               	movf	??_Open_Lock,w,c
  1184  007DDA  0AE0               	xorlw	224	; case 224
  1185  007DDC  B4D8               	btfsc	status,2,c
  1186  007DDE  D72F               	goto	l3840
  1187  007DE0  D00E               	goto	l3852
  1188  007DE2                     l4234:
  1189                           
  1190                           ; Switch size 1, requested type "simple"
  1191                           ; Number of cases is 1, Range of values is 200 to 200
  1192                           ; switch strategies available:
  1193                           ; Name         Instructions Cycles
  1194                           ; simple_byte            4     3 (average)
  1195                           ;	Chosen strategy is simple_byte
  1196  007DE2  5043               	movf	??_Open_Lock,w,c
  1197  007DE4  0AC8               	xorlw	200	; case 200
  1198  007DE6  B4D8               	btfsc	status,2,c
  1199  007DE8  D741               	goto	l3842
  1200  007DEA  D009               	goto	l3852
  1201  007DEC                     l4236:
  1202                           
  1203                           ; Switch size 1, requested type "simple"
  1204                           ; Number of cases is 1, Range of values is 176 to 176
  1205                           ; switch strategies available:
  1206                           ; Name         Instructions Cycles
  1207                           ; simple_byte            4     3 (average)
  1208                           ;	Chosen strategy is simple_byte
  1209  007DEC  5043               	movf	??_Open_Lock,w,c
  1210  007DEE  0AB0               	xorlw	176	; case 176
  1211  007DF0  B4D8               	btfsc	status,2,c
  1212  007DF2  D753               	goto	l3844
  1213  007DF4  D004               	goto	l3852
  1214  007DF6                     l4238:
  1215                           
  1216                           ; Switch size 1, requested type "simple"
  1217                           ; Number of cases is 1, Range of values is 152 to 152
  1218                           ; switch strategies available:
  1219                           ; Name         Instructions Cycles
  1220                           ; simple_byte            4     3 (average)
  1221                           ;	Chosen strategy is simple_byte
  1222  007DF6  5043               	movf	??_Open_Lock,w,c
  1223  007DF8  0A98               	xorlw	152	; case 152
  1224  007DFA  B4D8               	btfsc	status,2,c
  1225  007DFC  D766               	goto	l3846
  1226  007DFE                     l3852:
  1227                           
  1228                           ;main.c: 254:             Flag_End_Stop_Open = 1;
  1229  007DFE  0E01               	movlw	1
  1230  007E00  6E2D               	movwf	_Flag_End_Stop_Open,c
  1231  007E02                     l3854:
  1232                           
  1233                           ;main.c: 256:                 PORTCbits.RC2 = 1;
  1234  007E02  8482               	bsf	3970,2,c	;volatile
  1235                           
  1236                           ;main.c: 257:                 End_Stop_Open_State = PORTAbits.RA4;
  1237  007E04  A880               	btfss	3968,4,c	;volatile
  1238  007E06  D002               	goto	u1720
  1239  007E08  0E01               	movlw	1
  1240  007E0A  D001               	goto	u1726
  1241  007E0C                     u1720:
  1242  007E0C  0E00               	movlw	0
  1243  007E0E                     u1726:
  1244  007E0E  6E34               	movwf	_End_Stop_Open_State,c
  1245                           
  1246                           ;main.c: 258:                 Count_Time_Close++;
  1247  007E10  0E01               	movlw	1
  1248  007E12  261D               	addwf	_Count_Time_Close,f,c
  1249  007E14  0E00               	movlw	0
  1250  007E16  221E               	addwfc	_Count_Time_Close+1,f,c
  1251  007E18  221F               	addwfc	_Count_Time_Close+2,f,c
  1252  007E1A  2220               	addwfc	_Count_Time_Close+3,f,c
  1253                           
  1254                           ;main.c: 259:                 Sense_Current();
  1255  007E1C  ECB6  F030         	call	_Sense_Current	;wreg free
  1256                           
  1257                           ;main.c: 260:                 if (End_Stop_Open_State == 0) {
  1258  007E20  5034               	movf	_End_Stop_Open_State,w,c
  1259  007E22  A4D8               	btfss	status,2,c
  1260  007E24  D03E               	goto	l3882
  1261                           
  1262                           ;main.c: 261:                     _delay((unsigned long)((250)*(20000000/4000.0)));
  1263  007E26  0E07               	movlw	7
  1264  007E28  6E44               	movwf	(??_Open_Lock+1)& (0+255),c
  1265  007E2A  0E58               	movlw	88
  1266  007E2C  6E43               	movwf	??_Open_Lock& (0+255),c
  1267  007E2E  0E5A               	movlw	90
  1268  007E30                     u2117:
  1269  007E30  2EE8               	decfsz	wreg,f,c
  1270  007E32  D7FE               	bra	u2117
  1271  007E34  2E43               	decfsz	??_Open_Lock& (0+255),f,c
  1272  007E36  D7FC               	bra	u2117
  1273  007E38  2E44               	decfsz	(??_Open_Lock+1)& (0+255),f,c
  1274  007E3A  D7FA               	bra	u2117
  1275                           
  1276                           ;main.c: 262:                     End_Stop_Open_State = PORTAbits.RA4;
  1277  007E3C  A880               	btfss	3968,4,c	;volatile
  1278  007E3E  D002               	goto	u1740
  1279  007E40  0E01               	movlw	1
  1280  007E42  D001               	goto	u1746
  1281  007E44                     u1740:
  1282  007E44  0E00               	movlw	0
  1283  007E46                     u1746:
  1284  007E46  6E34               	movwf	_End_Stop_Open_State,c
  1285                           
  1286                           ;main.c: 263:                     if (End_Stop_Open_State == 0) {
  1287  007E48  5034               	movf	_End_Stop_Open_State,w,c
  1288  007E4A  A4D8               	btfss	status,2,c
  1289  007E4C  D02A               	goto	l3882
  1290                           
  1291                           ;main.c: 264:                         Flag_End_Stop_Open = 0;
  1292  007E4E  0E00               	movlw	0
  1293  007E50  6E2D               	movwf	_Flag_End_Stop_Open,c
  1294                           
  1295                           ;main.c: 265:                         int Value_Latch = eeprom_readx(0x01);
  1296  007E52  0E00               	movlw	0
  1297  007E54  6E38               	movwf	eeprom_readx@address+1,c
  1298  007E56  0E01               	movlw	1
  1299  007E58  6E37               	movwf	eeprom_readx@address,c
  1300  007E5A  EC66  F030         	call	_eeprom_readx	;wreg free
  1301  007E5E  6E43               	movwf	??_Open_Lock& (0+255),c
  1302  007E60  5043               	movf	??_Open_Lock,w,c
  1303  007E62  6E45               	movwf	Open_Lock@Value_Latch,c
  1304  007E64  6A46               	clrf	Open_Lock@Value_Latch+1,c
  1305                           
  1306                           ;main.c: 266:                         if (Value_Latch == 1) {
  1307  007E66  0445               	decf	Open_Lock@Value_Latch,w,c
  1308  007E68  1046               	iorwf	Open_Lock@Value_Latch+1,w,c
  1309  007E6A  A4D8               	btfss	status,2,c
  1310  007E6C  D01A               	goto	l3882
  1311                           
  1312                           ;main.c: 267:                             _delay((unsigned long)((3000)*(20000000/4000.0
      +                          )));
  1313  007E6E  0E4D               	movlw	77
  1314  007E70  6E44               	movwf	(??_Open_Lock+1)& (0+255),c
  1315  007E72  0E19               	movlw	25
  1316  007E74  6E43               	movwf	??_Open_Lock& (0+255),c
  1317  007E76  0E50               	movlw	80
  1318  007E78                     u2127:
  1319  007E78  2EE8               	decfsz	wreg,f,c
  1320  007E7A  D7FE               	bra	u2127
  1321  007E7C  2E43               	decfsz	??_Open_Lock& (0+255),f,c
  1322  007E7E  D7FC               	bra	u2127
  1323  007E80  2E44               	decfsz	(??_Open_Lock+1)& (0+255),f,c
  1324  007E82  D7FA               	bra	u2127
  1325                           
  1326                           ;main.c: 268:                             PORTCbits.RC2 = 0;
  1327  007E84  9482               	bcf	3970,2,c	;volatile
  1328                           
  1329                           ;main.c: 269:                             PORTCbits.RC1 = 1;
  1330  007E86  8282               	bsf	3970,1,c	;volatile
  1331                           
  1332                           ;main.c: 270:                             _delay((unsigned long)((500)*(20000000/4000.0)
      +                          ));
  1333  007E88  0E0D               	movlw	13
  1334  007E8A  6E44               	movwf	(??_Open_Lock+1)& (0+255),c
  1335  007E8C  0EAF               	movlw	175
  1336  007E8E  6E43               	movwf	??_Open_Lock& (0+255),c
  1337  007E90  0EB6               	movlw	182
  1338  007E92                     u2137:
  1339  007E92  2EE8               	decfsz	wreg,f,c
  1340  007E94  D7FE               	bra	u2137
  1341  007E96  2E43               	decfsz	??_Open_Lock& (0+255),f,c
  1342  007E98  D7FC               	bra	u2137
  1343  007E9A  2E44               	decfsz	(??_Open_Lock+1)& (0+255),f,c
  1344  007E9C  D7FA               	bra	u2137
  1345  007E9E  D000               	nop2	
  1346                           
  1347                           ;main.c: 271:                             PORTCbits.RC1 = 0;
  1348  007EA0  9282               	bcf	3970,1,c	;volatile
  1349  007EA2                     l3882:
  1350                           
  1351                           ;main.c: 275:                 if(Count_Time_Close == 250000) {
  1352  007EA2  0E90               	movlw	144
  1353  007EA4  181D               	xorwf	_Count_Time_Close,w,c
  1354  007EA6  E111               	bnz	l3888
  1355  007EA8  0ED0               	movlw	208
  1356  007EAA  181E               	xorwf	_Count_Time_Close+1,w,c
  1357  007EAC  E10E               	bnz	l3888
  1358  007EAE  0E03               	movlw	3
  1359  007EB0  181F               	xorwf	_Count_Time_Close+2,w,c
  1360  007EB2  1020               	iorwf	_Count_Time_Close+3,w,c
  1361  007EB4  A4D8               	btfss	status,2,c
  1362  007EB6  D009               	goto	l3888
  1363                           
  1364                           ;main.c: 276:                     Count_Time_Close = 0;
  1365  007EB8  0E00               	movlw	0
  1366  007EBA  6E1D               	movwf	_Count_Time_Close,c
  1367  007EBC  0E00               	movlw	0
  1368  007EBE  6E1E               	movwf	_Count_Time_Close+1,c
  1369  007EC0  0E00               	movlw	0
  1370  007EC2  6E1F               	movwf	_Count_Time_Close+2,c
  1371  007EC4  0E00               	movlw	0
  1372  007EC6  6E20               	movwf	_Count_Time_Close+3,c
  1373                           
  1374                           ;main.c: 277:                     break;
  1375  007EC8  D01A               	goto	u1800
  1376  007ECA                     l3888:
  1377  007ECA  BE2A               	btfsc	_Current+1,7,c
  1378  007ECC  D015               	goto	l3896
  1379  007ECE  0E0D               	movlw	13
  1380  007ED0  5C29               	subwf	_Current,w,c
  1381  007ED2  0E02               	movlw	2
  1382  007ED4  582A               	subwfb	_Current+1,w,c
  1383  007ED6  A0D8               	btfss	status,0,c
  1384  007ED8  D00F               	goto	l3896
  1385                           
  1386                           ;main.c: 279:                     Count_Peake_Current++;
  1387  007EDA  4A2B               	infsnz	_Count_Peake_Current,f,c
  1388  007EDC  2A2C               	incf	_Count_Peake_Current+1,f,c
  1389                           
  1390                           ;main.c: 280:                     if (Count_Peake_Current > 4000) {
  1391  007EDE  BE2C               	btfsc	_Count_Peake_Current+1,7,c
  1392  007EE0  D00B               	goto	l3896
  1393  007EE2  0EA1               	movlw	161
  1394  007EE4  5C2B               	subwf	_Count_Peake_Current,w,c
  1395  007EE6  0E0F               	movlw	15
  1396  007EE8  582C               	subwfb	_Count_Peake_Current+1,w,c
  1397  007EEA  A0D8               	btfss	status,0,c
  1398  007EEC  D005               	goto	l3896
  1399                           
  1400                           ;main.c: 281:                         Count_Peake_Current = 0;
  1401  007EEE  0E00               	movlw	0
  1402  007EF0  6E2C               	movwf	_Count_Peake_Current+1,c
  1403  007EF2  0E00               	movlw	0
  1404  007EF4  6E2B               	movwf	_Count_Peake_Current,c
  1405                           
  1406                           ;main.c: 282:                         break;
  1407  007EF6  D003               	goto	u1800
  1408  007EF8                     l3896:
  1409                           
  1410                           ;main.c: 286:             } while(Flag_End_Stop_Open == 1);
  1411  007EF8  042D               	decf	_Flag_End_Stop_Open,w,c
  1412  007EFA  B4D8               	btfsc	status,2,c
  1413  007EFC  D782               	goto	l3854
  1414  007EFE                     u1800:
  1415                           
  1416                           ;main.c: 287:             PORTCbits.RC2 = 0;
  1417  007EFE  9482               	bcf	3970,2,c	;volatile
  1418                           
  1419                           ;main.c: 288:             Count_Time_Close = 0;
  1420  007F00  0E00               	movlw	0
  1421  007F02  6E1D               	movwf	_Count_Time_Close,c
  1422  007F04  0E00               	movlw	0
  1423  007F06  6E1E               	movwf	_Count_Time_Close+1,c
  1424  007F08  0E00               	movlw	0
  1425  007F0A  6E1F               	movwf	_Count_Time_Close+2,c
  1426  007F0C  0E00               	movlw	0
  1427  007F0E  6E20               	movwf	_Count_Time_Close+3,c
  1428                           
  1429                           ;main.c: 289:             Count_Peake_Current = 0;
  1430  007F10  0E00               	movlw	0
  1431  007F12  6E2C               	movwf	_Count_Peake_Current+1,c
  1432  007F14  0E00               	movlw	0
  1433  007F16  6E2B               	movwf	_Count_Peake_Current,c
  1434                           
  1435                           ;main.c: 290:             Inductive_State = PORTAbits.RA3;
  1436  007F18  A680               	btfss	3968,3,c	;volatile
  1437  007F1A  D002               	goto	u1810
  1438  007F1C  0E01               	movlw	1
  1439  007F1E  D001               	goto	u1816
  1440  007F20                     u1810:
  1441  007F20  0E00               	movlw	0
  1442  007F22                     u1816:
  1443  007F22  6E4E               	movwf	_Inductive_State,c
  1444                           
  1445                           ;main.c: 291:             Time_Auto_Close = eeprom_readx(0x03);
  1446  007F24  0E00               	movlw	0
  1447  007F26  6E38               	movwf	eeprom_readx@address+1,c
  1448  007F28  0E03               	movlw	3
  1449  007F2A  6E37               	movwf	eeprom_readx@address,c
  1450  007F2C  EC66  F030         	call	_eeprom_readx	;wreg free
  1451  007F30  6E43               	movwf	??_Open_Lock& (0+255),c
  1452  007F32  5043               	movf	??_Open_Lock,w,c
  1453  007F34  6E4F               	movwf	_Time_Auto_Close,c
  1454  007F36  6A50               	clrf	_Time_Auto_Close+1,c
  1455  007F38  6A51               	clrf	_Time_Auto_Close+2,c
  1456  007F3A  6A52               	clrf	_Time_Auto_Close+3,c
  1457                           
  1458                           ;main.c: 292:             Time_Auto_Close = Time_Auto_Close * 500000;
  1459  007F3C  C04F  F037         	movff	_Time_Auto_Close,___lmul@multiplier
  1460  007F40  C050  F038         	movff	_Time_Auto_Close+1,___lmul@multiplier+1
  1461  007F44  C051  F039         	movff	_Time_Auto_Close+2,___lmul@multiplier+2
  1462  007F48  C052  F03A         	movff	_Time_Auto_Close+3,___lmul@multiplier+3
  1463  007F4C  0E20               	movlw	32
  1464  007F4E  6E3B               	movwf	___lmul@multiplicand,c
  1465  007F50  0EA1               	movlw	161
  1466  007F52  6E3C               	movwf	___lmul@multiplicand+1,c
  1467  007F54  0E07               	movlw	7
  1468  007F56  6E3D               	movwf	___lmul@multiplicand+2,c
  1469  007F58  0E00               	movlw	0
  1470  007F5A  6E3E               	movwf	___lmul@multiplicand+3,c
  1471  007F5C  ECE2  F033         	call	___lmul	;wreg free
  1472  007F60  C037  F04F         	movff	?___lmul,_Time_Auto_Close
  1473  007F64  C038  F050         	movff	?___lmul+1,_Time_Auto_Close+1
  1474  007F68  C039  F051         	movff	?___lmul+2,_Time_Auto_Close+2
  1475  007F6C  C03A  F052         	movff	?___lmul+3,_Time_Auto_Close+3
  1476  007F70                     l3904:
  1477                           
  1478                           ;main.c: 294:                 Count_Auto_Close++;
  1479  007F70  0E01               	movlw	1
  1480  007F72  2619               	addwf	_Count_Auto_Close,f,c
  1481  007F74  0E00               	movlw	0
  1482  007F76  221A               	addwfc	_Count_Auto_Close+1,f,c
  1483  007F78  221B               	addwfc	_Count_Auto_Close+2,f,c
  1484  007F7A  221C               	addwfc	_Count_Auto_Close+3,f,c
  1485                           
  1486                           ;main.c: 295:                 Inductive_State = PORTAbits.RA3;
  1487  007F7C  A680               	btfss	3968,3,c	;volatile
  1488  007F7E  D002               	goto	u1820
  1489  007F80  0E01               	movlw	1
  1490  007F82  D001               	goto	u1826
  1491  007F84                     u1820:
  1492  007F84  0E00               	movlw	0
  1493  007F86                     u1826:
  1494  007F86  6E4E               	movwf	_Inductive_State,c
  1495                           
  1496                           ;main.c: 296:                 if(Count_Auto_Close == Time_Auto_Close) {
  1497  007F88  504F               	movf	_Time_Auto_Close,w,c
  1498  007F8A  1819               	xorwf	_Count_Auto_Close,w,c
  1499  007F8C  E12B               	bnz	l3918
  1500  007F8E  5050               	movf	_Time_Auto_Close+1,w,c
  1501  007F90  181A               	xorwf	_Count_Auto_Close+1,w,c
  1502  007F92  E128               	bnz	l3918
  1503  007F94  5051               	movf	_Time_Auto_Close+2,w,c
  1504  007F96  181B               	xorwf	_Count_Auto_Close+2,w,c
  1505  007F98  E125               	bnz	l3918
  1506  007F9A  5052               	movf	_Time_Auto_Close+3,w,c
  1507  007F9C  181C               	xorwf	_Count_Auto_Close+3,w,c
  1508  007F9E  A4D8               	btfss	status,2,c
  1509  007FA0  D021               	goto	l3918
  1510                           
  1511                           ;main.c: 297:                     End_Stop_Open_State = PORTAbits.RA4;
  1512  007FA2  A880               	btfss	3968,4,c	;volatile
  1513  007FA4  D002               	goto	u1840
  1514  007FA6  0E01               	movlw	1
  1515  007FA8  D001               	goto	u1846
  1516  007FAA                     u1840:
  1517  007FAA  0E00               	movlw	0
  1518  007FAC                     u1846:
  1519  007FAC  6E34               	movwf	_End_Stop_Open_State,c
  1520                           
  1521                           ;main.c: 298:                     if(End_Stop_Open_State == 0) {
  1522  007FAE  5034               	movf	_End_Stop_Open_State,w,c
  1523  007FB0  A4D8               	btfss	status,2,c
  1524  007FB2  D01B               	goto	u1860
  1525                           
  1526                           ;main.c: 299:                         PORTCbits.RC1 = 1;
  1527  007FB4  8282               	bsf	3970,1,c	;volatile
  1528                           
  1529                           ;main.c: 300:                         _delay((unsigned long)((500)*(20000000/4000.0)));
  1530  007FB6  0E0D               	movlw	13
  1531  007FB8  6E44               	movwf	(??_Open_Lock+1)& (0+255),c
  1532  007FBA  0EAF               	movlw	175
  1533  007FBC  6E43               	movwf	??_Open_Lock& (0+255),c
  1534  007FBE  0EB6               	movlw	182
  1535  007FC0                     u2147:
  1536  007FC0  2EE8               	decfsz	wreg,f,c
  1537  007FC2  D7FE               	bra	u2147
  1538  007FC4  2E43               	decfsz	??_Open_Lock& (0+255),f,c
  1539  007FC6  D7FC               	bra	u2147
  1540  007FC8  2E44               	decfsz	(??_Open_Lock+1)& (0+255),f,c
  1541  007FCA  D7FA               	bra	u2147
  1542  007FCC  D000               	nop2	
  1543                           
  1544                           ;main.c: 301:                         Closing();
  1545  007FCE  ECB7  F035         	call	_Closing	;wreg free
  1546                           
  1547                           ;main.c: 302:                         Count_Auto_Close = 0;
  1548  007FD2  0E00               	movlw	0
  1549  007FD4  6E19               	movwf	_Count_Auto_Close,c
  1550  007FD6  0E00               	movlw	0
  1551  007FD8  6E1A               	movwf	_Count_Auto_Close+1,c
  1552  007FDA  0E00               	movlw	0
  1553  007FDC  6E1B               	movwf	_Count_Auto_Close+2,c
  1554  007FDE  0E00               	movlw	0
  1555  007FE0  6E1C               	movwf	_Count_Auto_Close+3,c
  1556  007FE2  D003               	goto	u1860
  1557  007FE4                     l3918:
  1558                           
  1559                           ;main.c: 306:             } while(Inductive_State == 1);
  1560  007FE4  044E               	decf	_Inductive_State,w,c
  1561  007FE6  B4D8               	btfsc	status,2,c
  1562  007FE8  D7C3               	goto	l3904
  1563  007FEA                     u1860:
  1564                           
  1565                           ;main.c: 307:             Count_Auto_Close = 0;
  1566  007FEA  0E00               	movlw	0
  1567  007FEC  6E19               	movwf	_Count_Auto_Close,c
  1568  007FEE  0E00               	movlw	0
  1569  007FF0  6E1A               	movwf	_Count_Auto_Close+1,c
  1570  007FF2  0E00               	movlw	0
  1571  007FF4  6E1B               	movwf	_Count_Auto_Close+2,c
  1572  007FF6  0E00               	movlw	0
  1573  007FF8  6E1C               	movwf	_Count_Auto_Close+3,c
  1574  007FFA                     l3922:
  1575                           
  1576                           ;main.c: 310:     Last_Open_Contact_State = Open_Contact_State;
  1577  007FFA  C035  F055         	movff	_Open_Contact_State,_Last_Open_Contact_State
  1578  007FFE  0012               	return		;funcret
  1579  008000                     __end_of_Open_Lock:
  1580                           	opt callstack 0
  1581                           
  1582 ;; *************** function ___lmul *****************
  1583 ;; Defined at:
  1584 ;;		line 15 in file "C:\Program Files (x86)\Microchip\xc8\v2.05\pic\sources\c99\common\Umul32.c"
  1585 ;; Parameters:    Size  Location     Type
  1586 ;;  multiplier      4    0[COMRAM] unsigned long 
  1587 ;;  multiplicand    4    4[COMRAM] unsigned long 
  1588 ;; Auto vars:     Size  Location     Type
  1589 ;;  product         4    8[COMRAM] unsigned long 
  1590 ;; Return value:  Size  Location     Type
  1591 ;;                  4    0[COMRAM] unsigned long 
  1592 ;; Registers used:
  1593 ;;		wreg, status,2, status,0
  1594 ;; Tracked objects:
  1595 ;;		On entry : 0/0
  1596 ;;		On exit  : 0/0
  1597 ;;		Unchanged: 0/0
  1598 ;; Data sizes:     COMRAM   BANK0   BANK1   BANK2   BANK3   BANK4   BANK5   BANK6   BANK7
  1599 ;;      Params:         8       0       0       0       0       0       0       0       0
  1600 ;;      Locals:         4       0       0       0       0       0       0       0       0
  1601 ;;      Temps:          0       0       0       0       0       0       0       0       0
  1602 ;;      Totals:        12       0       0       0       0       0       0       0       0
  1603 ;;Total ram usage:       12 bytes
  1604 ;; Hardware stack levels used:    1
  1605 ;; This function calls:
  1606 ;;		Nothing
  1607 ;; This function is called by:
  1608 ;;		_Open_Lock
  1609 ;; This function uses a non-reentrant model
  1610 ;;
  1611                           
  1612                           	psect	text2
  1613  0067C4                     __ptext2:
  1614                           	opt callstack 0
  1615  0067C4                     ___lmul:
  1616                           	opt callstack 29
  1617                           
  1618                           ;incstack = 0
  1619  0067C4  0E00               	movlw	0
  1620  0067C6  6E3F               	movwf	___lmul@product,c
  1621  0067C8  0E00               	movlw	0
  1622  0067CA  6E40               	movwf	___lmul@product+1,c
  1623  0067CC  0E00               	movlw	0
  1624  0067CE  6E41               	movwf	___lmul@product+2,c
  1625  0067D0  0E00               	movlw	0
  1626  0067D2  6E42               	movwf	___lmul@product+3,c
  1627  0067D4                     l3610:
  1628  0067D4  A037               	btfss	___lmul@multiplier,0,c
  1629  0067D6  D008               	goto	l3614
  1630  0067D8  503B               	movf	___lmul@multiplicand,w,c
  1631  0067DA  263F               	addwf	___lmul@product,f,c
  1632  0067DC  503C               	movf	___lmul@multiplicand+1,w,c
  1633  0067DE  2240               	addwfc	___lmul@product+1,f,c
  1634  0067E0  503D               	movf	___lmul@multiplicand+2,w,c
  1635  0067E2  2241               	addwfc	___lmul@product+2,f,c
  1636  0067E4  503E               	movf	___lmul@multiplicand+3,w,c
  1637  0067E6  2242               	addwfc	___lmul@product+3,f,c
  1638  0067E8                     l3614:
  1639  0067E8  90D8               	bcf	status,0,c
  1640  0067EA  363B               	rlcf	___lmul@multiplicand,f,c
  1641  0067EC  363C               	rlcf	___lmul@multiplicand+1,f,c
  1642  0067EE  363D               	rlcf	___lmul@multiplicand+2,f,c
  1643  0067F0  363E               	rlcf	___lmul@multiplicand+3,f,c
  1644  0067F2  90D8               	bcf	status,0,c
  1645  0067F4  323A               	rrcf	___lmul@multiplier+3,f,c
  1646  0067F6  3239               	rrcf	___lmul@multiplier+2,f,c
  1647  0067F8  3238               	rrcf	___lmul@multiplier+1,f,c
  1648  0067FA  3237               	rrcf	___lmul@multiplier,f,c
  1649  0067FC  5037               	movf	___lmul@multiplier,w,c
  1650  0067FE  1038               	iorwf	___lmul@multiplier+1,w,c
  1651  006800  1039               	iorwf	___lmul@multiplier+2,w,c
  1652  006802  103A               	iorwf	___lmul@multiplier+3,w,c
  1653  006804  A4D8               	btfss	status,2,c
  1654  006806  D7E6               	goto	l3610
  1655  006808  C03F  F037         	movff	___lmul@product,?___lmul
  1656  00680C  C040  F038         	movff	___lmul@product+1,?___lmul+1
  1657  006810  C041  F039         	movff	___lmul@product+2,?___lmul+2
  1658  006814  C042  F03A         	movff	___lmul@product+3,?___lmul+3
  1659  006818  0012               	return		;funcret
  1660  00681A                     __end_of___lmul:
  1661                           	opt callstack 0
  1662                           
  1663 ;; *************** function _Menu_In *****************
  1664 ;; Defined at:
  1665 ;;		line 404 in file "main.c"
  1666 ;; Parameters:    Size  Location     Type
  1667 ;;		None
  1668 ;; Auto vars:     Size  Location     Type
  1669 ;;		None
  1670 ;; Return value:  Size  Location     Type
  1671 ;;                  1    wreg      void 
  1672 ;; Registers used:
  1673 ;;		wreg, status,2, status,0, cstack
  1674 ;; Tracked objects:
  1675 ;;		On entry : 0/0
  1676 ;;		On exit  : 0/0
  1677 ;;		Unchanged: 0/0
  1678 ;; Data sizes:     COMRAM   BANK0   BANK1   BANK2   BANK3   BANK4   BANK5   BANK6   BANK7
  1679 ;;      Params:         0       0       0       0       0       0       0       0       0
  1680 ;;      Locals:         0       0       0       0       0       0       0       0       0
  1681 ;;      Temps:          2       0       0       0       0       0       0       0       0
  1682 ;;      Totals:         2       0       0       0       0       0       0       0       0
  1683 ;;Total ram usage:        2 bytes
  1684 ;; Hardware stack levels used:    1
  1685 ;; Hardware stack levels required when called:    4
  1686 ;; This function calls:
  1687 ;;		_Menu
  1688 ;; This function is called by:
  1689 ;;		_main
  1690 ;; This function uses a non-reentrant model
  1691 ;;
  1692                           
  1693                           	psect	text3
  1694  0069A4                     __ptext3:
  1695                           	opt callstack 0
  1696  0069A4                     _Menu_In:
  1697                           	opt callstack 26
  1698                           
  1699                           ;main.c: 405:     Button_Menu_Up_State = PORTAbits.RA1;
  1700                           
  1701                           ;incstack = 0
  1702  0069A4  A280               	btfss	3968,1,c	;volatile
  1703  0069A6  D002               	goto	u1480
  1704  0069A8  0E01               	movlw	1
  1705  0069AA  D001               	goto	u1486
  1706  0069AC                     u1480:
  1707  0069AC  0E00               	movlw	0
  1708  0069AE                     u1486:
  1709  0069AE  6E33               	movwf	_Button_Menu_Up_State,c
  1710                           
  1711                           ;main.c: 406:     _delay((unsigned long)((1)*(20000000/4000.0)));
  1712  0069B0  0E07               	movlw	7
  1713  0069B2  6E3E               	movwf	??_Menu_In& (0+255),c
  1714  0069B4  0E7D               	movlw	125
  1715  0069B6                     u2157:
  1716  0069B6  2EE8               	decfsz	wreg,f,c
  1717  0069B8  D7FE               	bra	u2157
  1718  0069BA  2E3E               	decfsz	??_Menu_In& (0+255),f,c
  1719  0069BC  D7FC               	bra	u2157
  1720  0069BE  F000               	nop	
  1721                           
  1722                           ;main.c: 407:     if (Button_Menu_Up_State == 0 && Last_Button_Menu_Up_State == 1) {
  1723  0069C0  5033               	movf	_Button_Menu_Up_State,w,c
  1724  0069C2  A4D8               	btfss	status,2,c
  1725  0069C4  D022               	goto	l3638
  1726  0069C6  0454               	decf	_Last_Button_Menu_Up_State,w,c
  1727  0069C8  A4D8               	btfss	status,2,c
  1728  0069CA  D01F               	goto	l3638
  1729                           
  1730                           ;main.c: 408:         Toggle_Up = 1;
  1731  0069CC  0E01               	movlw	1
  1732  0069CE  6E31               	movwf	_Toggle_Up,c
  1733                           
  1734                           ;main.c: 409:         if (Toggle_Up == 1 && Toggle_Down == 1) {
  1735  0069D0  0431               	decf	_Toggle_Up,w,c
  1736  0069D2  A4D8               	btfss	status,2,c
  1737  0069D4  D01A               	goto	l3638
  1738  0069D6  0430               	decf	_Toggle_Down,w,c
  1739  0069D8  A4D8               	btfss	status,2,c
  1740  0069DA  D017               	goto	l3638
  1741                           
  1742                           ;main.c: 410:             Flag_Menu = 1;
  1743  0069DC  0E01               	movlw	1
  1744  0069DE  6E2F               	movwf	_Flag_Menu,c
  1745                           
  1746                           ;main.c: 411:             Toggle_Up = 0;
  1747  0069E0  0E00               	movlw	0
  1748  0069E2  6E31               	movwf	_Toggle_Up,c
  1749                           
  1750                           ;main.c: 412:             Toggle_Down = 0;
  1751  0069E4  0E00               	movlw	0
  1752  0069E6  6E30               	movwf	_Toggle_Down,c
  1753                           
  1754                           ;main.c: 413:             Count_Push_Button = 0;
  1755  0069E8  0E00               	movlw	0
  1756  0069EA  6E28               	movwf	_Count_Push_Button+1,c
  1757  0069EC  0E00               	movlw	0
  1758  0069EE  6E27               	movwf	_Count_Push_Button,c
  1759                           
  1760                           ;main.c: 414:             _delay((unsigned long)((300)*(20000000/4000.0)));
  1761  0069F0  0E08               	movlw	8
  1762  0069F2  6E3F               	movwf	(??_Menu_In+1)& (0+255),c
  1763  0069F4  0E9D               	movlw	157
  1764  0069F6  6E3E               	movwf	??_Menu_In& (0+255),c
  1765  0069F8  0E06               	movlw	6
  1766  0069FA                     u2167:
  1767  0069FA  2EE8               	decfsz	wreg,f,c
  1768  0069FC  D7FE               	bra	u2167
  1769  0069FE  2E3E               	decfsz	??_Menu_In& (0+255),f,c
  1770  006A00  D7FC               	bra	u2167
  1771  006A02  2E3F               	decfsz	(??_Menu_In+1)& (0+255),f,c
  1772  006A04  D7FA               	bra	u2167
  1773                           
  1774                           ;main.c: 415:             Menu();
  1775  006A06  EC3E  F036         	call	_Menu	;wreg free
  1776  006A0A                     l3638:
  1777                           
  1778                           ;main.c: 418:     Last_Button_Menu_Up_State = Button_Menu_Up_State;
  1779  006A0A  C033  F054         	movff	_Button_Menu_Up_State,_Last_Button_Menu_Up_State
  1780                           
  1781                           ;main.c: 420:     Button_Menu_Down_State = PORTAbits.RA2;
  1782  006A0E  A480               	btfss	3968,2,c	;volatile
  1783  006A10  D002               	goto	u1530
  1784  006A12  0E01               	movlw	1
  1785  006A14  D001               	goto	u1536
  1786  006A16                     u1530:
  1787  006A16  0E00               	movlw	0
  1788  006A18                     u1536:
  1789  006A18  6E32               	movwf	_Button_Menu_Down_State,c
  1790                           
  1791                           ;main.c: 421:     _delay((unsigned long)((1)*(20000000/4000.0)));
  1792  006A1A  0E07               	movlw	7
  1793  006A1C  6E3E               	movwf	??_Menu_In& (0+255),c
  1794  006A1E  0E7D               	movlw	125
  1795  006A20                     u2177:
  1796  006A20  2EE8               	decfsz	wreg,f,c
  1797  006A22  D7FE               	bra	u2177
  1798  006A24  2E3E               	decfsz	??_Menu_In& (0+255),f,c
  1799  006A26  D7FC               	bra	u2177
  1800  006A28  F000               	nop	
  1801                           
  1802                           ;main.c: 422:     if (Button_Menu_Down_State == 0 && Last_Button_Menu_Down_State == 1) {
  1803  006A2A  5032               	movf	_Button_Menu_Down_State,w,c
  1804  006A2C  A4D8               	btfss	status,2,c
  1805  006A2E  D022               	goto	l3660
  1806  006A30  0453               	decf	_Last_Button_Menu_Down_State,w,c
  1807  006A32  A4D8               	btfss	status,2,c
  1808  006A34  D01F               	goto	l3660
  1809                           
  1810                           ;main.c: 423:         Toggle_Down = 1;
  1811  006A36  0E01               	movlw	1
  1812  006A38  6E30               	movwf	_Toggle_Down,c
  1813                           
  1814                           ;main.c: 424:         if (Toggle_Down == 1 && Toggle_Up == 1) {
  1815  006A3A  0430               	decf	_Toggle_Down,w,c
  1816  006A3C  A4D8               	btfss	status,2,c
  1817  006A3E  D01A               	goto	l3660
  1818  006A40  0431               	decf	_Toggle_Up,w,c
  1819  006A42  A4D8               	btfss	status,2,c
  1820  006A44  D017               	goto	l3660
  1821                           
  1822                           ;main.c: 425:             Flag_Menu = 1;
  1823  006A46  0E01               	movlw	1
  1824  006A48  6E2F               	movwf	_Flag_Menu,c
  1825                           
  1826                           ;main.c: 426:             Toggle_Down = 0;
  1827  006A4A  0E00               	movlw	0
  1828  006A4C  6E30               	movwf	_Toggle_Down,c
  1829                           
  1830                           ;main.c: 427:             Toggle_Up = 0;
  1831  006A4E  0E00               	movlw	0
  1832  006A50  6E31               	movwf	_Toggle_Up,c
  1833                           
  1834                           ;main.c: 428:             Count_Push_Button = 0;
  1835  006A52  0E00               	movlw	0
  1836  006A54  6E28               	movwf	_Count_Push_Button+1,c
  1837  006A56  0E00               	movlw	0
  1838  006A58  6E27               	movwf	_Count_Push_Button,c
  1839                           
  1840                           ;main.c: 429:             _delay((unsigned long)((300)*(20000000/4000.0)));
  1841  006A5A  0E08               	movlw	8
  1842  006A5C  6E3F               	movwf	(??_Menu_In+1)& (0+255),c
  1843  006A5E  0E9D               	movlw	157
  1844  006A60  6E3E               	movwf	??_Menu_In& (0+255),c
  1845  006A62  0E06               	movlw	6
  1846  006A64                     u2187:
  1847  006A64  2EE8               	decfsz	wreg,f,c
  1848  006A66  D7FE               	bra	u2187
  1849  006A68  2E3E               	decfsz	??_Menu_In& (0+255),f,c
  1850  006A6A  D7FC               	bra	u2187
  1851  006A6C  2E3F               	decfsz	(??_Menu_In+1)& (0+255),f,c
  1852  006A6E  D7FA               	bra	u2187
  1853                           
  1854                           ;main.c: 430:             Menu();
  1855  006A70  EC3E  F036         	call	_Menu	;wreg free
  1856  006A74                     l3660:
  1857                           
  1858                           ;main.c: 433:     Last_Button_Menu_Down_State = Button_Menu_Down_State;
  1859  006A74  C032  F053         	movff	_Button_Menu_Down_State,_Last_Button_Menu_Down_State
  1860  006A78  0012               	return		;funcret
  1861  006A7A                     __end_of_Menu_In:
  1862                           	opt callstack 0
  1863                           
  1864 ;; *************** function _Menu *****************
  1865 ;; Defined at:
  1866 ;;		line 436 in file "main.c"
  1867 ;; Parameters:    Size  Location     Type
  1868 ;;		None
  1869 ;; Auto vars:     Size  Location     Type
  1870 ;;		None
  1871 ;; Return value:  Size  Location     Type
  1872 ;;                  1    wreg      void 
  1873 ;; Registers used:
  1874 ;;		wreg, status,2, status,0, cstack
  1875 ;; Tracked objects:
  1876 ;;		On entry : 0/0
  1877 ;;		On exit  : 0/0
  1878 ;;		Unchanged: 0/0
  1879 ;; Data sizes:     COMRAM   BANK0   BANK1   BANK2   BANK3   BANK4   BANK5   BANK6   BANK7
  1880 ;;      Params:         0       0       0       0       0       0       0       0       0
  1881 ;;      Locals:         0       0       0       0       0       0       0       0       0
  1882 ;;      Temps:          2       0       0       0       0       0       0       0       0
  1883 ;;      Totals:         2       0       0       0       0       0       0       0       0
  1884 ;;Total ram usage:        2 bytes
  1885 ;; Hardware stack levels used:    1
  1886 ;; Hardware stack levels required when called:    3
  1887 ;; This function calls:
  1888 ;;		_Draw_P1
  1889 ;;		_Draw_P2
  1890 ;;		_Draw_P3
  1891 ;;		_Draw_P4
  1892 ;;		_Exit_Time_Menu
  1893 ;;		_Menu_P1
  1894 ;;		_Menu_P2
  1895 ;;		_Menu_P3
  1896 ;;		_Menu_P4
  1897 ;; This function is called by:
  1898 ;;		_Menu_In
  1899 ;; This function uses a non-reentrant model
  1900 ;;
  1901                           
  1902                           	psect	text4
  1903  006C7C                     __ptext4:
  1904                           	opt callstack 0
  1905  006C7C                     _Menu:
  1906                           	opt callstack 26
  1907                           
  1908                           ;main.c: 438:         switch (Count_Push_Button)
  1909                           
  1910                           ;incstack = 0
  1911                           ;main.c: 437:     do {
  1912  006C7C  D011               	goto	l3538
  1913  006C7E                     l3526:
  1914  006C7E  ECD2  F031         	call	_Draw_P1	;wreg free
  1915  006C82  D024               	goto	l3540
  1916  006C84                     l3528:
  1917  006C84  ECEB  F031         	call	_Draw_P2	;wreg free
  1918  006C88  D021               	goto	l3540
  1919  006C8A                     l3530:
  1920  006C8A  EC04  F032         	call	_Draw_P3	;wreg free
  1921  006C8E  D01E               	goto	l3540
  1922  006C90                     l3532:
  1923  006C90  EC1D  F032         	call	_Draw_P4	;wreg free
  1924  006C94  D01B               	goto	l3540
  1925  006C96                     l3534:
  1926  006C96  0E00               	movlw	0
  1927  006C98  6E28               	movwf	_Count_Push_Button+1,c
  1928  006C9A  0E00               	movlw	0
  1929  006C9C  6E27               	movwf	_Count_Push_Button,c
  1930  006C9E  D016               	goto	l3540
  1931  006CA0                     l3538:
  1932  006CA0  C027  F03C         	movff	_Count_Push_Button,??_Menu
  1933  006CA4  C028  F03D         	movff	_Count_Push_Button+1,??_Menu+1
  1934                           
  1935                           ; Switch on 2 bytes has been partitioned into a top level switch of size 1, and 1 sub-sw
      +                          itches
  1936                           ; Switch size 1, requested type "simple"
  1937                           ; Number of cases is 1, Range of values is 0 to 0
  1938                           ; switch strategies available:
  1939                           ; Name         Instructions Cycles
  1940                           ; simple_byte            4     3 (average)
  1941                           ;	Chosen strategy is simple_byte
  1942  006CA8  503D               	movf	??_Menu+1,w,c
  1943  006CAA  0A00               	xorlw	0	; case 0
  1944  006CAC  A4D8               	btfss	status,2,c
  1945  006CAE  D7F3               	goto	l3534
  1946                           
  1947                           ; Switch size 1, requested type "simple"
  1948                           ; Number of cases is 4, Range of values is 0 to 3
  1949                           ; switch strategies available:
  1950                           ; Name         Instructions Cycles
  1951                           ; simple_byte           13     7 (average)
  1952                           ;	Chosen strategy is simple_byte
  1953  006CB0  503C               	movf	??_Menu,w,c
  1954  006CB2  0A00               	xorlw	0	; case 0
  1955  006CB4  B4D8               	btfsc	status,2,c
  1956  006CB6  D7E3               	goto	l3526
  1957  006CB8  0A01               	xorlw	1	; case 1
  1958  006CBA  B4D8               	btfsc	status,2,c
  1959  006CBC  D7E3               	goto	l3528
  1960  006CBE  0A03               	xorlw	3	; case 2
  1961  006CC0  B4D8               	btfsc	status,2,c
  1962  006CC2  D7E3               	goto	l3530
  1963  006CC4  0A01               	xorlw	1	; case 3
  1964  006CC6  B4D8               	btfsc	status,2,c
  1965  006CC8  D7E3               	goto	l3532
  1966  006CCA  D7E5               	goto	l3534
  1967  006CCC                     l3540:
  1968                           
  1969                           ;main.c: 447:         Button_Menu_Down_State = PORTAbits.RA2;
  1970  006CCC  A480               	btfss	3968,2,c	;volatile
  1971  006CCE  D002               	goto	u1390
  1972  006CD0  0E01               	movlw	1
  1973  006CD2  D001               	goto	u1396
  1974  006CD4                     u1390:
  1975  006CD4  0E00               	movlw	0
  1976  006CD6                     u1396:
  1977  006CD6  6E32               	movwf	_Button_Menu_Down_State,c
  1978                           
  1979                           ;main.c: 448:         if (Button_Menu_Down_State == 0 && Last_Button_Menu_Down_State == 
      +                          1) {
  1980  006CD8  5032               	movf	_Button_Menu_Down_State,w,c
  1981  006CDA  A4D8               	btfss	status,2,c
  1982  006CDC  D00D               	goto	l3548
  1983  006CDE  0453               	decf	_Last_Button_Menu_Down_State,w,c
  1984  006CE0  A4D8               	btfss	status,2,c
  1985  006CE2  D00A               	goto	l3548
  1986                           
  1987                           ;main.c: 449:             Count_Push_Button++;
  1988  006CE4  4A27               	infsnz	_Count_Push_Button,f,c
  1989  006CE6  2A28               	incf	_Count_Push_Button+1,f,c
  1990                           
  1991                           ;main.c: 450:             Count_Exit_Menu = 0;
  1992  006CE8  0E00               	movlw	0
  1993  006CEA  6E11               	movwf	_Count_Exit_Menu,c
  1994  006CEC  0E00               	movlw	0
  1995  006CEE  6E12               	movwf	_Count_Exit_Menu+1,c
  1996  006CF0  0E00               	movlw	0
  1997  006CF2  6E13               	movwf	_Count_Exit_Menu+2,c
  1998  006CF4  0E00               	movlw	0
  1999  006CF6  6E14               	movwf	_Count_Exit_Menu+3,c
  2000  006CF8                     l3548:
  2001                           
  2002                           ;main.c: 452:         Last_Button_Menu_Down_State = Button_Menu_Down_State;
  2003  006CF8  C032  F053         	movff	_Button_Menu_Down_State,_Last_Button_Menu_Down_State
  2004                           
  2005                           ;main.c: 455:         Button_Menu_Up_State = PORTAbits.RA1;
  2006  006CFC  A280               	btfss	3968,1,c	;volatile
  2007  006CFE  D002               	goto	u1420
  2008  006D00  0E01               	movlw	1
  2009  006D02  D001               	goto	u1426
  2010  006D04                     u1420:
  2011  006D04  0E00               	movlw	0
  2012  006D06                     u1426:
  2013  006D06  6E33               	movwf	_Button_Menu_Up_State,c
  2014                           
  2015                           ;main.c: 456:         if (Button_Menu_Up_State == 0 && Last_Button_Menu_Up_State == 1) {
  2016  006D08  5033               	movf	_Button_Menu_Up_State,w,c
  2017  006D0A  A4D8               	btfss	status,2,c
  2018  006D0C  D07A               	goto	l303
  2019  006D0E  0454               	decf	_Last_Button_Menu_Up_State,w,c
  2020  006D10  A4D8               	btfss	status,2,c
  2021  006D12  D077               	goto	l303
  2022                           
  2023                           ;main.c: 457:             Count_Exit_Menu = 0;
  2024  006D14  0E00               	movlw	0
  2025  006D16  6E11               	movwf	_Count_Exit_Menu,c
  2026  006D18  0E00               	movlw	0
  2027  006D1A  6E12               	movwf	_Count_Exit_Menu+1,c
  2028  006D1C  0E00               	movlw	0
  2029  006D1E  6E13               	movwf	_Count_Exit_Menu+2,c
  2030  006D20  0E00               	movlw	0
  2031  006D22  6E14               	movwf	_Count_Exit_Menu+3,c
  2032                           
  2033                           ;main.c: 458:             switch (Count_Push_Button)
  2034  006D24  D058               	goto	l3588
  2035  006D26                     l3558:
  2036                           
  2037                           ;main.c: 461:                 Count_Push_Button = 0;
  2038  006D26  0E00               	movlw	0
  2039  006D28  6E28               	movwf	_Count_Push_Button+1,c
  2040  006D2A  0E00               	movlw	0
  2041  006D2C  6E27               	movwf	_Count_Push_Button,c
  2042                           
  2043                           ;main.c: 462:                 _delay((unsigned long)((300)*(20000000/4000.0)));
  2044  006D2E  0E08               	movlw	8
  2045  006D30  6E3D               	movwf	(??_Menu+1)& (0+255),c
  2046  006D32  0E9D               	movlw	157
  2047  006D34  6E3C               	movwf	??_Menu& (0+255),c
  2048  006D36  0E06               	movlw	6
  2049  006D38                     u2197:
  2050  006D38  2EE8               	decfsz	wreg,f,c
  2051  006D3A  D7FE               	bra	u2197
  2052  006D3C  2E3C               	decfsz	??_Menu& (0+255),f,c
  2053  006D3E  D7FC               	bra	u2197
  2054  006D40  2E3D               	decfsz	(??_Menu+1)& (0+255),f,c
  2055  006D42  D7FA               	bra	u2197
  2056                           
  2057                           ;main.c: 463:                 Menu_P1();
  2058  006D44  EC3D  F035         	call	_Menu_P1	;wreg free
  2059                           
  2060                           ;main.c: 464:                 break;
  2061  006D48  D05C               	goto	l303
  2062  006D4A                     l3564:
  2063                           
  2064                           ;main.c: 466:                 Count_Push_Button = 0;
  2065  006D4A  0E00               	movlw	0
  2066  006D4C  6E28               	movwf	_Count_Push_Button+1,c
  2067  006D4E  0E00               	movlw	0
  2068  006D50  6E27               	movwf	_Count_Push_Button,c
  2069                           
  2070                           ;main.c: 467:                 _delay((unsigned long)((300)*(20000000/4000.0)));
  2071  006D52  0E08               	movlw	8
  2072  006D54  6E3D               	movwf	(??_Menu+1)& (0+255),c
  2073  006D56  0E9D               	movlw	157
  2074  006D58  6E3C               	movwf	??_Menu& (0+255),c
  2075  006D5A  0E06               	movlw	6
  2076  006D5C                     u2207:
  2077  006D5C  2EE8               	decfsz	wreg,f,c
  2078  006D5E  D7FE               	bra	u2207
  2079  006D60  2E3C               	decfsz	??_Menu& (0+255),f,c
  2080  006D62  D7FC               	bra	u2207
  2081  006D64  2E3D               	decfsz	(??_Menu+1)& (0+255),f,c
  2082  006D66  D7FA               	bra	u2207
  2083                           
  2084                           ;main.c: 468:                 Menu_P2();
  2085  006D68  EC6D  F038         	call	_Menu_P2	;wreg free
  2086                           
  2087                           ;main.c: 469:                 break;
  2088  006D6C  D04A               	goto	l303
  2089  006D6E                     l3570:
  2090                           
  2091                           ;main.c: 471:                 Count_Push_Button = 1;
  2092  006D6E  0E00               	movlw	0
  2093  006D70  6E28               	movwf	_Count_Push_Button+1,c
  2094  006D72  0E01               	movlw	1
  2095  006D74  6E27               	movwf	_Count_Push_Button,c
  2096                           
  2097                           ;main.c: 472:                 _delay((unsigned long)((300)*(20000000/4000.0)));
  2098  006D76  0E08               	movlw	8
  2099  006D78  6E3D               	movwf	(??_Menu+1)& (0+255),c
  2100  006D7A  0E9D               	movlw	157
  2101  006D7C  6E3C               	movwf	??_Menu& (0+255),c
  2102  006D7E  0E06               	movlw	6
  2103  006D80                     u2217:
  2104  006D80  2EE8               	decfsz	wreg,f,c
  2105  006D82  D7FE               	bra	u2217
  2106  006D84  2E3C               	decfsz	??_Menu& (0+255),f,c
  2107  006D86  D7FC               	bra	u2217
  2108  006D88  2E3D               	decfsz	(??_Menu+1)& (0+255),f,c
  2109  006D8A  D7FA               	bra	u2217
  2110                           
  2111                           ;main.c: 473:                 Menu_P3();
  2112  006D8C  EC09  F037         	call	_Menu_P3	;wreg free
  2113                           
  2114                           ;main.c: 474:                 break;
  2115  006D90  D038               	goto	l303
  2116  006D92                     l3576:
  2117                           
  2118                           ;main.c: 476:                 Count_Push_Button = 0;
  2119  006D92  0E00               	movlw	0
  2120  006D94  6E28               	movwf	_Count_Push_Button+1,c
  2121  006D96  0E00               	movlw	0
  2122  006D98  6E27               	movwf	_Count_Push_Button,c
  2123                           
  2124                           ;main.c: 477:                 _delay((unsigned long)((300)*(20000000/4000.0)));
  2125  006D9A  0E08               	movlw	8
  2126  006D9C  6E3D               	movwf	(??_Menu+1)& (0+255),c
  2127  006D9E  0E9D               	movlw	157
  2128  006DA0  6E3C               	movwf	??_Menu& (0+255),c
  2129  006DA2  0E06               	movlw	6
  2130  006DA4                     u2227:
  2131  006DA4  2EE8               	decfsz	wreg,f,c
  2132  006DA6  D7FE               	bra	u2227
  2133  006DA8  2E3C               	decfsz	??_Menu& (0+255),f,c
  2134  006DAA  D7FC               	bra	u2227
  2135  006DAC  2E3D               	decfsz	(??_Menu+1)& (0+255),f,c
  2136  006DAE  D7FA               	bra	u2227
  2137                           
  2138                           ;main.c: 478:                 Menu_P4();
  2139  006DB0  ECE3  F039         	call	_Menu_P4	;wreg free
  2140                           
  2141                           ;main.c: 479:                 break;
  2142  006DB4  D026               	goto	l303
  2143  006DB6                     l3582:
  2144                           
  2145                           ;main.c: 481:                 Count_Push_Button = 0;
  2146  006DB6  0E00               	movlw	0
  2147  006DB8  6E28               	movwf	_Count_Push_Button+1,c
  2148  006DBA  0E00               	movlw	0
  2149  006DBC  6E27               	movwf	_Count_Push_Button,c
  2150                           
  2151                           ;main.c: 482:                 _delay((unsigned long)((300)*(20000000/4000.0)));
  2152  006DBE  0E08               	movlw	8
  2153  006DC0  6E3D               	movwf	(??_Menu+1)& (0+255),c
  2154  006DC2  0E9D               	movlw	157
  2155  006DC4  6E3C               	movwf	??_Menu& (0+255),c
  2156  006DC6  0E06               	movlw	6
  2157  006DC8                     u2237:
  2158  006DC8  2EE8               	decfsz	wreg,f,c
  2159  006DCA  D7FE               	bra	u2237
  2160  006DCC  2E3C               	decfsz	??_Menu& (0+255),f,c
  2161  006DCE  D7FC               	bra	u2237
  2162  006DD0  2E3D               	decfsz	(??_Menu+1)& (0+255),f,c
  2163  006DD2  D7FA               	bra	u2237
  2164                           
  2165                           ;main.c: 483:                 break;
  2166  006DD4  D016               	goto	l303
  2167  006DD6                     l3588:
  2168  006DD6  C027  F03C         	movff	_Count_Push_Button,??_Menu
  2169  006DDA  C028  F03D         	movff	_Count_Push_Button+1,??_Menu+1
  2170                           
  2171                           ; Switch on 2 bytes has been partitioned into a top level switch of size 1, and 1 sub-sw
      +                          itches
  2172                           ; Switch size 1, requested type "simple"
  2173                           ; Number of cases is 1, Range of values is 0 to 0
  2174                           ; switch strategies available:
  2175                           ; Name         Instructions Cycles
  2176                           ; simple_byte            4     3 (average)
  2177                           ;	Chosen strategy is simple_byte
  2178  006DDE  503D               	movf	??_Menu+1,w,c
  2179  006DE0  0A00               	xorlw	0	; case 0
  2180  006DE2  A4D8               	btfss	status,2,c
  2181  006DE4  D7E8               	goto	l3582
  2182                           
  2183                           ; Switch size 1, requested type "simple"
  2184                           ; Number of cases is 4, Range of values is 0 to 3
  2185                           ; switch strategies available:
  2186                           ; Name         Instructions Cycles
  2187                           ; simple_byte           13     7 (average)
  2188                           ;	Chosen strategy is simple_byte
  2189  006DE6  503C               	movf	??_Menu,w,c
  2190  006DE8  0A00               	xorlw	0	; case 0
  2191  006DEA  B4D8               	btfsc	status,2,c
  2192  006DEC  D79C               	goto	l3558
  2193  006DEE  0A01               	xorlw	1	; case 1
  2194  006DF0  B4D8               	btfsc	status,2,c
  2195  006DF2  D7AB               	goto	l3564
  2196  006DF4  0A03               	xorlw	3	; case 2
  2197  006DF6  B4D8               	btfsc	status,2,c
  2198  006DF8  D7BA               	goto	l3570
  2199  006DFA  0A01               	xorlw	1	; case 3
  2200  006DFC  B4D8               	btfsc	status,2,c
  2201  006DFE  D7C9               	goto	l3576
  2202  006E00  D7DA               	goto	l3582
  2203  006E02                     l303:
  2204                           
  2205                           ;main.c: 486:         Last_Button_Menu_Up_State = Button_Menu_Up_State;
  2206  006E02  C033  F054         	movff	_Button_Menu_Up_State,_Last_Button_Menu_Up_State
  2207                           
  2208                           ;main.c: 487:         Exit_Time_Menu();
  2209  006E06  ECAD  F033         	call	_Exit_Time_Menu	;wreg free
  2210                           
  2211                           ;main.c: 488:     } while(Flag_Menu == 1);
  2212  006E0A  042F               	decf	_Flag_Menu,w,c
  2213  006E0C  A4D8               	btfss	status,2,c
  2214  006E0E  0012               	return	
  2215  006E10  D747               	goto	l3538
  2216  006E12                     __end_of_Menu:
  2217                           	opt callstack 0
  2218                           
  2219 ;; *************** function _Menu_P4 *****************
  2220 ;; Defined at:
  2221 ;;		line 651 in file "main.c"
  2222 ;; Parameters:    Size  Location     Type
  2223 ;;		None
  2224 ;; Auto vars:     Size  Location     Type
  2225 ;;		None
  2226 ;; Return value:  Size  Location     Type
  2227 ;;                  1    wreg      void 
  2228 ;; Registers used:
  2229 ;;		wreg, status,2, status,0, cstack
  2230 ;; Tracked objects:
  2231 ;;		On entry : 0/0
  2232 ;;		On exit  : 0/0
  2233 ;;		Unchanged: 0/0
  2234 ;; Data sizes:     COMRAM   BANK0   BANK1   BANK2   BANK3   BANK4   BANK5   BANK6   BANK7
  2235 ;;      Params:         0       0       0       0       0       0       0       0       0
  2236 ;;      Locals:         0       0       0       0       0       0       0       0       0
  2237 ;;      Temps:          2       0       0       0       0       0       0       0       0
  2238 ;;      Totals:         2       0       0       0       0       0       0       0       0
  2239 ;;Total ram usage:        2 bytes
  2240 ;; Hardware stack levels used:    1
  2241 ;; Hardware stack levels required when called:    2
  2242 ;; This function calls:
  2243 ;;		_Draw_0
  2244 ;;		_Draw_1
  2245 ;;		_Draw_10
  2246 ;;		_Draw_11
  2247 ;;		_Draw_12
  2248 ;;		_Draw_13
  2249 ;;		_Draw_14
  2250 ;;		_Draw_15
  2251 ;;		_Draw_2
  2252 ;;		_Draw_3
  2253 ;;		_Draw_4
  2254 ;;		_Draw_5
  2255 ;;		_Draw_6
  2256 ;;		_Draw_7
  2257 ;;		_Draw_8
  2258 ;;		_Draw_9
  2259 ;;		_Exit_Time_Menu
  2260 ;;		_Recording
  2261 ;;		_eeprom_writex
  2262 ;; This function is called by:
  2263 ;;		_Menu
  2264 ;; This function uses a non-reentrant model
  2265 ;;
  2266                           
  2267                           	psect	text5
  2268  0073C6                     __ptext5:
  2269                           	opt callstack 0
  2270  0073C6                     _Menu_P4:
  2271                           	opt callstack 26
  2272                           
  2273                           ;main.c: 653:         switch (Count_Push_Button)
  2274                           
  2275                           ;incstack = 0
  2276                           ;main.c: 652:     do {
  2277  0073C6  D035               	goto	l3366
  2278  0073C8                     l3330:
  2279  0073C8  ECCA  F030         	call	_Draw_0	;wreg free
  2280  0073CC  D06C               	goto	l3368
  2281  0073CE                     l3332:
  2282  0073CE  ECE2  F030         	call	_Draw_1	;wreg free
  2283  0073D2  D069               	goto	l3368
  2284  0073D4                     l3334:
  2285  0073D4  EC12  F031         	call	_Draw_2	;wreg free
  2286  0073D8  D066               	goto	l3368
  2287  0073DA                     l3336:
  2288  0073DA  EC2A  F031         	call	_Draw_3	;wreg free
  2289  0073DE  D063               	goto	l3368
  2290  0073E0                     l3338:
  2291  0073E0  EC42  F031         	call	_Draw_4	;wreg free
  2292  0073E4  D060               	goto	l3368
  2293  0073E6                     l3340:
  2294  0073E6  EC5A  F031         	call	_Draw_5	;wreg free
  2295  0073EA  D05D               	goto	l3368
  2296  0073EC                     l3342:
  2297  0073EC  EC72  F031         	call	_Draw_6	;wreg free
  2298  0073F0  D05A               	goto	l3368
  2299  0073F2                     l3344:
  2300  0073F2  EC8A  F031         	call	_Draw_7	;wreg free
  2301  0073F6  D057               	goto	l3368
  2302  0073F8                     l3346:
  2303  0073F8  ECA2  F031         	call	_Draw_8	;wreg free
  2304  0073FC  D054               	goto	l3368
  2305  0073FE                     l3348:
  2306  0073FE  ECBA  F031         	call	_Draw_9	;wreg free
  2307  007402  D051               	goto	l3368
  2308  007404                     l3350:
  2309  007404  EC4F  F032         	call	_Draw_10	;wreg free
  2310  007408  D04E               	goto	l3368
  2311  00740A                     l3352:
  2312  00740A  EC68  F032         	call	_Draw_11	;wreg free
  2313  00740E  D04B               	goto	l3368
  2314  007410                     l3354:
  2315  007410  EC81  F032         	call	_Draw_12	;wreg free
  2316  007414  D048               	goto	l3368
  2317  007416                     l3356:
  2318  007416  EC9A  F032         	call	_Draw_13	;wreg free
  2319  00741A  D045               	goto	l3368
  2320  00741C                     l3358:
  2321  00741C  ECB3  F032         	call	_Draw_14	;wreg free
  2322  007420  D042               	goto	l3368
  2323  007422                     l3360:
  2324  007422  ECCC  F032         	call	_Draw_15	;wreg free
  2325  007426  D03F               	goto	l3368
  2326  007428                     l3362:
  2327  007428  0E00               	movlw	0
  2328  00742A  6E28               	movwf	_Count_Push_Button+1,c
  2329  00742C  0E00               	movlw	0
  2330  00742E  6E27               	movwf	_Count_Push_Button,c
  2331  007430  D03A               	goto	l3368
  2332  007432                     l3366:
  2333  007432  C027  F03A         	movff	_Count_Push_Button,??_Menu_P4
  2334  007436  C028  F03B         	movff	_Count_Push_Button+1,??_Menu_P4+1
  2335                           
  2336                           ; Switch on 2 bytes has been partitioned into a top level switch of size 1, and 1 sub-sw
      +                          itches
  2337                           ; Switch size 1, requested type "simple"
  2338                           ; Number of cases is 1, Range of values is 0 to 0
  2339                           ; switch strategies available:
  2340                           ; Name         Instructions Cycles
  2341                           ; simple_byte            4     3 (average)
  2342                           ;	Chosen strategy is simple_byte
  2343  00743A  503B               	movf	??_Menu_P4+1,w,c
  2344  00743C  0A00               	xorlw	0	; case 0
  2345  00743E  A4D8               	btfss	status,2,c
  2346  007440  D7F3               	goto	l3362
  2347                           
  2348                           ; Switch size 1, requested type "simple"
  2349                           ; Number of cases is 16, Range of values is 0 to 15
  2350                           ; switch strategies available:
  2351                           ; Name         Instructions Cycles
  2352                           ; simple_byte           49    25 (average)
  2353                           ;	Chosen strategy is simple_byte
  2354  007442  503A               	movf	??_Menu_P4,w,c
  2355  007444  0A00               	xorlw	0	; case 0
  2356  007446  B4D8               	btfsc	status,2,c
  2357  007448  D7BF               	goto	l3330
  2358  00744A  0A01               	xorlw	1	; case 1
  2359  00744C  B4D8               	btfsc	status,2,c
  2360  00744E  D7BF               	goto	l3332
  2361  007450  0A03               	xorlw	3	; case 2
  2362  007452  B4D8               	btfsc	status,2,c
  2363  007454  D7BF               	goto	l3334
  2364  007456  0A01               	xorlw	1	; case 3
  2365  007458  B4D8               	btfsc	status,2,c
  2366  00745A  D7BF               	goto	l3336
  2367  00745C  0A07               	xorlw	7	; case 4
  2368  00745E  B4D8               	btfsc	status,2,c
  2369  007460  D7BF               	goto	l3338
  2370  007462  0A01               	xorlw	1	; case 5
  2371  007464  B4D8               	btfsc	status,2,c
  2372  007466  D7BF               	goto	l3340
  2373  007468  0A03               	xorlw	3	; case 6
  2374  00746A  B4D8               	btfsc	status,2,c
  2375  00746C  D7BF               	goto	l3342
  2376  00746E  0A01               	xorlw	1	; case 7
  2377  007470  B4D8               	btfsc	status,2,c
  2378  007472  D7BF               	goto	l3344
  2379  007474  0A0F               	xorlw	15	; case 8
  2380  007476  B4D8               	btfsc	status,2,c
  2381  007478  D7BF               	goto	l3346
  2382  00747A  0A01               	xorlw	1	; case 9
  2383  00747C  B4D8               	btfsc	status,2,c
  2384  00747E  D7BF               	goto	l3348
  2385  007480  0A03               	xorlw	3	; case 10
  2386  007482  B4D8               	btfsc	status,2,c
  2387  007484  D7BF               	goto	l3350
  2388  007486  0A01               	xorlw	1	; case 11
  2389  007488  B4D8               	btfsc	status,2,c
  2390  00748A  D7BF               	goto	l3352
  2391  00748C  0A07               	xorlw	7	; case 12
  2392  00748E  B4D8               	btfsc	status,2,c
  2393  007490  D7BF               	goto	l3354
  2394  007492  0A01               	xorlw	1	; case 13
  2395  007494  B4D8               	btfsc	status,2,c
  2396  007496  D7BF               	goto	l3356
  2397  007498  0A03               	xorlw	3	; case 14
  2398  00749A  B4D8               	btfsc	status,2,c
  2399  00749C  D7BF               	goto	l3358
  2400  00749E  0A01               	xorlw	1	; case 15
  2401  0074A0  B4D8               	btfsc	status,2,c
  2402  0074A2  D7BF               	goto	l3360
  2403  0074A4  D7C1               	goto	l3362
  2404  0074A6                     l3368:
  2405                           
  2406                           ;main.c: 674:         Button_Menu_Down_State = PORTAbits.RA2;
  2407  0074A6  A480               	btfss	3968,2,c	;volatile
  2408  0074A8  D002               	goto	u1240
  2409  0074AA  0E01               	movlw	1
  2410  0074AC  D001               	goto	u1246
  2411  0074AE                     u1240:
  2412  0074AE  0E00               	movlw	0
  2413  0074B0                     u1246:
  2414  0074B0  6E32               	movwf	_Button_Menu_Down_State,c
  2415                           
  2416                           ;main.c: 675:         if (Button_Menu_Down_State == 0 && Last_Button_Menu_Down_State == 
      +                          1) {
  2417  0074B2  5032               	movf	_Button_Menu_Down_State,w,c
  2418  0074B4  A4D8               	btfss	status,2,c
  2419  0074B6  D00D               	goto	l3376
  2420  0074B8  0453               	decf	_Last_Button_Menu_Down_State,w,c
  2421  0074BA  A4D8               	btfss	status,2,c
  2422  0074BC  D00A               	goto	l3376
  2423                           
  2424                           ;main.c: 676:             Count_Push_Button++;
  2425  0074BE  4A27               	infsnz	_Count_Push_Button,f,c
  2426  0074C0  2A28               	incf	_Count_Push_Button+1,f,c
  2427                           
  2428                           ;main.c: 677:             Count_Exit_Menu = 0;
  2429  0074C2  0E00               	movlw	0
  2430  0074C4  6E11               	movwf	_Count_Exit_Menu,c
  2431  0074C6  0E00               	movlw	0
  2432  0074C8  6E12               	movwf	_Count_Exit_Menu+1,c
  2433  0074CA  0E00               	movlw	0
  2434  0074CC  6E13               	movwf	_Count_Exit_Menu+2,c
  2435  0074CE  0E00               	movlw	0
  2436  0074D0  6E14               	movwf	_Count_Exit_Menu+3,c
  2437  0074D2                     l3376:
  2438                           
  2439                           ;main.c: 679:         Last_Button_Menu_Down_State = Button_Menu_Down_State;
  2440  0074D2  C032  F053         	movff	_Button_Menu_Down_State,_Last_Button_Menu_Down_State
  2441                           
  2442                           ;main.c: 682:         Button_Menu_Up_State = PORTAbits.RA1;
  2443  0074D6  A280               	btfss	3968,1,c	;volatile
  2444  0074D8  D002               	goto	u1270
  2445  0074DA  0E01               	movlw	1
  2446  0074DC  D001               	goto	u1276
  2447  0074DE                     u1270:
  2448  0074DE  0E00               	movlw	0
  2449  0074E0                     u1276:
  2450  0074E0  6E33               	movwf	_Button_Menu_Up_State,c
  2451                           
  2452                           ;main.c: 683:         Count_Exit_Menu = 0;
  2453  0074E2  0E00               	movlw	0
  2454  0074E4  6E11               	movwf	_Count_Exit_Menu,c
  2455  0074E6  0E00               	movlw	0
  2456  0074E8  6E12               	movwf	_Count_Exit_Menu+1,c
  2457  0074EA  0E00               	movlw	0
  2458  0074EC  6E13               	movwf	_Count_Exit_Menu+2,c
  2459  0074EE  0E00               	movlw	0
  2460  0074F0  6E14               	movwf	_Count_Exit_Menu+3,c
  2461                           
  2462                           ;main.c: 684:         if (Button_Menu_Up_State == 0 && Last_Button_Menu_Up_State == 1) {
  2463  0074F2  5033               	movf	_Button_Menu_Up_State,w,c
  2464  0074F4  A4D8               	btfss	status,2,c
  2465  0074F6  D0D5               	goto	l445
  2466  0074F8  0454               	decf	_Last_Button_Menu_Up_State,w,c
  2467  0074FA  B4D8               	btfsc	status,2,c
  2468  0074FC  D098               	goto	l3456
  2469  0074FE  D0D1               	goto	l445
  2470  007500                     l3388:
  2471  007500  0E00               	movlw	0
  2472  007502  6E38               	movwf	eeprom_writex@address+1,c
  2473  007504  0E04               	movlw	4
  2474  007506  6E37               	movwf	eeprom_writex@address,c
  2475  007508  0E00               	movlw	0
  2476  00750A  6E39               	movwf	eeprom_writex@data,c
  2477  00750C  EC7E  F030         	call	_eeprom_writex	;wreg free
  2478  007510                     l3390:
  2479  007510  EC8D  F034         	call	_Recording	;wreg free
  2480  007514  D0C6               	goto	l445
  2481  007516                     l3392:
  2482  007516  0E00               	movlw	0
  2483  007518  6E38               	movwf	eeprom_writex@address+1,c
  2484  00751A  0E04               	movlw	4
  2485  00751C  6E37               	movwf	eeprom_writex@address,c
  2486  00751E  0E01               	movlw	1
  2487  007520  6E39               	movwf	eeprom_writex@data,c
  2488  007522  EC7E  F030         	call	_eeprom_writex	;wreg free
  2489  007526  D7F4               	goto	l3390
  2490  007528                     l3396:
  2491  007528  0E00               	movlw	0
  2492  00752A  6E38               	movwf	eeprom_writex@address+1,c
  2493  00752C  0E04               	movlw	4
  2494  00752E  6E37               	movwf	eeprom_writex@address,c
  2495  007530  0E02               	movlw	2
  2496  007532  6E39               	movwf	eeprom_writex@data,c
  2497  007534  EC7E  F030         	call	_eeprom_writex	;wreg free
  2498  007538  D7EB               	goto	l3390
  2499  00753A                     l3400:
  2500  00753A  0E00               	movlw	0
  2501  00753C  6E38               	movwf	eeprom_writex@address+1,c
  2502  00753E  0E04               	movlw	4
  2503  007540  6E37               	movwf	eeprom_writex@address,c
  2504  007542  0E03               	movlw	3
  2505  007544  6E39               	movwf	eeprom_writex@data,c
  2506  007546  EC7E  F030         	call	_eeprom_writex	;wreg free
  2507  00754A  D7E2               	goto	l3390
  2508  00754C                     l3404:
  2509  00754C  0E00               	movlw	0
  2510  00754E  6E38               	movwf	eeprom_writex@address+1,c
  2511  007550  0E04               	movlw	4
  2512  007552  6E37               	movwf	eeprom_writex@address,c
  2513  007554  0E04               	movlw	4
  2514  007556  6E39               	movwf	eeprom_writex@data,c
  2515  007558  EC7E  F030         	call	_eeprom_writex	;wreg free
  2516  00755C  D7D9               	goto	l3390
  2517  00755E                     l3408:
  2518  00755E  0E00               	movlw	0
  2519  007560  6E38               	movwf	eeprom_writex@address+1,c
  2520  007562  0E04               	movlw	4
  2521  007564  6E37               	movwf	eeprom_writex@address,c
  2522  007566  0E05               	movlw	5
  2523  007568  6E39               	movwf	eeprom_writex@data,c
  2524  00756A  EC7E  F030         	call	_eeprom_writex	;wreg free
  2525  00756E  D7D0               	goto	l3390
  2526  007570                     l3412:
  2527  007570  0E00               	movlw	0
  2528  007572  6E38               	movwf	eeprom_writex@address+1,c
  2529  007574  0E04               	movlw	4
  2530  007576  6E37               	movwf	eeprom_writex@address,c
  2531  007578  0E06               	movlw	6
  2532  00757A  6E39               	movwf	eeprom_writex@data,c
  2533  00757C  EC7E  F030         	call	_eeprom_writex	;wreg free
  2534  007580  D7C7               	goto	l3390
  2535  007582                     l3416:
  2536  007582  0E00               	movlw	0
  2537  007584  6E38               	movwf	eeprom_writex@address+1,c
  2538  007586  0E04               	movlw	4
  2539  007588  6E37               	movwf	eeprom_writex@address,c
  2540  00758A  0E07               	movlw	7
  2541  00758C  6E39               	movwf	eeprom_writex@data,c
  2542  00758E  EC7E  F030         	call	_eeprom_writex	;wreg free
  2543  007592  D7BE               	goto	l3390
  2544  007594                     l3420:
  2545  007594  0E00               	movlw	0
  2546  007596  6E38               	movwf	eeprom_writex@address+1,c
  2547  007598  0E04               	movlw	4
  2548  00759A  6E37               	movwf	eeprom_writex@address,c
  2549  00759C  0E08               	movlw	8
  2550  00759E  6E39               	movwf	eeprom_writex@data,c
  2551  0075A0  EC7E  F030         	call	_eeprom_writex	;wreg free
  2552  0075A4  D7B5               	goto	l3390
  2553  0075A6                     l3424:
  2554  0075A6  0E00               	movlw	0
  2555  0075A8  6E38               	movwf	eeprom_writex@address+1,c
  2556  0075AA  0E04               	movlw	4
  2557  0075AC  6E37               	movwf	eeprom_writex@address,c
  2558  0075AE  0E09               	movlw	9
  2559  0075B0  6E39               	movwf	eeprom_writex@data,c
  2560  0075B2  EC7E  F030         	call	_eeprom_writex	;wreg free
  2561  0075B6  D7AC               	goto	l3390
  2562  0075B8                     l3428:
  2563  0075B8  0E00               	movlw	0
  2564  0075BA  6E38               	movwf	eeprom_writex@address+1,c
  2565  0075BC  0E04               	movlw	4
  2566  0075BE  6E37               	movwf	eeprom_writex@address,c
  2567  0075C0  0E0A               	movlw	10
  2568  0075C2  6E39               	movwf	eeprom_writex@data,c
  2569  0075C4  EC7E  F030         	call	_eeprom_writex	;wreg free
  2570  0075C8  D7A3               	goto	l3390
  2571  0075CA                     l3432:
  2572  0075CA  0E00               	movlw	0
  2573  0075CC  6E38               	movwf	eeprom_writex@address+1,c
  2574  0075CE  0E04               	movlw	4
  2575  0075D0  6E37               	movwf	eeprom_writex@address,c
  2576  0075D2  0E0B               	movlw	11
  2577  0075D4  6E39               	movwf	eeprom_writex@data,c
  2578  0075D6  EC7E  F030         	call	_eeprom_writex	;wreg free
  2579  0075DA  D79A               	goto	l3390
  2580  0075DC                     l3436:
  2581  0075DC  0E00               	movlw	0
  2582  0075DE  6E38               	movwf	eeprom_writex@address+1,c
  2583  0075E0  0E04               	movlw	4
  2584  0075E2  6E37               	movwf	eeprom_writex@address,c
  2585  0075E4  0E0C               	movlw	12
  2586  0075E6  6E39               	movwf	eeprom_writex@data,c
  2587  0075E8  EC7E  F030         	call	_eeprom_writex	;wreg free
  2588  0075EC  D791               	goto	l3390
  2589  0075EE                     l3440:
  2590  0075EE  0E00               	movlw	0
  2591  0075F0  6E38               	movwf	eeprom_writex@address+1,c
  2592  0075F2  0E04               	movlw	4
  2593  0075F4  6E37               	movwf	eeprom_writex@address,c
  2594  0075F6  0E0D               	movlw	13
  2595  0075F8  6E39               	movwf	eeprom_writex@data,c
  2596  0075FA  EC7E  F030         	call	_eeprom_writex	;wreg free
  2597  0075FE  D788               	goto	l3390
  2598  007600                     l3444:
  2599  007600  0E00               	movlw	0
  2600  007602  6E38               	movwf	eeprom_writex@address+1,c
  2601  007604  0E04               	movlw	4
  2602  007606  6E37               	movwf	eeprom_writex@address,c
  2603  007608  0E0E               	movlw	14
  2604  00760A  6E39               	movwf	eeprom_writex@data,c
  2605  00760C  EC7E  F030         	call	_eeprom_writex	;wreg free
  2606  007610  D77F               	goto	l3390
  2607  007612                     l3448:
  2608  007612  0E00               	movlw	0
  2609  007614  6E38               	movwf	eeprom_writex@address+1,c
  2610  007616  0E04               	movlw	4
  2611  007618  6E37               	movwf	eeprom_writex@address,c
  2612  00761A  0E0F               	movlw	15
  2613  00761C  6E39               	movwf	eeprom_writex@data,c
  2614  00761E  EC7E  F030         	call	_eeprom_writex	;wreg free
  2615  007622  D776               	goto	l3390
  2616  007624                     l3452:
  2617  007624  0E00               	movlw	0
  2618  007626  6E28               	movwf	_Count_Push_Button+1,c
  2619  007628  0E00               	movlw	0
  2620  00762A  6E27               	movwf	_Count_Push_Button,c
  2621  00762C  D03A               	goto	l445
  2622  00762E                     l3456:
  2623  00762E  C027  F03A         	movff	_Count_Push_Button,??_Menu_P4
  2624  007632  C028  F03B         	movff	_Count_Push_Button+1,??_Menu_P4+1
  2625                           
  2626                           ; Switch on 2 bytes has been partitioned into a top level switch of size 1, and 1 sub-sw
      +                          itches
  2627                           ; Switch size 1, requested type "simple"
  2628                           ; Number of cases is 1, Range of values is 0 to 0
  2629                           ; switch strategies available:
  2630                           ; Name         Instructions Cycles
  2631                           ; simple_byte            4     3 (average)
  2632                           ;	Chosen strategy is simple_byte
  2633  007636  503B               	movf	??_Menu_P4+1,w,c
  2634  007638  0A00               	xorlw	0	; case 0
  2635  00763A  A4D8               	btfss	status,2,c
  2636  00763C  D7F3               	goto	l3452
  2637                           
  2638                           ; Switch size 1, requested type "simple"
  2639                           ; Number of cases is 16, Range of values is 0 to 15
  2640                           ; switch strategies available:
  2641                           ; Name         Instructions Cycles
  2642                           ; simple_byte           49    25 (average)
  2643                           ;	Chosen strategy is simple_byte
  2644  00763E  503A               	movf	??_Menu_P4,w,c
  2645  007640  0A00               	xorlw	0	; case 0
  2646  007642  B4D8               	btfsc	status,2,c
  2647  007644  D75D               	goto	l3388
  2648  007646  0A01               	xorlw	1	; case 1
  2649  007648  B4D8               	btfsc	status,2,c
  2650  00764A  D765               	goto	l3392
  2651  00764C  0A03               	xorlw	3	; case 2
  2652  00764E  B4D8               	btfsc	status,2,c
  2653  007650  D76B               	goto	l3396
  2654  007652  0A01               	xorlw	1	; case 3
  2655  007654  B4D8               	btfsc	status,2,c
  2656  007656  D771               	goto	l3400
  2657  007658  0A07               	xorlw	7	; case 4
  2658  00765A  B4D8               	btfsc	status,2,c
  2659  00765C  D777               	goto	l3404
  2660  00765E  0A01               	xorlw	1	; case 5
  2661  007660  B4D8               	btfsc	status,2,c
  2662  007662  D77D               	goto	l3408
  2663  007664  0A03               	xorlw	3	; case 6
  2664  007666  B4D8               	btfsc	status,2,c
  2665  007668  D783               	goto	l3412
  2666  00766A  0A01               	xorlw	1	; case 7
  2667  00766C  B4D8               	btfsc	status,2,c
  2668  00766E  D789               	goto	l3416
  2669  007670  0A0F               	xorlw	15	; case 8
  2670  007672  B4D8               	btfsc	status,2,c
  2671  007674  D78F               	goto	l3420
  2672  007676  0A01               	xorlw	1	; case 9
  2673  007678  B4D8               	btfsc	status,2,c
  2674  00767A  D795               	goto	l3424
  2675  00767C  0A03               	xorlw	3	; case 10
  2676  00767E  B4D8               	btfsc	status,2,c
  2677  007680  D79B               	goto	l3428
  2678  007682  0A01               	xorlw	1	; case 11
  2679  007684  B4D8               	btfsc	status,2,c
  2680  007686  D7A1               	goto	l3432
  2681  007688  0A07               	xorlw	7	; case 12
  2682  00768A  B4D8               	btfsc	status,2,c
  2683  00768C  D7A7               	goto	l3436
  2684  00768E  0A01               	xorlw	1	; case 13
  2685  007690  B4D8               	btfsc	status,2,c
  2686  007692  D7AD               	goto	l3440
  2687  007694  0A03               	xorlw	3	; case 14
  2688  007696  B4D8               	btfsc	status,2,c
  2689  007698  D7B3               	goto	l3444
  2690  00769A  0A01               	xorlw	1	; case 15
  2691  00769C  B4D8               	btfsc	status,2,c
  2692  00769E  D7B9               	goto	l3448
  2693  0076A0  D7C1               	goto	l3452
  2694  0076A2                     l445:
  2695                           
  2696                           ;main.c: 706:         Last_Button_Menu_Up_State = Button_Menu_Up_State;
  2697  0076A2  C033  F054         	movff	_Button_Menu_Up_State,_Last_Button_Menu_Up_State
  2698                           
  2699                           ;main.c: 707:         Exit_Time_Menu();
  2700  0076A6  ECAD  F033         	call	_Exit_Time_Menu	;wreg free
  2701                           
  2702                           ;main.c: 708:     } while (Flag_Menu == 1);
  2703  0076AA  042F               	decf	_Flag_Menu,w,c
  2704  0076AC  A4D8               	btfss	status,2,c
  2705  0076AE  0012               	return	
  2706  0076B0  D6C0               	goto	l3366
  2707  0076B2                     __end_of_Menu_P4:
  2708                           	opt callstack 0
  2709                           
  2710 ;; *************** function _Menu_P3 *****************
  2711 ;; Defined at:
  2712 ;;		line 591 in file "main.c"
  2713 ;; Parameters:    Size  Location     Type
  2714 ;;		None
  2715 ;; Auto vars:     Size  Location     Type
  2716 ;;		None
  2717 ;; Return value:  Size  Location     Type
  2718 ;;                  1    wreg      void 
  2719 ;; Registers used:
  2720 ;;		wreg, status,2, status,0, cstack
  2721 ;; Tracked objects:
  2722 ;;		On entry : 0/0
  2723 ;;		On exit  : 0/0
  2724 ;;		Unchanged: 0/0
  2725 ;; Data sizes:     COMRAM   BANK0   BANK1   BANK2   BANK3   BANK4   BANK5   BANK6   BANK7
  2726 ;;      Params:         0       0       0       0       0       0       0       0       0
  2727 ;;      Locals:         0       0       0       0       0       0       0       0       0
  2728 ;;      Temps:          2       0       0       0       0       0       0       0       0
  2729 ;;      Totals:         2       0       0       0       0       0       0       0       0
  2730 ;;Total ram usage:        2 bytes
  2731 ;; Hardware stack levels used:    1
  2732 ;; Hardware stack levels required when called:    2
  2733 ;; This function calls:
  2734 ;;		_Draw_10
  2735 ;;		_Draw_12
  2736 ;;		_Draw_14
  2737 ;;		_Draw_16
  2738 ;;		_Draw_18
  2739 ;;		_Draw_2
  2740 ;;		_Draw_20
  2741 ;;		_Draw_22
  2742 ;;		_Draw_24
  2743 ;;		_Draw_26
  2744 ;;		_Draw_28
  2745 ;;		_Draw_30
  2746 ;;		_Draw_4
  2747 ;;		_Draw_6
  2748 ;;		_Draw_8
  2749 ;;		_Exit_Time_Menu
  2750 ;;		_Recording
  2751 ;;		_eeprom_writex
  2752 ;; This function is called by:
  2753 ;;		_Menu
  2754 ;; This function uses a non-reentrant model
  2755 ;;
  2756                           
  2757                           	psect	text6
  2758  006E12                     __ptext6:
  2759                           	opt callstack 0
  2760  006E12                     _Menu_P3:
  2761                           	opt callstack 26
  2762                           
  2763                           ;main.c: 593:         switch (Count_Push_Button)
  2764                           
  2765                           ;incstack = 0
  2766                           ;main.c: 592:     do {
  2767  006E12  D032               	goto	l3230
  2768  006E14                     l3196:
  2769  006E14  EC12  F031         	call	_Draw_2	;wreg free
  2770  006E18  D066               	goto	l3232
  2771  006E1A                     l3198:
  2772  006E1A  EC42  F031         	call	_Draw_4	;wreg free
  2773  006E1E  D063               	goto	l3232
  2774  006E20                     l3200:
  2775  006E20  EC72  F031         	call	_Draw_6	;wreg free
  2776  006E24  D060               	goto	l3232
  2777  006E26                     l3202:
  2778  006E26  ECA2  F031         	call	_Draw_8	;wreg free
  2779  006E2A  D05D               	goto	l3232
  2780  006E2C                     l3204:
  2781  006E2C  EC4F  F032         	call	_Draw_10	;wreg free
  2782  006E30  D05A               	goto	l3232
  2783  006E32                     l3206:
  2784  006E32  EC81  F032         	call	_Draw_12	;wreg free
  2785  006E36  D057               	goto	l3232
  2786  006E38                     l3208:
  2787  006E38  ECB3  F032         	call	_Draw_14	;wreg free
  2788  006E3C  D054               	goto	l3232
  2789  006E3E                     l3210:
  2790  006E3E  ECE5  F032         	call	_Draw_16	;wreg free
  2791  006E42  D051               	goto	l3232
  2792  006E44                     l3212:
  2793  006E44  ECFE  F032         	call	_Draw_18	;wreg free
  2794  006E48  D04E               	goto	l3232
  2795  006E4A                     l3214:
  2796  006E4A  EC17  F033         	call	_Draw_20	;wreg free
  2797  006E4E  D04B               	goto	l3232
  2798  006E50                     l3216:
  2799  006E50  EC30  F033         	call	_Draw_22	;wreg free
  2800  006E54  D048               	goto	l3232
  2801  006E56                     l3218:
  2802  006E56  EC49  F033         	call	_Draw_24	;wreg free
  2803  006E5A  D045               	goto	l3232
  2804  006E5C                     l3220:
  2805  006E5C  EC62  F033         	call	_Draw_26	;wreg free
  2806  006E60  D042               	goto	l3232
  2807  006E62                     l3222:
  2808  006E62  EC7B  F033         	call	_Draw_28	;wreg free
  2809  006E66  D03F               	goto	l3232
  2810  006E68                     l3224:
  2811  006E68  EC94  F033         	call	_Draw_30	;wreg free
  2812  006E6C  D03C               	goto	l3232
  2813  006E6E                     l3226:
  2814  006E6E  0E00               	movlw	0
  2815  006E70  6E28               	movwf	_Count_Push_Button+1,c
  2816  006E72  0E01               	movlw	1
  2817  006E74  6E27               	movwf	_Count_Push_Button,c
  2818  006E76  D037               	goto	l3232
  2819  006E78                     l3230:
  2820  006E78  C027  F03A         	movff	_Count_Push_Button,??_Menu_P3
  2821  006E7C  C028  F03B         	movff	_Count_Push_Button+1,??_Menu_P3+1
  2822                           
  2823                           ; Switch on 2 bytes has been partitioned into a top level switch of size 1, and 1 sub-sw
      +                          itches
  2824                           ; Switch size 1, requested type "simple"
  2825                           ; Number of cases is 1, Range of values is 0 to 0
  2826                           ; switch strategies available:
  2827                           ; Name         Instructions Cycles
  2828                           ; simple_byte            4     3 (average)
  2829                           ;	Chosen strategy is simple_byte
  2830  006E80  503B               	movf	??_Menu_P3+1,w,c
  2831  006E82  0A00               	xorlw	0	; case 0
  2832  006E84  A4D8               	btfss	status,2,c
  2833  006E86  D7F3               	goto	l3226
  2834                           
  2835                           ; Switch size 1, requested type "simple"
  2836                           ; Number of cases is 15, Range of values is 1 to 15
  2837                           ; switch strategies available:
  2838                           ; Name         Instructions Cycles
  2839                           ; simple_byte           46    24 (average)
  2840                           ;	Chosen strategy is simple_byte
  2841  006E88  503A               	movf	??_Menu_P3,w,c
  2842  006E8A  0A01               	xorlw	1	; case 1
  2843  006E8C  B4D8               	btfsc	status,2,c
  2844  006E8E  D7C2               	goto	l3196
  2845  006E90  0A03               	xorlw	3	; case 2
  2846  006E92  B4D8               	btfsc	status,2,c
  2847  006E94  D7C2               	goto	l3198
  2848  006E96  0A01               	xorlw	1	; case 3
  2849  006E98  B4D8               	btfsc	status,2,c
  2850  006E9A  D7C2               	goto	l3200
  2851  006E9C  0A07               	xorlw	7	; case 4
  2852  006E9E  B4D8               	btfsc	status,2,c
  2853  006EA0  D7C2               	goto	l3202
  2854  006EA2  0A01               	xorlw	1	; case 5
  2855  006EA4  B4D8               	btfsc	status,2,c
  2856  006EA6  D7C2               	goto	l3204
  2857  006EA8  0A03               	xorlw	3	; case 6
  2858  006EAA  B4D8               	btfsc	status,2,c
  2859  006EAC  D7C2               	goto	l3206
  2860  006EAE  0A01               	xorlw	1	; case 7
  2861  006EB0  B4D8               	btfsc	status,2,c
  2862  006EB2  D7C2               	goto	l3208
  2863  006EB4  0A0F               	xorlw	15	; case 8
  2864  006EB6  B4D8               	btfsc	status,2,c
  2865  006EB8  D7C2               	goto	l3210
  2866  006EBA  0A01               	xorlw	1	; case 9
  2867  006EBC  B4D8               	btfsc	status,2,c
  2868  006EBE  D7C2               	goto	l3212
  2869  006EC0  0A03               	xorlw	3	; case 10
  2870  006EC2  B4D8               	btfsc	status,2,c
  2871  006EC4  D7C2               	goto	l3214
  2872  006EC6  0A01               	xorlw	1	; case 11
  2873  006EC8  B4D8               	btfsc	status,2,c
  2874  006ECA  D7C2               	goto	l3216
  2875  006ECC  0A07               	xorlw	7	; case 12
  2876  006ECE  B4D8               	btfsc	status,2,c
  2877  006ED0  D7C2               	goto	l3218
  2878  006ED2  0A01               	xorlw	1	; case 13
  2879  006ED4  B4D8               	btfsc	status,2,c
  2880  006ED6  D7C2               	goto	l3220
  2881  006ED8  0A03               	xorlw	3	; case 14
  2882  006EDA  B4D8               	btfsc	status,2,c
  2883  006EDC  D7C2               	goto	l3222
  2884  006EDE  0A01               	xorlw	1	; case 15
  2885  006EE0  B4D8               	btfsc	status,2,c
  2886  006EE2  D7C2               	goto	l3224
  2887  006EE4  D7C4               	goto	l3226
  2888  006EE6                     l3232:
  2889                           
  2890                           ;main.c: 614:         Button_Menu_Down_State = PORTAbits.RA2;
  2891  006EE6  A480               	btfss	3968,2,c	;volatile
  2892  006EE8  D002               	goto	u1170
  2893  006EEA  0E01               	movlw	1
  2894  006EEC  D001               	goto	u1176
  2895  006EEE                     u1170:
  2896  006EEE  0E00               	movlw	0
  2897  006EF0                     u1176:
  2898  006EF0  6E32               	movwf	_Button_Menu_Down_State,c
  2899                           
  2900                           ;main.c: 615:         if (Button_Menu_Down_State == 0 && Last_Button_Menu_Down_State == 
      +                          1) {
  2901  006EF2  5032               	movf	_Button_Menu_Down_State,w,c
  2902  006EF4  A4D8               	btfss	status,2,c
  2903  006EF6  D00D               	goto	l3240
  2904  006EF8  0453               	decf	_Last_Button_Menu_Down_State,w,c
  2905  006EFA  A4D8               	btfss	status,2,c
  2906  006EFC  D00A               	goto	l3240
  2907                           
  2908                           ;main.c: 616:             Count_Push_Button++;
  2909  006EFE  4A27               	infsnz	_Count_Push_Button,f,c
  2910  006F00  2A28               	incf	_Count_Push_Button+1,f,c
  2911                           
  2912                           ;main.c: 617:             Count_Exit_Menu = 0;
  2913  006F02  0E00               	movlw	0
  2914  006F04  6E11               	movwf	_Count_Exit_Menu,c
  2915  006F06  0E00               	movlw	0
  2916  006F08  6E12               	movwf	_Count_Exit_Menu+1,c
  2917  006F0A  0E00               	movlw	0
  2918  006F0C  6E13               	movwf	_Count_Exit_Menu+2,c
  2919  006F0E  0E00               	movlw	0
  2920  006F10  6E14               	movwf	_Count_Exit_Menu+3,c
  2921  006F12                     l3240:
  2922                           
  2923                           ;main.c: 619:         Last_Button_Menu_Down_State = Button_Menu_Down_State;
  2924  006F12  C032  F053         	movff	_Button_Menu_Down_State,_Last_Button_Menu_Down_State
  2925                           
  2926                           ;main.c: 622:         Button_Menu_Up_State = PORTAbits.RA1;
  2927  006F16  A280               	btfss	3968,1,c	;volatile
  2928  006F18  D002               	goto	u1200
  2929  006F1A  0E01               	movlw	1
  2930  006F1C  D001               	goto	u1206
  2931  006F1E                     u1200:
  2932  006F1E  0E00               	movlw	0
  2933  006F20                     u1206:
  2934  006F20  6E33               	movwf	_Button_Menu_Up_State,c
  2935                           
  2936                           ;main.c: 623:         Count_Exit_Menu = 0;
  2937  006F22  0E00               	movlw	0
  2938  006F24  6E11               	movwf	_Count_Exit_Menu,c
  2939  006F26  0E00               	movlw	0
  2940  006F28  6E12               	movwf	_Count_Exit_Menu+1,c
  2941  006F2A  0E00               	movlw	0
  2942  006F2C  6E13               	movwf	_Count_Exit_Menu+2,c
  2943  006F2E  0E00               	movlw	0
  2944  006F30  6E14               	movwf	_Count_Exit_Menu+3,c
  2945                           
  2946                           ;main.c: 624:         if (Button_Menu_Up_State == 0 && Last_Button_Menu_Up_State == 1) {
  2947  006F32  5033               	movf	_Button_Menu_Up_State,w,c
  2948  006F34  A4D8               	btfss	status,2,c
  2949  006F36  D0C9               	goto	l401
  2950  006F38  0454               	decf	_Last_Button_Menu_Up_State,w,c
  2951  006F3A  B4D8               	btfsc	status,2,c
  2952  006F3C  D08F               	goto	l3316
  2953  006F3E  D0C5               	goto	l401
  2954  006F40                     l3252:
  2955  006F40  0E00               	movlw	0
  2956  006F42  6E38               	movwf	eeprom_writex@address+1,c
  2957  006F44  0E03               	movlw	3
  2958  006F46  6E37               	movwf	eeprom_writex@address,c
  2959  006F48  0E01               	movlw	1
  2960  006F4A  6E39               	movwf	eeprom_writex@data,c
  2961  006F4C  EC7E  F030         	call	_eeprom_writex	;wreg free
  2962  006F50                     l3254:
  2963  006F50  EC8D  F034         	call	_Recording	;wreg free
  2964  006F54  D0BA               	goto	l401
  2965  006F56                     l3256:
  2966  006F56  0E00               	movlw	0
  2967  006F58  6E38               	movwf	eeprom_writex@address+1,c
  2968  006F5A  0E03               	movlw	3
  2969  006F5C  6E37               	movwf	eeprom_writex@address,c
  2970  006F5E  0E02               	movlw	2
  2971  006F60  6E39               	movwf	eeprom_writex@data,c
  2972  006F62  EC7E  F030         	call	_eeprom_writex	;wreg free
  2973  006F66  D7F4               	goto	l3254
  2974  006F68                     l3260:
  2975  006F68  0E00               	movlw	0
  2976  006F6A  6E38               	movwf	eeprom_writex@address+1,c
  2977  006F6C  0E03               	movlw	3
  2978  006F6E  6E37               	movwf	eeprom_writex@address,c
  2979  006F70  0E03               	movlw	3
  2980  006F72  6E39               	movwf	eeprom_writex@data,c
  2981  006F74  EC7E  F030         	call	_eeprom_writex	;wreg free
  2982  006F78  D7EB               	goto	l3254
  2983  006F7A                     l3264:
  2984  006F7A  0E00               	movlw	0
  2985  006F7C  6E38               	movwf	eeprom_writex@address+1,c
  2986  006F7E  0E03               	movlw	3
  2987  006F80  6E37               	movwf	eeprom_writex@address,c
  2988  006F82  0E04               	movlw	4
  2989  006F84  6E39               	movwf	eeprom_writex@data,c
  2990  006F86  EC7E  F030         	call	_eeprom_writex	;wreg free
  2991  006F8A  D7E2               	goto	l3254
  2992  006F8C                     l3268:
  2993  006F8C  0E00               	movlw	0
  2994  006F8E  6E38               	movwf	eeprom_writex@address+1,c
  2995  006F90  0E03               	movlw	3
  2996  006F92  6E37               	movwf	eeprom_writex@address,c
  2997  006F94  0E05               	movlw	5
  2998  006F96  6E39               	movwf	eeprom_writex@data,c
  2999  006F98  EC7E  F030         	call	_eeprom_writex	;wreg free
  3000  006F9C  D7D9               	goto	l3254
  3001  006F9E                     l3272:
  3002  006F9E  0E00               	movlw	0
  3003  006FA0  6E38               	movwf	eeprom_writex@address+1,c
  3004  006FA2  0E03               	movlw	3
  3005  006FA4  6E37               	movwf	eeprom_writex@address,c
  3006  006FA6  0E06               	movlw	6
  3007  006FA8  6E39               	movwf	eeprom_writex@data,c
  3008  006FAA  EC7E  F030         	call	_eeprom_writex	;wreg free
  3009  006FAE  D7D0               	goto	l3254
  3010  006FB0                     l3276:
  3011  006FB0  0E00               	movlw	0
  3012  006FB2  6E38               	movwf	eeprom_writex@address+1,c
  3013  006FB4  0E03               	movlw	3
  3014  006FB6  6E37               	movwf	eeprom_writex@address,c
  3015  006FB8  0E07               	movlw	7
  3016  006FBA  6E39               	movwf	eeprom_writex@data,c
  3017  006FBC  EC7E  F030         	call	_eeprom_writex	;wreg free
  3018  006FC0  D7C7               	goto	l3254
  3019  006FC2                     l3280:
  3020  006FC2  0E00               	movlw	0
  3021  006FC4  6E38               	movwf	eeprom_writex@address+1,c
  3022  006FC6  0E03               	movlw	3
  3023  006FC8  6E37               	movwf	eeprom_writex@address,c
  3024  006FCA  0E08               	movlw	8
  3025  006FCC  6E39               	movwf	eeprom_writex@data,c
  3026  006FCE  EC7E  F030         	call	_eeprom_writex	;wreg free
  3027  006FD2  D7BE               	goto	l3254
  3028  006FD4                     l3284:
  3029  006FD4  0E00               	movlw	0
  3030  006FD6  6E38               	movwf	eeprom_writex@address+1,c
  3031  006FD8  0E03               	movlw	3
  3032  006FDA  6E37               	movwf	eeprom_writex@address,c
  3033  006FDC  0E09               	movlw	9
  3034  006FDE  6E39               	movwf	eeprom_writex@data,c
  3035  006FE0  EC7E  F030         	call	_eeprom_writex	;wreg free
  3036  006FE4  D7B5               	goto	l3254
  3037  006FE6                     l3288:
  3038  006FE6  0E00               	movlw	0
  3039  006FE8  6E38               	movwf	eeprom_writex@address+1,c
  3040  006FEA  0E03               	movlw	3
  3041  006FEC  6E37               	movwf	eeprom_writex@address,c
  3042  006FEE  0E0A               	movlw	10
  3043  006FF0  6E39               	movwf	eeprom_writex@data,c
  3044  006FF2  EC7E  F030         	call	_eeprom_writex	;wreg free
  3045  006FF6  D7AC               	goto	l3254
  3046  006FF8                     l3292:
  3047  006FF8  0E00               	movlw	0
  3048  006FFA  6E38               	movwf	eeprom_writex@address+1,c
  3049  006FFC  0E03               	movlw	3
  3050  006FFE  6E37               	movwf	eeprom_writex@address,c
  3051  007000  0E0B               	movlw	11
  3052  007002  6E39               	movwf	eeprom_writex@data,c
  3053  007004  EC7E  F030         	call	_eeprom_writex	;wreg free
  3054  007008  D7A3               	goto	l3254
  3055  00700A                     l3296:
  3056  00700A  0E00               	movlw	0
  3057  00700C  6E38               	movwf	eeprom_writex@address+1,c
  3058  00700E  0E03               	movlw	3
  3059  007010  6E37               	movwf	eeprom_writex@address,c
  3060  007012  0E0C               	movlw	12
  3061  007014  6E39               	movwf	eeprom_writex@data,c
  3062  007016  EC7E  F030         	call	_eeprom_writex	;wreg free
  3063  00701A  D79A               	goto	l3254
  3064  00701C                     l3300:
  3065  00701C  0E00               	movlw	0
  3066  00701E  6E38               	movwf	eeprom_writex@address+1,c
  3067  007020  0E03               	movlw	3
  3068  007022  6E37               	movwf	eeprom_writex@address,c
  3069  007024  0E0D               	movlw	13
  3070  007026  6E39               	movwf	eeprom_writex@data,c
  3071  007028  EC7E  F030         	call	_eeprom_writex	;wreg free
  3072  00702C  D791               	goto	l3254
  3073  00702E                     l3304:
  3074  00702E  0E00               	movlw	0
  3075  007030  6E38               	movwf	eeprom_writex@address+1,c
  3076  007032  0E03               	movlw	3
  3077  007034  6E37               	movwf	eeprom_writex@address,c
  3078  007036  0E0E               	movlw	14
  3079  007038  6E39               	movwf	eeprom_writex@data,c
  3080  00703A  EC7E  F030         	call	_eeprom_writex	;wreg free
  3081  00703E  D788               	goto	l3254
  3082  007040                     l3308:
  3083  007040  0E00               	movlw	0
  3084  007042  6E38               	movwf	eeprom_writex@address+1,c
  3085  007044  0E03               	movlw	3
  3086  007046  6E37               	movwf	eeprom_writex@address,c
  3087  007048  0E0F               	movlw	15
  3088  00704A  6E39               	movwf	eeprom_writex@data,c
  3089  00704C  EC7E  F030         	call	_eeprom_writex	;wreg free
  3090  007050  D77F               	goto	l3254
  3091  007052                     l3312:
  3092  007052  0E00               	movlw	0
  3093  007054  6E28               	movwf	_Count_Push_Button+1,c
  3094  007056  0E01               	movlw	1
  3095  007058  6E27               	movwf	_Count_Push_Button,c
  3096  00705A  D037               	goto	l401
  3097  00705C                     l3316:
  3098  00705C  C027  F03A         	movff	_Count_Push_Button,??_Menu_P3
  3099  007060  C028  F03B         	movff	_Count_Push_Button+1,??_Menu_P3+1
  3100                           
  3101                           ; Switch on 2 bytes has been partitioned into a top level switch of size 1, and 1 sub-sw
      +                          itches
  3102                           ; Switch size 1, requested type "simple"
  3103                           ; Number of cases is 1, Range of values is 0 to 0
  3104                           ; switch strategies available:
  3105                           ; Name         Instructions Cycles
  3106                           ; simple_byte            4     3 (average)
  3107                           ;	Chosen strategy is simple_byte
  3108  007064  503B               	movf	??_Menu_P3+1,w,c
  3109  007066  0A00               	xorlw	0	; case 0
  3110  007068  A4D8               	btfss	status,2,c
  3111  00706A  D7F3               	goto	l3312
  3112                           
  3113                           ; Switch size 1, requested type "simple"
  3114                           ; Number of cases is 15, Range of values is 1 to 15
  3115                           ; switch strategies available:
  3116                           ; Name         Instructions Cycles
  3117                           ; simple_byte           46    24 (average)
  3118                           ;	Chosen strategy is simple_byte
  3119  00706C  503A               	movf	??_Menu_P3,w,c
  3120  00706E  0A01               	xorlw	1	; case 1
  3121  007070  B4D8               	btfsc	status,2,c
  3122  007072  D766               	goto	l3252
  3123  007074  0A03               	xorlw	3	; case 2
  3124  007076  B4D8               	btfsc	status,2,c
  3125  007078  D76E               	goto	l3256
  3126  00707A  0A01               	xorlw	1	; case 3
  3127  00707C  B4D8               	btfsc	status,2,c
  3128  00707E  D774               	goto	l3260
  3129  007080  0A07               	xorlw	7	; case 4
  3130  007082  B4D8               	btfsc	status,2,c
  3131  007084  D77A               	goto	l3264
  3132  007086  0A01               	xorlw	1	; case 5
  3133  007088  B4D8               	btfsc	status,2,c
  3134  00708A  D780               	goto	l3268
  3135  00708C  0A03               	xorlw	3	; case 6
  3136  00708E  B4D8               	btfsc	status,2,c
  3137  007090  D786               	goto	l3272
  3138  007092  0A01               	xorlw	1	; case 7
  3139  007094  B4D8               	btfsc	status,2,c
  3140  007096  D78C               	goto	l3276
  3141  007098  0A0F               	xorlw	15	; case 8
  3142  00709A  B4D8               	btfsc	status,2,c
  3143  00709C  D792               	goto	l3280
  3144  00709E  0A01               	xorlw	1	; case 9
  3145  0070A0  B4D8               	btfsc	status,2,c
  3146  0070A2  D798               	goto	l3284
  3147  0070A4  0A03               	xorlw	3	; case 10
  3148  0070A6  B4D8               	btfsc	status,2,c
  3149  0070A8  D79E               	goto	l3288
  3150  0070AA  0A01               	xorlw	1	; case 11
  3151  0070AC  B4D8               	btfsc	status,2,c
  3152  0070AE  D7A4               	goto	l3292
  3153  0070B0  0A07               	xorlw	7	; case 12
  3154  0070B2  B4D8               	btfsc	status,2,c
  3155  0070B4  D7AA               	goto	l3296
  3156  0070B6  0A01               	xorlw	1	; case 13
  3157  0070B8  B4D8               	btfsc	status,2,c
  3158  0070BA  D7B0               	goto	l3300
  3159  0070BC  0A03               	xorlw	3	; case 14
  3160  0070BE  B4D8               	btfsc	status,2,c
  3161  0070C0  D7B6               	goto	l3304
  3162  0070C2  0A01               	xorlw	1	; case 15
  3163  0070C4  B4D8               	btfsc	status,2,c
  3164  0070C6  D7BC               	goto	l3308
  3165  0070C8  D7C4               	goto	l3312
  3166  0070CA                     l401:
  3167                           
  3168                           ;main.c: 646:         Last_Button_Menu_Up_State = Button_Menu_Up_State;
  3169  0070CA  C033  F054         	movff	_Button_Menu_Up_State,_Last_Button_Menu_Up_State
  3170                           
  3171                           ;main.c: 647:         Exit_Time_Menu();
  3172  0070CE  ECAD  F033         	call	_Exit_Time_Menu	;wreg free
  3173                           
  3174                           ;main.c: 648:     } while (Flag_Menu == 1);
  3175  0070D2  042F               	decf	_Flag_Menu,w,c
  3176  0070D4  A4D8               	btfss	status,2,c
  3177  0070D6  0012               	return	
  3178  0070D8  D6CF               	goto	l3230
  3179  0070DA                     __end_of_Menu_P3:
  3180                           	opt callstack 0
  3181                           
  3182 ;; *************** function _Draw_30 *****************
  3183 ;; Defined at:
  3184 ;;		line 1025 in file "main.c"
  3185 ;; Parameters:    Size  Location     Type
  3186 ;;		None
  3187 ;; Auto vars:     Size  Location     Type
  3188 ;;		None
  3189 ;; Return value:  Size  Location     Type
  3190 ;;                  1    wreg      void 
  3191 ;; Registers used:
  3192 ;;		wreg, status,2
  3193 ;; Tracked objects:
  3194 ;;		On entry : 0/0
  3195 ;;		On exit  : 0/0
  3196 ;;		Unchanged: 0/0
  3197 ;; Data sizes:     COMRAM   BANK0   BANK1   BANK2   BANK3   BANK4   BANK5   BANK6   BANK7
  3198 ;;      Params:         0       0       0       0       0       0       0       0       0
  3199 ;;      Locals:         0       0       0       0       0       0       0       0       0
  3200 ;;      Temps:          1       0       0       0       0       0       0       0       0
  3201 ;;      Totals:         1       0       0       0       0       0       0       0       0
  3202 ;;Total ram usage:        1 bytes
  3203 ;; Hardware stack levels used:    1
  3204 ;; This function calls:
  3205 ;;		Nothing
  3206 ;; This function is called by:
  3207 ;;		_Menu_P3
  3208 ;; This function uses a non-reentrant model
  3209 ;;
  3210                           
  3211                           	psect	text7
  3212  006728                     __ptext7:
  3213                           	opt callstack 0
  3214  006728                     _Draw_30:
  3215                           	opt callstack 27
  3216                           
  3217                           ;main.c: 1026:     PORTB = 0x64;
  3218                           
  3219                           ;incstack = 0
  3220  006728  0E64               	movlw	100
  3221  00672A  6E81               	movwf	3969,c	;volatile
  3222                           
  3223                           ;main.c: 1027:     PORTCbits.RC7 = 1;
  3224  00672C  8E82               	bsf	3970,7,c	;volatile
  3225                           
  3226                           ;main.c: 1028:     _delay((unsigned long)((1600)*(20000000/4000000.0)));
  3227  00672E  0E0B               	movlw	11
  3228  006730  6E37               	movwf	??_Draw_30& (0+255),c
  3229  006732  0E62               	movlw	98
  3230  006734                     u2247:
  3231  006734  2EE8               	decfsz	wreg,f,c
  3232  006736  D7FE               	bra	u2247
  3233  006738  2E37               	decfsz	??_Draw_30& (0+255),f,c
  3234  00673A  D7FC               	bra	u2247
  3235  00673C  D000               	nop2	
  3236                           
  3237                           ;main.c: 1029:     PORTCbits.RC7 = 0;
  3238  00673E  9E82               	bcf	3970,7,c	;volatile
  3239                           
  3240                           ;main.c: 1030:     PORTB = 0x28;
  3241  006740  0E28               	movlw	40
  3242  006742  6E81               	movwf	3969,c	;volatile
  3243                           
  3244                           ;main.c: 1031:     PORTCbits.RC6 = 1;
  3245  006744  8C82               	bsf	3970,6,c	;volatile
  3246                           
  3247                           ;main.c: 1032:     _delay((unsigned long)((1600)*(20000000/4000000.0)));
  3248  006746  0E0B               	movlw	11
  3249  006748  6E37               	movwf	??_Draw_30& (0+255),c
  3250  00674A  0E62               	movlw	98
  3251  00674C                     u2257:
  3252  00674C  2EE8               	decfsz	wreg,f,c
  3253  00674E  D7FE               	bra	u2257
  3254  006750  2E37               	decfsz	??_Draw_30& (0+255),f,c
  3255  006752  D7FC               	bra	u2257
  3256  006754  D000               	nop2	
  3257                           
  3258                           ;main.c: 1033:     PORTCbits.RC6 = 0;
  3259  006756  9C82               	bcf	3970,6,c	;volatile
  3260  006758  0012               	return		;funcret
  3261  00675A                     __end_of_Draw_30:
  3262                           	opt callstack 0
  3263                           
  3264 ;; *************** function _Draw_28 *****************
  3265 ;; Defined at:
  3266 ;;		line 1014 in file "main.c"
  3267 ;; Parameters:    Size  Location     Type
  3268 ;;		None
  3269 ;; Auto vars:     Size  Location     Type
  3270 ;;		None
  3271 ;; Return value:  Size  Location     Type
  3272 ;;                  1    wreg      void 
  3273 ;; Registers used:
  3274 ;;		wreg, status,2
  3275 ;; Tracked objects:
  3276 ;;		On entry : 0/0
  3277 ;;		On exit  : 0/0
  3278 ;;		Unchanged: 0/0
  3279 ;; Data sizes:     COMRAM   BANK0   BANK1   BANK2   BANK3   BANK4   BANK5   BANK6   BANK7
  3280 ;;      Params:         0       0       0       0       0       0       0       0       0
  3281 ;;      Locals:         0       0       0       0       0       0       0       0       0
  3282 ;;      Temps:          1       0       0       0       0       0       0       0       0
  3283 ;;      Totals:         1       0       0       0       0       0       0       0       0
  3284 ;;Total ram usage:        1 bytes
  3285 ;; Hardware stack levels used:    1
  3286 ;; This function calls:
  3287 ;;		Nothing
  3288 ;; This function is called by:
  3289 ;;		_Menu_P3
  3290 ;; This function uses a non-reentrant model
  3291 ;;
  3292                           
  3293                           	psect	text8
  3294  0066F6                     __ptext8:
  3295                           	opt callstack 0
  3296  0066F6                     _Draw_28:
  3297                           	opt callstack 27
  3298                           
  3299                           ;main.c: 1015:     PORTB = 0xA4;
  3300                           
  3301                           ;incstack = 0
  3302  0066F6  0EA4               	movlw	164
  3303  0066F8  6E81               	movwf	3969,c	;volatile
  3304                           
  3305                           ;main.c: 1016:     PORTCbits.RC7 = 1;
  3306  0066FA  8E82               	bsf	3970,7,c	;volatile
  3307                           
  3308                           ;main.c: 1017:     _delay((unsigned long)((1600)*(20000000/4000000.0)));
  3309  0066FC  0E0B               	movlw	11
  3310  0066FE  6E37               	movwf	??_Draw_28& (0+255),c
  3311  006700  0E62               	movlw	98
  3312  006702                     u2267:
  3313  006702  2EE8               	decfsz	wreg,f,c
  3314  006704  D7FE               	bra	u2267
  3315  006706  2E37               	decfsz	??_Draw_28& (0+255),f,c
  3316  006708  D7FC               	bra	u2267
  3317  00670A  D000               	nop2	
  3318                           
  3319                           ;main.c: 1018:     PORTCbits.RC7 = 0;
  3320  00670C  9E82               	bcf	3970,7,c	;volatile
  3321                           
  3322                           ;main.c: 1019:     PORTB = 0x20;
  3323  00670E  0E20               	movlw	32
  3324  006710  6E81               	movwf	3969,c	;volatile
  3325                           
  3326                           ;main.c: 1020:     PORTCbits.RC6 = 1;
  3327  006712  8C82               	bsf	3970,6,c	;volatile
  3328                           
  3329                           ;main.c: 1021:     _delay((unsigned long)((1600)*(20000000/4000000.0)));
  3330  006714  0E0B               	movlw	11
  3331  006716  6E37               	movwf	??_Draw_28& (0+255),c
  3332  006718  0E62               	movlw	98
  3333  00671A                     u2277:
  3334  00671A  2EE8               	decfsz	wreg,f,c
  3335  00671C  D7FE               	bra	u2277
  3336  00671E  2E37               	decfsz	??_Draw_28& (0+255),f,c
  3337  006720  D7FC               	bra	u2277
  3338  006722  D000               	nop2	
  3339                           
  3340                           ;main.c: 1022:     PORTCbits.RC6 = 0;
  3341  006724  9C82               	bcf	3970,6,c	;volatile
  3342  006726  0012               	return		;funcret
  3343  006728                     __end_of_Draw_28:
  3344                           	opt callstack 0
  3345                           
  3346 ;; *************** function _Draw_26 *****************
  3347 ;; Defined at:
  3348 ;;		line 1003 in file "main.c"
  3349 ;; Parameters:    Size  Location     Type
  3350 ;;		None
  3351 ;; Auto vars:     Size  Location     Type
  3352 ;;		None
  3353 ;; Return value:  Size  Location     Type
  3354 ;;                  1    wreg      void 
  3355 ;; Registers used:
  3356 ;;		wreg, status,2
  3357 ;; Tracked objects:
  3358 ;;		On entry : 0/0
  3359 ;;		On exit  : 0/0
  3360 ;;		Unchanged: 0/0
  3361 ;; Data sizes:     COMRAM   BANK0   BANK1   BANK2   BANK3   BANK4   BANK5   BANK6   BANK7
  3362 ;;      Params:         0       0       0       0       0       0       0       0       0
  3363 ;;      Locals:         0       0       0       0       0       0       0       0       0
  3364 ;;      Temps:          1       0       0       0       0       0       0       0       0
  3365 ;;      Totals:         1       0       0       0       0       0       0       0       0
  3366 ;;Total ram usage:        1 bytes
  3367 ;; Hardware stack levels used:    1
  3368 ;; This function calls:
  3369 ;;		Nothing
  3370 ;; This function is called by:
  3371 ;;		_Menu_P3
  3372 ;; This function uses a non-reentrant model
  3373 ;;
  3374                           
  3375                           	psect	text9
  3376  0066C4                     __ptext9:
  3377                           	opt callstack 0
  3378  0066C4                     _Draw_26:
  3379                           	opt callstack 27
  3380                           
  3381                           ;main.c: 1004:     PORTB = 0xA4;
  3382                           
  3383                           ;incstack = 0
  3384  0066C4  0EA4               	movlw	164
  3385  0066C6  6E81               	movwf	3969,c	;volatile
  3386                           
  3387                           ;main.c: 1005:     PORTCbits.RC7 = 1;
  3388  0066C8  8E82               	bsf	3970,7,c	;volatile
  3389                           
  3390                           ;main.c: 1006:     _delay((unsigned long)((1600)*(20000000/4000000.0)));
  3391  0066CA  0E0B               	movlw	11
  3392  0066CC  6E37               	movwf	??_Draw_26& (0+255),c
  3393  0066CE  0E62               	movlw	98
  3394  0066D0                     u2287:
  3395  0066D0  2EE8               	decfsz	wreg,f,c
  3396  0066D2  D7FE               	bra	u2287
  3397  0066D4  2E37               	decfsz	??_Draw_26& (0+255),f,c
  3398  0066D6  D7FC               	bra	u2287
  3399  0066D8  D000               	nop2	
  3400                           
  3401                           ;main.c: 1007:     PORTCbits.RC7 = 0;
  3402  0066DA  9E82               	bcf	3970,7,c	;volatile
  3403                           
  3404                           ;main.c: 1008:     PORTB = 0x22;
  3405  0066DC  0E22               	movlw	34
  3406  0066DE  6E81               	movwf	3969,c	;volatile
  3407                           
  3408                           ;main.c: 1009:     PORTCbits.RC6 = 1;
  3409  0066E0  8C82               	bsf	3970,6,c	;volatile
  3410                           
  3411                           ;main.c: 1010:     _delay((unsigned long)((1600)*(20000000/4000000.0)));
  3412  0066E2  0E0B               	movlw	11
  3413  0066E4  6E37               	movwf	??_Draw_26& (0+255),c
  3414  0066E6  0E62               	movlw	98
  3415  0066E8                     u2297:
  3416  0066E8  2EE8               	decfsz	wreg,f,c
  3417  0066EA  D7FE               	bra	u2297
  3418  0066EC  2E37               	decfsz	??_Draw_26& (0+255),f,c
  3419  0066EE  D7FC               	bra	u2297
  3420  0066F0  D000               	nop2	
  3421                           
  3422                           ;main.c: 1011:     PORTCbits.RC6 = 0;
  3423  0066F2  9C82               	bcf	3970,6,c	;volatile
  3424  0066F4  0012               	return		;funcret
  3425  0066F6                     __end_of_Draw_26:
  3426                           	opt callstack 0
  3427                           
  3428 ;; *************** function _Draw_24 *****************
  3429 ;; Defined at:
  3430 ;;		line 992 in file "main.c"
  3431 ;; Parameters:    Size  Location     Type
  3432 ;;		None
  3433 ;; Auto vars:     Size  Location     Type
  3434 ;;		None
  3435 ;; Return value:  Size  Location     Type
  3436 ;;                  1    wreg      void 
  3437 ;; Registers used:
  3438 ;;		wreg, status,2
  3439 ;; Tracked objects:
  3440 ;;		On entry : 0/0
  3441 ;;		On exit  : 0/0
  3442 ;;		Unchanged: 0/0
  3443 ;; Data sizes:     COMRAM   BANK0   BANK1   BANK2   BANK3   BANK4   BANK5   BANK6   BANK7
  3444 ;;      Params:         0       0       0       0       0       0       0       0       0
  3445 ;;      Locals:         0       0       0       0       0       0       0       0       0
  3446 ;;      Temps:          1       0       0       0       0       0       0       0       0
  3447 ;;      Totals:         1       0       0       0       0       0       0       0       0
  3448 ;;Total ram usage:        1 bytes
  3449 ;; Hardware stack levels used:    1
  3450 ;; This function calls:
  3451 ;;		Nothing
  3452 ;; This function is called by:
  3453 ;;		_Menu_P3
  3454 ;; This function uses a non-reentrant model
  3455 ;;
  3456                           
  3457                           	psect	text10
  3458  006692                     __ptext10:
  3459                           	opt callstack 0
  3460  006692                     _Draw_24:
  3461                           	opt callstack 27
  3462                           
  3463                           ;main.c: 993:     PORTB = 0xA4;
  3464                           
  3465                           ;incstack = 0
  3466  006692  0EA4               	movlw	164
  3467  006694  6E81               	movwf	3969,c	;volatile
  3468                           
  3469                           ;main.c: 994:     PORTCbits.RC7 = 1;
  3470  006696  8E82               	bsf	3970,7,c	;volatile
  3471                           
  3472                           ;main.c: 995:     _delay((unsigned long)((1600)*(20000000/4000000.0)));
  3473  006698  0E0B               	movlw	11
  3474  00669A  6E37               	movwf	??_Draw_24& (0+255),c
  3475  00669C  0E62               	movlw	98
  3476  00669E                     u2307:
  3477  00669E  2EE8               	decfsz	wreg,f,c
  3478  0066A0  D7FE               	bra	u2307
  3479  0066A2  2E37               	decfsz	??_Draw_24& (0+255),f,c
  3480  0066A4  D7FC               	bra	u2307
  3481  0066A6  D000               	nop2	
  3482                           
  3483                           ;main.c: 996:     PORTCbits.RC7 = 0;
  3484  0066A8  9E82               	bcf	3970,7,c	;volatile
  3485                           
  3486                           ;main.c: 997:     PORTB = 0x71;
  3487  0066AA  0E71               	movlw	113
  3488  0066AC  6E81               	movwf	3969,c	;volatile
  3489                           
  3490                           ;main.c: 998:     PORTCbits.RC6 = 1;
  3491  0066AE  8C82               	bsf	3970,6,c	;volatile
  3492                           
  3493                           ;main.c: 999:     _delay((unsigned long)((1600)*(20000000/4000000.0)));
  3494  0066B0  0E0B               	movlw	11
  3495  0066B2  6E37               	movwf	??_Draw_24& (0+255),c
  3496  0066B4  0E62               	movlw	98
  3497  0066B6                     u2317:
  3498  0066B6  2EE8               	decfsz	wreg,f,c
  3499  0066B8  D7FE               	bra	u2317
  3500  0066BA  2E37               	decfsz	??_Draw_24& (0+255),f,c
  3501  0066BC  D7FC               	bra	u2317
  3502  0066BE  D000               	nop2	
  3503                           
  3504                           ;main.c: 1000:     PORTCbits.RC6 = 0;
  3505  0066C0  9C82               	bcf	3970,6,c	;volatile
  3506  0066C2  0012               	return		;funcret
  3507  0066C4                     __end_of_Draw_24:
  3508                           	opt callstack 0
  3509                           
  3510 ;; *************** function _Draw_22 *****************
  3511 ;; Defined at:
  3512 ;;		line 981 in file "main.c"
  3513 ;; Parameters:    Size  Location     Type
  3514 ;;		None
  3515 ;; Auto vars:     Size  Location     Type
  3516 ;;		None
  3517 ;; Return value:  Size  Location     Type
  3518 ;;                  1    wreg      void 
  3519 ;; Registers used:
  3520 ;;		wreg, status,2
  3521 ;; Tracked objects:
  3522 ;;		On entry : 0/0
  3523 ;;		On exit  : 0/0
  3524 ;;		Unchanged: 0/0
  3525 ;; Data sizes:     COMRAM   BANK0   BANK1   BANK2   BANK3   BANK4   BANK5   BANK6   BANK7
  3526 ;;      Params:         0       0       0       0       0       0       0       0       0
  3527 ;;      Locals:         0       0       0       0       0       0       0       0       0
  3528 ;;      Temps:          1       0       0       0       0       0       0       0       0
  3529 ;;      Totals:         1       0       0       0       0       0       0       0       0
  3530 ;;Total ram usage:        1 bytes
  3531 ;; Hardware stack levels used:    1
  3532 ;; This function calls:
  3533 ;;		Nothing
  3534 ;; This function is called by:
  3535 ;;		_Menu_P3
  3536 ;; This function uses a non-reentrant model
  3537 ;;
  3538                           
  3539                           	psect	text11
  3540  006660                     __ptext11:
  3541                           	opt callstack 0
  3542  006660                     _Draw_22:
  3543                           	opt callstack 27
  3544                           
  3545                           ;main.c: 982:     PORTB = 0xA4;
  3546                           
  3547                           ;incstack = 0
  3548  006660  0EA4               	movlw	164
  3549  006662  6E81               	movwf	3969,c	;volatile
  3550                           
  3551                           ;main.c: 983:     PORTCbits.RC7 = 1;
  3552  006664  8E82               	bsf	3970,7,c	;volatile
  3553                           
  3554                           ;main.c: 984:     _delay((unsigned long)((1600)*(20000000/4000000.0)));
  3555  006666  0E0B               	movlw	11
  3556  006668  6E37               	movwf	??_Draw_22& (0+255),c
  3557  00666A  0E62               	movlw	98
  3558  00666C                     u2327:
  3559  00666C  2EE8               	decfsz	wreg,f,c
  3560  00666E  D7FE               	bra	u2327
  3561  006670  2E37               	decfsz	??_Draw_22& (0+255),f,c
  3562  006672  D7FC               	bra	u2327
  3563  006674  D000               	nop2	
  3564                           
  3565                           ;main.c: 985:     PORTCbits.RC7 = 0;
  3566  006676  9E82               	bcf	3970,7,c	;volatile
  3567                           
  3568                           ;main.c: 986:     PORTB = 0xA4;
  3569  006678  0EA4               	movlw	164
  3570  00667A  6E81               	movwf	3969,c	;volatile
  3571                           
  3572                           ;main.c: 987:     PORTCbits.RC6 = 1;
  3573  00667C  8C82               	bsf	3970,6,c	;volatile
  3574                           
  3575                           ;main.c: 988:     _delay((unsigned long)((1600)*(20000000/4000000.0)));
  3576  00667E  0E0B               	movlw	11
  3577  006680  6E37               	movwf	??_Draw_22& (0+255),c
  3578  006682  0E62               	movlw	98
  3579  006684                     u2337:
  3580  006684  2EE8               	decfsz	wreg,f,c
  3581  006686  D7FE               	bra	u2337
  3582  006688  2E37               	decfsz	??_Draw_22& (0+255),f,c
  3583  00668A  D7FC               	bra	u2337
  3584  00668C  D000               	nop2	
  3585                           
  3586                           ;main.c: 989:     PORTCbits.RC6 = 0;
  3587  00668E  9C82               	bcf	3970,6,c	;volatile
  3588  006690  0012               	return		;funcret
  3589  006692                     __end_of_Draw_22:
  3590                           	opt callstack 0
  3591                           
  3592 ;; *************** function _Draw_20 *****************
  3593 ;; Defined at:
  3594 ;;		line 970 in file "main.c"
  3595 ;; Parameters:    Size  Location     Type
  3596 ;;		None
  3597 ;; Auto vars:     Size  Location     Type
  3598 ;;		None
  3599 ;; Return value:  Size  Location     Type
  3600 ;;                  1    wreg      void 
  3601 ;; Registers used:
  3602 ;;		wreg, status,2
  3603 ;; Tracked objects:
  3604 ;;		On entry : 0/0
  3605 ;;		On exit  : 0/0
  3606 ;;		Unchanged: 0/0
  3607 ;; Data sizes:     COMRAM   BANK0   BANK1   BANK2   BANK3   BANK4   BANK5   BANK6   BANK7
  3608 ;;      Params:         0       0       0       0       0       0       0       0       0
  3609 ;;      Locals:         0       0       0       0       0       0       0       0       0
  3610 ;;      Temps:          1       0       0       0       0       0       0       0       0
  3611 ;;      Totals:         1       0       0       0       0       0       0       0       0
  3612 ;;Total ram usage:        1 bytes
  3613 ;; Hardware stack levels used:    1
  3614 ;; This function calls:
  3615 ;;		Nothing
  3616 ;; This function is called by:
  3617 ;;		_Menu_P3
  3618 ;; This function uses a non-reentrant model
  3619 ;;
  3620                           
  3621                           	psect	text12
  3622  00662E                     __ptext12:
  3623                           	opt callstack 0
  3624  00662E                     _Draw_20:
  3625                           	opt callstack 27
  3626                           
  3627                           ;main.c: 971:     PORTB = 0xA4;
  3628                           
  3629                           ;incstack = 0
  3630  00662E  0EA4               	movlw	164
  3631  006630  6E81               	movwf	3969,c	;volatile
  3632                           
  3633                           ;main.c: 972:     PORTCbits.RC7 = 1;
  3634  006632  8E82               	bsf	3970,7,c	;volatile
  3635                           
  3636                           ;main.c: 973:     _delay((unsigned long)((1600)*(20000000/4000000.0)));
  3637  006634  0E0B               	movlw	11
  3638  006636  6E37               	movwf	??_Draw_20& (0+255),c
  3639  006638  0E62               	movlw	98
  3640  00663A                     u2347:
  3641  00663A  2EE8               	decfsz	wreg,f,c
  3642  00663C  D7FE               	bra	u2347
  3643  00663E  2E37               	decfsz	??_Draw_20& (0+255),f,c
  3644  006640  D7FC               	bra	u2347
  3645  006642  D000               	nop2	
  3646                           
  3647                           ;main.c: 974:     PORTCbits.RC7 = 0;
  3648  006644  9E82               	bcf	3970,7,c	;volatile
  3649                           
  3650                           ;main.c: 975:     PORTB = 0x28;
  3651  006646  0E28               	movlw	40
  3652  006648  6E81               	movwf	3969,c	;volatile
  3653                           
  3654                           ;main.c: 976:     PORTCbits.RC6 = 1;
  3655  00664A  8C82               	bsf	3970,6,c	;volatile
  3656                           
  3657                           ;main.c: 977:     _delay((unsigned long)((1600)*(20000000/4000000.0)));
  3658  00664C  0E0B               	movlw	11
  3659  00664E  6E37               	movwf	??_Draw_20& (0+255),c
  3660  006650  0E62               	movlw	98
  3661  006652                     u2357:
  3662  006652  2EE8               	decfsz	wreg,f,c
  3663  006654  D7FE               	bra	u2357
  3664  006656  2E37               	decfsz	??_Draw_20& (0+255),f,c
  3665  006658  D7FC               	bra	u2357
  3666  00665A  D000               	nop2	
  3667                           
  3668                           ;main.c: 978:     PORTCbits.RC6 = 0;
  3669  00665C  9C82               	bcf	3970,6,c	;volatile
  3670  00665E  0012               	return		;funcret
  3671  006660                     __end_of_Draw_20:
  3672                           	opt callstack 0
  3673                           
  3674 ;; *************** function _Draw_18 *****************
  3675 ;; Defined at:
  3676 ;;		line 959 in file "main.c"
  3677 ;; Parameters:    Size  Location     Type
  3678 ;;		None
  3679 ;; Auto vars:     Size  Location     Type
  3680 ;;		None
  3681 ;; Return value:  Size  Location     Type
  3682 ;;                  1    wreg      void 
  3683 ;; Registers used:
  3684 ;;		wreg, status,2
  3685 ;; Tracked objects:
  3686 ;;		On entry : 0/0
  3687 ;;		On exit  : 0/0
  3688 ;;		Unchanged: 0/0
  3689 ;; Data sizes:     COMRAM   BANK0   BANK1   BANK2   BANK3   BANK4   BANK5   BANK6   BANK7
  3690 ;;      Params:         0       0       0       0       0       0       0       0       0
  3691 ;;      Locals:         0       0       0       0       0       0       0       0       0
  3692 ;;      Temps:          1       0       0       0       0       0       0       0       0
  3693 ;;      Totals:         1       0       0       0       0       0       0       0       0
  3694 ;;Total ram usage:        1 bytes
  3695 ;; Hardware stack levels used:    1
  3696 ;; This function calls:
  3697 ;;		Nothing
  3698 ;; This function is called by:
  3699 ;;		_Menu_P3
  3700 ;; This function uses a non-reentrant model
  3701 ;;
  3702                           
  3703                           	psect	text13
  3704  0065FC                     __ptext13:
  3705                           	opt callstack 0
  3706  0065FC                     _Draw_18:
  3707                           	opt callstack 27
  3708                           
  3709                           ;main.c: 960:     PORTB = 0x7D;
  3710                           
  3711                           ;incstack = 0
  3712  0065FC  0E7D               	movlw	125
  3713  0065FE  6E81               	movwf	3969,c	;volatile
  3714                           
  3715                           ;main.c: 961:     PORTCbits.RC7 = 1;
  3716  006600  8E82               	bsf	3970,7,c	;volatile
  3717                           
  3718                           ;main.c: 962:     _delay((unsigned long)((1600)*(20000000/4000000.0)));
  3719  006602  0E0B               	movlw	11
  3720  006604  6E37               	movwf	??_Draw_18& (0+255),c
  3721  006606  0E62               	movlw	98
  3722  006608                     u2367:
  3723  006608  2EE8               	decfsz	wreg,f,c
  3724  00660A  D7FE               	bra	u2367
  3725  00660C  2E37               	decfsz	??_Draw_18& (0+255),f,c
  3726  00660E  D7FC               	bra	u2367
  3727  006610  D000               	nop2	
  3728                           
  3729                           ;main.c: 963:     PORTCbits.RC7 = 0;
  3730  006612  9E82               	bcf	3970,7,c	;volatile
  3731                           
  3732                           ;main.c: 964:     PORTB = 0x20;
  3733  006614  0E20               	movlw	32
  3734  006616  6E81               	movwf	3969,c	;volatile
  3735                           
  3736                           ;main.c: 965:     PORTCbits.RC6 = 1;
  3737  006618  8C82               	bsf	3970,6,c	;volatile
  3738                           
  3739                           ;main.c: 966:     _delay((unsigned long)((1600)*(20000000/4000000.0)));
  3740  00661A  0E0B               	movlw	11
  3741  00661C  6E37               	movwf	??_Draw_18& (0+255),c
  3742  00661E  0E62               	movlw	98
  3743  006620                     u2377:
  3744  006620  2EE8               	decfsz	wreg,f,c
  3745  006622  D7FE               	bra	u2377
  3746  006624  2E37               	decfsz	??_Draw_18& (0+255),f,c
  3747  006626  D7FC               	bra	u2377
  3748  006628  D000               	nop2	
  3749                           
  3750                           ;main.c: 967:     PORTCbits.RC6 = 0;
  3751  00662A  9C82               	bcf	3970,6,c	;volatile
  3752  00662C  0012               	return		;funcret
  3753  00662E                     __end_of_Draw_18:
  3754                           	opt callstack 0
  3755                           
  3756 ;; *************** function _Draw_16 *****************
  3757 ;; Defined at:
  3758 ;;		line 948 in file "main.c"
  3759 ;; Parameters:    Size  Location     Type
  3760 ;;		None
  3761 ;; Auto vars:     Size  Location     Type
  3762 ;;		None
  3763 ;; Return value:  Size  Location     Type
  3764 ;;                  1    wreg      void 
  3765 ;; Registers used:
  3766 ;;		wreg, status,2
  3767 ;; Tracked objects:
  3768 ;;		On entry : 0/0
  3769 ;;		On exit  : 0/0
  3770 ;;		Unchanged: 0/0
  3771 ;; Data sizes:     COMRAM   BANK0   BANK1   BANK2   BANK3   BANK4   BANK5   BANK6   BANK7
  3772 ;;      Params:         0       0       0       0       0       0       0       0       0
  3773 ;;      Locals:         0       0       0       0       0       0       0       0       0
  3774 ;;      Temps:          1       0       0       0       0       0       0       0       0
  3775 ;;      Totals:         1       0       0       0       0       0       0       0       0
  3776 ;;Total ram usage:        1 bytes
  3777 ;; Hardware stack levels used:    1
  3778 ;; This function calls:
  3779 ;;		Nothing
  3780 ;; This function is called by:
  3781 ;;		_Menu_P3
  3782 ;; This function uses a non-reentrant model
  3783 ;;
  3784                           
  3785                           	psect	text14
  3786  0065CA                     __ptext14:
  3787                           	opt callstack 0
  3788  0065CA                     _Draw_16:
  3789                           	opt callstack 27
  3790                           
  3791                           ;main.c: 949:     PORTB = 0x7D;
  3792                           
  3793                           ;incstack = 0
  3794  0065CA  0E7D               	movlw	125
  3795  0065CC  6E81               	movwf	3969,c	;volatile
  3796                           
  3797                           ;main.c: 950:     PORTCbits.RC7 = 1;
  3798  0065CE  8E82               	bsf	3970,7,c	;volatile
  3799                           
  3800                           ;main.c: 951:     _delay((unsigned long)((1600)*(20000000/4000000.0)));
  3801  0065D0  0E0B               	movlw	11
  3802  0065D2  6E37               	movwf	??_Draw_16& (0+255),c
  3803  0065D4  0E62               	movlw	98
  3804  0065D6                     u2387:
  3805  0065D6  2EE8               	decfsz	wreg,f,c
  3806  0065D8  D7FE               	bra	u2387
  3807  0065DA  2E37               	decfsz	??_Draw_16& (0+255),f,c
  3808  0065DC  D7FC               	bra	u2387
  3809  0065DE  D000               	nop2	
  3810                           
  3811                           ;main.c: 952:     PORTCbits.RC7 = 0;
  3812  0065E0  9E82               	bcf	3970,7,c	;volatile
  3813                           
  3814                           ;main.c: 953:     PORTB = 0x22;
  3815  0065E2  0E22               	movlw	34
  3816  0065E4  6E81               	movwf	3969,c	;volatile
  3817                           
  3818                           ;main.c: 954:     PORTCbits.RC6 = 1;
  3819  0065E6  8C82               	bsf	3970,6,c	;volatile
  3820                           
  3821                           ;main.c: 955:     _delay((unsigned long)((1600)*(20000000/4000000.0)));
  3822  0065E8  0E0B               	movlw	11
  3823  0065EA  6E37               	movwf	??_Draw_16& (0+255),c
  3824  0065EC  0E62               	movlw	98
  3825  0065EE                     u2397:
  3826  0065EE  2EE8               	decfsz	wreg,f,c
  3827  0065F0  D7FE               	bra	u2397
  3828  0065F2  2E37               	decfsz	??_Draw_16& (0+255),f,c
  3829  0065F4  D7FC               	bra	u2397
  3830  0065F6  D000               	nop2	
  3831                           
  3832                           ;main.c: 956:     PORTCbits.RC6 = 0;
  3833  0065F8  9C82               	bcf	3970,6,c	;volatile
  3834  0065FA  0012               	return		;funcret
  3835  0065FC                     __end_of_Draw_16:
  3836                           	opt callstack 0
  3837                           
  3838 ;; *************** function _Menu_P2 *****************
  3839 ;; Defined at:
  3840 ;;		line 531 in file "main.c"
  3841 ;; Parameters:    Size  Location     Type
  3842 ;;		None
  3843 ;; Auto vars:     Size  Location     Type
  3844 ;;		None
  3845 ;; Return value:  Size  Location     Type
  3846 ;;                  1    wreg      void 
  3847 ;; Registers used:
  3848 ;;		wreg, status,2, status,0, cstack
  3849 ;; Tracked objects:
  3850 ;;		On entry : 0/0
  3851 ;;		On exit  : 0/0
  3852 ;;		Unchanged: 0/0
  3853 ;; Data sizes:     COMRAM   BANK0   BANK1   BANK2   BANK3   BANK4   BANK5   BANK6   BANK7
  3854 ;;      Params:         0       0       0       0       0       0       0       0       0
  3855 ;;      Locals:         0       0       0       0       0       0       0       0       0
  3856 ;;      Temps:          2       0       0       0       0       0       0       0       0
  3857 ;;      Totals:         2       0       0       0       0       0       0       0       0
  3858 ;;Total ram usage:        2 bytes
  3859 ;; Hardware stack levels used:    1
  3860 ;; Hardware stack levels required when called:    2
  3861 ;; This function calls:
  3862 ;;		_Draw_0
  3863 ;;		_Draw_1
  3864 ;;		_Draw_10
  3865 ;;		_Draw_11
  3866 ;;		_Draw_12
  3867 ;;		_Draw_13
  3868 ;;		_Draw_14
  3869 ;;		_Draw_15
  3870 ;;		_Draw_2
  3871 ;;		_Draw_3
  3872 ;;		_Draw_4
  3873 ;;		_Draw_5
  3874 ;;		_Draw_6
  3875 ;;		_Draw_7
  3876 ;;		_Draw_8
  3877 ;;		_Draw_9
  3878 ;;		_Exit_Time_Menu
  3879 ;;		_Recording
  3880 ;;		_eeprom_writex
  3881 ;; This function is called by:
  3882 ;;		_Menu
  3883 ;; This function uses a non-reentrant model
  3884 ;;
  3885                           
  3886                           	psect	text15
  3887  0070DA                     __ptext15:
  3888                           	opt callstack 0
  3889  0070DA                     _Menu_P2:
  3890                           	opt callstack 26
  3891                           
  3892                           ;main.c: 533:         switch (Count_Push_Button)
  3893                           
  3894                           ;incstack = 0
  3895                           ;main.c: 532:     do {
  3896  0070DA  D035               	goto	l3092
  3897  0070DC                     l3056:
  3898  0070DC  ECCA  F030         	call	_Draw_0	;wreg free
  3899  0070E0  D06C               	goto	l3094
  3900  0070E2                     l3058:
  3901  0070E2  ECE2  F030         	call	_Draw_1	;wreg free
  3902  0070E6  D069               	goto	l3094
  3903  0070E8                     l3060:
  3904  0070E8  EC12  F031         	call	_Draw_2	;wreg free
  3905  0070EC  D066               	goto	l3094
  3906  0070EE                     l3062:
  3907  0070EE  EC2A  F031         	call	_Draw_3	;wreg free
  3908  0070F2  D063               	goto	l3094
  3909  0070F4                     l3064:
  3910  0070F4  EC42  F031         	call	_Draw_4	;wreg free
  3911  0070F8  D060               	goto	l3094
  3912  0070FA                     l3066:
  3913  0070FA  EC5A  F031         	call	_Draw_5	;wreg free
  3914  0070FE  D05D               	goto	l3094
  3915  007100                     l3068:
  3916  007100  EC72  F031         	call	_Draw_6	;wreg free
  3917  007104  D05A               	goto	l3094
  3918  007106                     l3070:
  3919  007106  EC8A  F031         	call	_Draw_7	;wreg free
  3920  00710A  D057               	goto	l3094
  3921  00710C                     l3072:
  3922  00710C  ECA2  F031         	call	_Draw_8	;wreg free
  3923  007110  D054               	goto	l3094
  3924  007112                     l3074:
  3925  007112  ECBA  F031         	call	_Draw_9	;wreg free
  3926  007116  D051               	goto	l3094
  3927  007118                     l3076:
  3928  007118  EC4F  F032         	call	_Draw_10	;wreg free
  3929  00711C  D04E               	goto	l3094
  3930  00711E                     l3078:
  3931  00711E  EC68  F032         	call	_Draw_11	;wreg free
  3932  007122  D04B               	goto	l3094
  3933  007124                     l3080:
  3934  007124  EC81  F032         	call	_Draw_12	;wreg free
  3935  007128  D048               	goto	l3094
  3936  00712A                     l3082:
  3937  00712A  EC9A  F032         	call	_Draw_13	;wreg free
  3938  00712E  D045               	goto	l3094
  3939  007130                     l3084:
  3940  007130  ECB3  F032         	call	_Draw_14	;wreg free
  3941  007134  D042               	goto	l3094
  3942  007136                     l3086:
  3943  007136  ECCC  F032         	call	_Draw_15	;wreg free
  3944  00713A  D03F               	goto	l3094
  3945  00713C                     l3088:
  3946  00713C  0E00               	movlw	0
  3947  00713E  6E28               	movwf	_Count_Push_Button+1,c
  3948  007140  0E00               	movlw	0
  3949  007142  6E27               	movwf	_Count_Push_Button,c
  3950  007144  D03A               	goto	l3094
  3951  007146                     l3092:
  3952  007146  C027  F03A         	movff	_Count_Push_Button,??_Menu_P2
  3953  00714A  C028  F03B         	movff	_Count_Push_Button+1,??_Menu_P2+1
  3954                           
  3955                           ; Switch on 2 bytes has been partitioned into a top level switch of size 1, and 1 sub-sw
      +                          itches
  3956                           ; Switch size 1, requested type "simple"
  3957                           ; Number of cases is 1, Range of values is 0 to 0
  3958                           ; switch strategies available:
  3959                           ; Name         Instructions Cycles
  3960                           ; simple_byte            4     3 (average)
  3961                           ;	Chosen strategy is simple_byte
  3962  00714E  503B               	movf	??_Menu_P2+1,w,c
  3963  007150  0A00               	xorlw	0	; case 0
  3964  007152  A4D8               	btfss	status,2,c
  3965  007154  D7F3               	goto	l3088
  3966                           
  3967                           ; Switch size 1, requested type "simple"
  3968                           ; Number of cases is 16, Range of values is 0 to 15
  3969                           ; switch strategies available:
  3970                           ; Name         Instructions Cycles
  3971                           ; simple_byte           49    25 (average)
  3972                           ;	Chosen strategy is simple_byte
  3973  007156  503A               	movf	??_Menu_P2,w,c
  3974  007158  0A00               	xorlw	0	; case 0
  3975  00715A  B4D8               	btfsc	status,2,c
  3976  00715C  D7BF               	goto	l3056
  3977  00715E  0A01               	xorlw	1	; case 1
  3978  007160  B4D8               	btfsc	status,2,c
  3979  007162  D7BF               	goto	l3058
  3980  007164  0A03               	xorlw	3	; case 2
  3981  007166  B4D8               	btfsc	status,2,c
  3982  007168  D7BF               	goto	l3060
  3983  00716A  0A01               	xorlw	1	; case 3
  3984  00716C  B4D8               	btfsc	status,2,c
  3985  00716E  D7BF               	goto	l3062
  3986  007170  0A07               	xorlw	7	; case 4
  3987  007172  B4D8               	btfsc	status,2,c
  3988  007174  D7BF               	goto	l3064
  3989  007176  0A01               	xorlw	1	; case 5
  3990  007178  B4D8               	btfsc	status,2,c
  3991  00717A  D7BF               	goto	l3066
  3992  00717C  0A03               	xorlw	3	; case 6
  3993  00717E  B4D8               	btfsc	status,2,c
  3994  007180  D7BF               	goto	l3068
  3995  007182  0A01               	xorlw	1	; case 7
  3996  007184  B4D8               	btfsc	status,2,c
  3997  007186  D7BF               	goto	l3070
  3998  007188  0A0F               	xorlw	15	; case 8
  3999  00718A  B4D8               	btfsc	status,2,c
  4000  00718C  D7BF               	goto	l3072
  4001  00718E  0A01               	xorlw	1	; case 9
  4002  007190  B4D8               	btfsc	status,2,c
  4003  007192  D7BF               	goto	l3074
  4004  007194  0A03               	xorlw	3	; case 10
  4005  007196  B4D8               	btfsc	status,2,c
  4006  007198  D7BF               	goto	l3076
  4007  00719A  0A01               	xorlw	1	; case 11
  4008  00719C  B4D8               	btfsc	status,2,c
  4009  00719E  D7BF               	goto	l3078
  4010  0071A0  0A07               	xorlw	7	; case 12
  4011  0071A2  B4D8               	btfsc	status,2,c
  4012  0071A4  D7BF               	goto	l3080
  4013  0071A6  0A01               	xorlw	1	; case 13
  4014  0071A8  B4D8               	btfsc	status,2,c
  4015  0071AA  D7BF               	goto	l3082
  4016  0071AC  0A03               	xorlw	3	; case 14
  4017  0071AE  B4D8               	btfsc	status,2,c
  4018  0071B0  D7BF               	goto	l3084
  4019  0071B2  0A01               	xorlw	1	; case 15
  4020  0071B4  B4D8               	btfsc	status,2,c
  4021  0071B6  D7BF               	goto	l3086
  4022  0071B8  D7C1               	goto	l3088
  4023  0071BA                     l3094:
  4024                           
  4025                           ;main.c: 554:         Button_Menu_Down_State = PORTAbits.RA2;
  4026  0071BA  A480               	btfss	3968,2,c	;volatile
  4027  0071BC  D002               	goto	u1100
  4028  0071BE  0E01               	movlw	1
  4029  0071C0  D001               	goto	u1106
  4030  0071C2                     u1100:
  4031  0071C2  0E00               	movlw	0
  4032  0071C4                     u1106:
  4033  0071C4  6E32               	movwf	_Button_Menu_Down_State,c
  4034                           
  4035                           ;main.c: 555:         if (Button_Menu_Down_State == 0 && Last_Button_Menu_Down_State == 
      +                          1) {
  4036  0071C6  5032               	movf	_Button_Menu_Down_State,w,c
  4037  0071C8  A4D8               	btfss	status,2,c
  4038  0071CA  D00D               	goto	l3102
  4039  0071CC  0453               	decf	_Last_Button_Menu_Down_State,w,c
  4040  0071CE  A4D8               	btfss	status,2,c
  4041  0071D0  D00A               	goto	l3102
  4042                           
  4043                           ;main.c: 556:             Count_Push_Button++;
  4044  0071D2  4A27               	infsnz	_Count_Push_Button,f,c
  4045  0071D4  2A28               	incf	_Count_Push_Button+1,f,c
  4046                           
  4047                           ;main.c: 557:             Count_Exit_Menu = 0;
  4048  0071D6  0E00               	movlw	0
  4049  0071D8  6E11               	movwf	_Count_Exit_Menu,c
  4050  0071DA  0E00               	movlw	0
  4051  0071DC  6E12               	movwf	_Count_Exit_Menu+1,c
  4052  0071DE  0E00               	movlw	0
  4053  0071E0  6E13               	movwf	_Count_Exit_Menu+2,c
  4054  0071E2  0E00               	movlw	0
  4055  0071E4  6E14               	movwf	_Count_Exit_Menu+3,c
  4056  0071E6                     l3102:
  4057                           
  4058                           ;main.c: 559:         Last_Button_Menu_Down_State = Button_Menu_Down_State;
  4059  0071E6  C032  F053         	movff	_Button_Menu_Down_State,_Last_Button_Menu_Down_State
  4060                           
  4061                           ;main.c: 562:         Button_Menu_Up_State = PORTAbits.RA1;
  4062  0071EA  A280               	btfss	3968,1,c	;volatile
  4063  0071EC  D002               	goto	u1130
  4064  0071EE  0E01               	movlw	1
  4065  0071F0  D001               	goto	u1136
  4066  0071F2                     u1130:
  4067  0071F2  0E00               	movlw	0
  4068  0071F4                     u1136:
  4069  0071F4  6E33               	movwf	_Button_Menu_Up_State,c
  4070                           
  4071                           ;main.c: 563:         Count_Exit_Menu = 0;
  4072  0071F6  0E00               	movlw	0
  4073  0071F8  6E11               	movwf	_Count_Exit_Menu,c
  4074  0071FA  0E00               	movlw	0
  4075  0071FC  6E12               	movwf	_Count_Exit_Menu+1,c
  4076  0071FE  0E00               	movlw	0
  4077  007200  6E13               	movwf	_Count_Exit_Menu+2,c
  4078  007202  0E00               	movlw	0
  4079  007204  6E14               	movwf	_Count_Exit_Menu+3,c
  4080                           
  4081                           ;main.c: 564:         if (Button_Menu_Up_State == 0 && Last_Button_Menu_Up_State == 1) {
  4082  007206  5033               	movf	_Button_Menu_Up_State,w,c
  4083  007208  A4D8               	btfss	status,2,c
  4084  00720A  D0D5               	goto	l357
  4085  00720C  0454               	decf	_Last_Button_Menu_Up_State,w,c
  4086  00720E  B4D8               	btfsc	status,2,c
  4087  007210  D098               	goto	l3182
  4088  007212  D0D1               	goto	l357
  4089  007214                     l3114:
  4090  007214  0E00               	movlw	0
  4091  007216  6E38               	movwf	eeprom_writex@address+1,c
  4092  007218  0E02               	movlw	2
  4093  00721A  6E37               	movwf	eeprom_writex@address,c
  4094  00721C  0E00               	movlw	0
  4095  00721E  6E39               	movwf	eeprom_writex@data,c
  4096  007220  EC7E  F030         	call	_eeprom_writex	;wreg free
  4097  007224                     l3116:
  4098  007224  EC8D  F034         	call	_Recording	;wreg free
  4099  007228  D0C6               	goto	l357
  4100  00722A                     l3118:
  4101  00722A  0E00               	movlw	0
  4102  00722C  6E38               	movwf	eeprom_writex@address+1,c
  4103  00722E  0E02               	movlw	2
  4104  007230  6E37               	movwf	eeprom_writex@address,c
  4105  007232  0E01               	movlw	1
  4106  007234  6E39               	movwf	eeprom_writex@data,c
  4107  007236  EC7E  F030         	call	_eeprom_writex	;wreg free
  4108  00723A  D7F4               	goto	l3116
  4109  00723C                     l3122:
  4110  00723C  0E00               	movlw	0
  4111  00723E  6E38               	movwf	eeprom_writex@address+1,c
  4112  007240  0E02               	movlw	2
  4113  007242  6E37               	movwf	eeprom_writex@address,c
  4114  007244  0E02               	movlw	2
  4115  007246  6E39               	movwf	eeprom_writex@data,c
  4116  007248  EC7E  F030         	call	_eeprom_writex	;wreg free
  4117  00724C  D7EB               	goto	l3116
  4118  00724E                     l3126:
  4119  00724E  0E00               	movlw	0
  4120  007250  6E38               	movwf	eeprom_writex@address+1,c
  4121  007252  0E02               	movlw	2
  4122  007254  6E37               	movwf	eeprom_writex@address,c
  4123  007256  0E03               	movlw	3
  4124  007258  6E39               	movwf	eeprom_writex@data,c
  4125  00725A  EC7E  F030         	call	_eeprom_writex	;wreg free
  4126  00725E  D7E2               	goto	l3116
  4127  007260                     l3130:
  4128  007260  0E00               	movlw	0
  4129  007262  6E38               	movwf	eeprom_writex@address+1,c
  4130  007264  0E02               	movlw	2
  4131  007266  6E37               	movwf	eeprom_writex@address,c
  4132  007268  0E04               	movlw	4
  4133  00726A  6E39               	movwf	eeprom_writex@data,c
  4134  00726C  EC7E  F030         	call	_eeprom_writex	;wreg free
  4135  007270  D7D9               	goto	l3116
  4136  007272                     l3134:
  4137  007272  0E00               	movlw	0
  4138  007274  6E38               	movwf	eeprom_writex@address+1,c
  4139  007276  0E02               	movlw	2
  4140  007278  6E37               	movwf	eeprom_writex@address,c
  4141  00727A  0E05               	movlw	5
  4142  00727C  6E39               	movwf	eeprom_writex@data,c
  4143  00727E  EC7E  F030         	call	_eeprom_writex	;wreg free
  4144  007282  D7D0               	goto	l3116
  4145  007284                     l3138:
  4146  007284  0E00               	movlw	0
  4147  007286  6E38               	movwf	eeprom_writex@address+1,c
  4148  007288  0E02               	movlw	2
  4149  00728A  6E37               	movwf	eeprom_writex@address,c
  4150  00728C  0E06               	movlw	6
  4151  00728E  6E39               	movwf	eeprom_writex@data,c
  4152  007290  EC7E  F030         	call	_eeprom_writex	;wreg free
  4153  007294  D7C7               	goto	l3116
  4154  007296                     l3142:
  4155  007296  0E00               	movlw	0
  4156  007298  6E38               	movwf	eeprom_writex@address+1,c
  4157  00729A  0E02               	movlw	2
  4158  00729C  6E37               	movwf	eeprom_writex@address,c
  4159  00729E  0E07               	movlw	7
  4160  0072A0  6E39               	movwf	eeprom_writex@data,c
  4161  0072A2  EC7E  F030         	call	_eeprom_writex	;wreg free
  4162  0072A6  D7BE               	goto	l3116
  4163  0072A8                     l3146:
  4164  0072A8  0E00               	movlw	0
  4165  0072AA  6E38               	movwf	eeprom_writex@address+1,c
  4166  0072AC  0E02               	movlw	2
  4167  0072AE  6E37               	movwf	eeprom_writex@address,c
  4168  0072B0  0E08               	movlw	8
  4169  0072B2  6E39               	movwf	eeprom_writex@data,c
  4170  0072B4  EC7E  F030         	call	_eeprom_writex	;wreg free
  4171  0072B8  D7B5               	goto	l3116
  4172  0072BA                     l3150:
  4173  0072BA  0E00               	movlw	0
  4174  0072BC  6E38               	movwf	eeprom_writex@address+1,c
  4175  0072BE  0E02               	movlw	2
  4176  0072C0  6E37               	movwf	eeprom_writex@address,c
  4177  0072C2  0E09               	movlw	9
  4178  0072C4  6E39               	movwf	eeprom_writex@data,c
  4179  0072C6  EC7E  F030         	call	_eeprom_writex	;wreg free
  4180  0072CA  D7AC               	goto	l3116
  4181  0072CC                     l3154:
  4182  0072CC  0E00               	movlw	0
  4183  0072CE  6E38               	movwf	eeprom_writex@address+1,c
  4184  0072D0  0E02               	movlw	2
  4185  0072D2  6E37               	movwf	eeprom_writex@address,c
  4186  0072D4  0E0A               	movlw	10
  4187  0072D6  6E39               	movwf	eeprom_writex@data,c
  4188  0072D8  EC7E  F030         	call	_eeprom_writex	;wreg free
  4189  0072DC  D7A3               	goto	l3116
  4190  0072DE                     l3158:
  4191  0072DE  0E00               	movlw	0
  4192  0072E0  6E38               	movwf	eeprom_writex@address+1,c
  4193  0072E2  0E02               	movlw	2
  4194  0072E4  6E37               	movwf	eeprom_writex@address,c
  4195  0072E6  0E0B               	movlw	11
  4196  0072E8  6E39               	movwf	eeprom_writex@data,c
  4197  0072EA  EC7E  F030         	call	_eeprom_writex	;wreg free
  4198  0072EE  D79A               	goto	l3116
  4199  0072F0                     l3162:
  4200  0072F0  0E00               	movlw	0
  4201  0072F2  6E38               	movwf	eeprom_writex@address+1,c
  4202  0072F4  0E02               	movlw	2
  4203  0072F6  6E37               	movwf	eeprom_writex@address,c
  4204  0072F8  0E0C               	movlw	12
  4205  0072FA  6E39               	movwf	eeprom_writex@data,c
  4206  0072FC  EC7E  F030         	call	_eeprom_writex	;wreg free
  4207  007300  D791               	goto	l3116
  4208  007302                     l3166:
  4209  007302  0E00               	movlw	0
  4210  007304  6E38               	movwf	eeprom_writex@address+1,c
  4211  007306  0E02               	movlw	2
  4212  007308  6E37               	movwf	eeprom_writex@address,c
  4213  00730A  0E0D               	movlw	13
  4214  00730C  6E39               	movwf	eeprom_writex@data,c
  4215  00730E  EC7E  F030         	call	_eeprom_writex	;wreg free
  4216  007312  D788               	goto	l3116
  4217  007314                     l3170:
  4218  007314  0E00               	movlw	0
  4219  007316  6E38               	movwf	eeprom_writex@address+1,c
  4220  007318  0E02               	movlw	2
  4221  00731A  6E37               	movwf	eeprom_writex@address,c
  4222  00731C  0E0E               	movlw	14
  4223  00731E  6E39               	movwf	eeprom_writex@data,c
  4224  007320  EC7E  F030         	call	_eeprom_writex	;wreg free
  4225  007324  D77F               	goto	l3116
  4226  007326                     l3174:
  4227  007326  0E00               	movlw	0
  4228  007328  6E38               	movwf	eeprom_writex@address+1,c
  4229  00732A  0E02               	movlw	2
  4230  00732C  6E37               	movwf	eeprom_writex@address,c
  4231  00732E  0E0F               	movlw	15
  4232  007330  6E39               	movwf	eeprom_writex@data,c
  4233  007332  EC7E  F030         	call	_eeprom_writex	;wreg free
  4234  007336  D776               	goto	l3116
  4235  007338                     l3178:
  4236  007338  0E00               	movlw	0
  4237  00733A  6E28               	movwf	_Count_Push_Button+1,c
  4238  00733C  0E00               	movlw	0
  4239  00733E  6E27               	movwf	_Count_Push_Button,c
  4240  007340  D03A               	goto	l357
  4241  007342                     l3182:
  4242  007342  C027  F03A         	movff	_Count_Push_Button,??_Menu_P2
  4243  007346  C028  F03B         	movff	_Count_Push_Button+1,??_Menu_P2+1
  4244                           
  4245                           ; Switch on 2 bytes has been partitioned into a top level switch of size 1, and 1 sub-sw
      +                          itches
  4246                           ; Switch size 1, requested type "simple"
  4247                           ; Number of cases is 1, Range of values is 0 to 0
  4248                           ; switch strategies available:
  4249                           ; Name         Instructions Cycles
  4250                           ; simple_byte            4     3 (average)
  4251                           ;	Chosen strategy is simple_byte
  4252  00734A  503B               	movf	??_Menu_P2+1,w,c
  4253  00734C  0A00               	xorlw	0	; case 0
  4254  00734E  A4D8               	btfss	status,2,c
  4255  007350  D7F3               	goto	l3178
  4256                           
  4257                           ; Switch size 1, requested type "simple"
  4258                           ; Number of cases is 16, Range of values is 0 to 15
  4259                           ; switch strategies available:
  4260                           ; Name         Instructions Cycles
  4261                           ; simple_byte           49    25 (average)
  4262                           ;	Chosen strategy is simple_byte
  4263  007352  503A               	movf	??_Menu_P2,w,c
  4264  007354  0A00               	xorlw	0	; case 0
  4265  007356  B4D8               	btfsc	status,2,c
  4266  007358  D75D               	goto	l3114
  4267  00735A  0A01               	xorlw	1	; case 1
  4268  00735C  B4D8               	btfsc	status,2,c
  4269  00735E  D765               	goto	l3118
  4270  007360  0A03               	xorlw	3	; case 2
  4271  007362  B4D8               	btfsc	status,2,c
  4272  007364  D76B               	goto	l3122
  4273  007366  0A01               	xorlw	1	; case 3
  4274  007368  B4D8               	btfsc	status,2,c
  4275  00736A  D771               	goto	l3126
  4276  00736C  0A07               	xorlw	7	; case 4
  4277  00736E  B4D8               	btfsc	status,2,c
  4278  007370  D777               	goto	l3130
  4279  007372  0A01               	xorlw	1	; case 5
  4280  007374  B4D8               	btfsc	status,2,c
  4281  007376  D77D               	goto	l3134
  4282  007378  0A03               	xorlw	3	; case 6
  4283  00737A  B4D8               	btfsc	status,2,c
  4284  00737C  D783               	goto	l3138
  4285  00737E  0A01               	xorlw	1	; case 7
  4286  007380  B4D8               	btfsc	status,2,c
  4287  007382  D789               	goto	l3142
  4288  007384  0A0F               	xorlw	15	; case 8
  4289  007386  B4D8               	btfsc	status,2,c
  4290  007388  D78F               	goto	l3146
  4291  00738A  0A01               	xorlw	1	; case 9
  4292  00738C  B4D8               	btfsc	status,2,c
  4293  00738E  D795               	goto	l3150
  4294  007390  0A03               	xorlw	3	; case 10
  4295  007392  B4D8               	btfsc	status,2,c
  4296  007394  D79B               	goto	l3154
  4297  007396  0A01               	xorlw	1	; case 11
  4298  007398  B4D8               	btfsc	status,2,c
  4299  00739A  D7A1               	goto	l3158
  4300  00739C  0A07               	xorlw	7	; case 12
  4301  00739E  B4D8               	btfsc	status,2,c
  4302  0073A0  D7A7               	goto	l3162
  4303  0073A2  0A01               	xorlw	1	; case 13
  4304  0073A4  B4D8               	btfsc	status,2,c
  4305  0073A6  D7AD               	goto	l3166
  4306  0073A8  0A03               	xorlw	3	; case 14
  4307  0073AA  B4D8               	btfsc	status,2,c
  4308  0073AC  D7B3               	goto	l3170
  4309  0073AE  0A01               	xorlw	1	; case 15
  4310  0073B0  B4D8               	btfsc	status,2,c
  4311  0073B2  D7B9               	goto	l3174
  4312  0073B4  D7C1               	goto	l3178
  4313  0073B6                     l357:
  4314                           
  4315                           ;main.c: 586:         Last_Button_Menu_Up_State = Button_Menu_Up_State;
  4316  0073B6  C033  F054         	movff	_Button_Menu_Up_State,_Last_Button_Menu_Up_State
  4317                           
  4318                           ;main.c: 587:         Exit_Time_Menu();
  4319  0073BA  ECAD  F033         	call	_Exit_Time_Menu	;wreg free
  4320                           
  4321                           ;main.c: 588:     } while (Flag_Menu == 1);
  4322  0073BE  042F               	decf	_Flag_Menu,w,c
  4323  0073C0  A4D8               	btfss	status,2,c
  4324  0073C2  0012               	return	
  4325  0073C4  D6C0               	goto	l3092
  4326  0073C6                     __end_of_Menu_P2:
  4327                           	opt callstack 0
  4328                           
  4329 ;; *************** function _Draw_9 *****************
  4330 ;; Defined at:
  4331 ;;		line 871 in file "main.c"
  4332 ;; Parameters:    Size  Location     Type
  4333 ;;		None
  4334 ;; Auto vars:     Size  Location     Type
  4335 ;;		None
  4336 ;; Return value:  Size  Location     Type
  4337 ;;                  1    wreg      void 
  4338 ;; Registers used:
  4339 ;;		wreg, status,2
  4340 ;; Tracked objects:
  4341 ;;		On entry : 0/0
  4342 ;;		On exit  : 0/0
  4343 ;;		Unchanged: 0/0
  4344 ;; Data sizes:     COMRAM   BANK0   BANK1   BANK2   BANK3   BANK4   BANK5   BANK6   BANK7
  4345 ;;      Params:         0       0       0       0       0       0       0       0       0
  4346 ;;      Locals:         0       0       0       0       0       0       0       0       0
  4347 ;;      Temps:          1       0       0       0       0       0       0       0       0
  4348 ;;      Totals:         1       0       0       0       0       0       0       0       0
  4349 ;;Total ram usage:        1 bytes
  4350 ;; Hardware stack levels used:    1
  4351 ;; This function calls:
  4352 ;;		Nothing
  4353 ;; This function is called by:
  4354 ;;		_Menu_P2
  4355 ;;		_Menu_P4
  4356 ;; This function uses a non-reentrant model
  4357 ;;
  4358                           
  4359                           	psect	text16
  4360  006374                     __ptext16:
  4361                           	opt callstack 0
  4362  006374                     _Draw_9:
  4363                           	opt callstack 27
  4364                           
  4365                           ;main.c: 872:     PORTB = 0xFF;
  4366                           
  4367                           ;incstack = 0
  4368  006374  6881               	setf	3969,c	;volatile
  4369                           
  4370                           ;main.c: 873:     PORTCbits.RC7 = 0;
  4371  006376  9E82               	bcf	3970,7,c	;volatile
  4372                           
  4373                           ;main.c: 874:     _delay((unsigned long)((1600)*(20000000/4000000.0)));
  4374  006378  0E0B               	movlw	11
  4375  00637A  6E37               	movwf	??_Draw_9& (0+255),c
  4376  00637C  0E62               	movlw	98
  4377  00637E                     u2407:
  4378  00637E  2EE8               	decfsz	wreg,f,c
  4379  006380  D7FE               	bra	u2407
  4380  006382  2E37               	decfsz	??_Draw_9& (0+255),f,c
  4381  006384  D7FC               	bra	u2407
  4382  006386  D000               	nop2	
  4383                           
  4384                           ;main.c: 875:     PORTCbits.RC7 = 0;
  4385  006388  9E82               	bcf	3970,7,c	;volatile
  4386                           
  4387                           ;main.c: 876:     PORTB = 0x60;
  4388  00638A  0E60               	movlw	96
  4389  00638C  6E81               	movwf	3969,c	;volatile
  4390                           
  4391                           ;main.c: 877:     PORTCbits.RC6 = 1;
  4392  00638E  8C82               	bsf	3970,6,c	;volatile
  4393                           
  4394                           ;main.c: 878:     _delay((unsigned long)((1600)*(20000000/4000000.0)));
  4395  006390  0E0B               	movlw	11
  4396  006392  6E37               	movwf	??_Draw_9& (0+255),c
  4397  006394  0E62               	movlw	98
  4398  006396                     u2417:
  4399  006396  2EE8               	decfsz	wreg,f,c
  4400  006398  D7FE               	bra	u2417
  4401  00639A  2E37               	decfsz	??_Draw_9& (0+255),f,c
  4402  00639C  D7FC               	bra	u2417
  4403  00639E  D000               	nop2	
  4404                           
  4405                           ;main.c: 879:     PORTCbits.RC6 = 0;
  4406  0063A0  9C82               	bcf	3970,6,c	;volatile
  4407  0063A2  0012               	return		;funcret
  4408  0063A4                     __end_of_Draw_9:
  4409                           	opt callstack 0
  4410                           
  4411 ;; *************** function _Draw_8 *****************
  4412 ;; Defined at:
  4413 ;;		line 860 in file "main.c"
  4414 ;; Parameters:    Size  Location     Type
  4415 ;;		None
  4416 ;; Auto vars:     Size  Location     Type
  4417 ;;		None
  4418 ;; Return value:  Size  Location     Type
  4419 ;;                  1    wreg      void 
  4420 ;; Registers used:
  4421 ;;		wreg, status,2
  4422 ;; Tracked objects:
  4423 ;;		On entry : 0/0
  4424 ;;		On exit  : 0/0
  4425 ;;		Unchanged: 0/0
  4426 ;; Data sizes:     COMRAM   BANK0   BANK1   BANK2   BANK3   BANK4   BANK5   BANK6   BANK7
  4427 ;;      Params:         0       0       0       0       0       0       0       0       0
  4428 ;;      Locals:         0       0       0       0       0       0       0       0       0
  4429 ;;      Temps:          1       0       0       0       0       0       0       0       0
  4430 ;;      Totals:         1       0       0       0       0       0       0       0       0
  4431 ;;Total ram usage:        1 bytes
  4432 ;; Hardware stack levels used:    1
  4433 ;; This function calls:
  4434 ;;		Nothing
  4435 ;; This function is called by:
  4436 ;;		_Menu_P2
  4437 ;;		_Menu_P3
  4438 ;;		_Menu_P4
  4439 ;; This function uses a non-reentrant model
  4440 ;;
  4441                           
  4442                           	psect	text17
  4443  006344                     __ptext17:
  4444                           	opt callstack 0
  4445  006344                     _Draw_8:
  4446                           	opt callstack 27
  4447                           
  4448                           ;main.c: 861:     PORTB = 0xFF;
  4449                           
  4450                           ;incstack = 0
  4451  006344  6881               	setf	3969,c	;volatile
  4452                           
  4453                           ;main.c: 862:     PORTCbits.RC7 = 0;
  4454  006346  9E82               	bcf	3970,7,c	;volatile
  4455                           
  4456                           ;main.c: 863:     _delay((unsigned long)((1600)*(20000000/4000000.0)));
  4457  006348  0E0B               	movlw	11
  4458  00634A  6E37               	movwf	??_Draw_8& (0+255),c
  4459  00634C  0E62               	movlw	98
  4460  00634E                     u2427:
  4461  00634E  2EE8               	decfsz	wreg,f,c
  4462  006350  D7FE               	bra	u2427
  4463  006352  2E37               	decfsz	??_Draw_8& (0+255),f,c
  4464  006354  D7FC               	bra	u2427
  4465  006356  D000               	nop2	
  4466                           
  4467                           ;main.c: 864:     PORTCbits.RC7 = 0;
  4468  006358  9E82               	bcf	3970,7,c	;volatile
  4469                           
  4470                           ;main.c: 865:     PORTB = 0x20;
  4471  00635A  0E20               	movlw	32
  4472  00635C  6E81               	movwf	3969,c	;volatile
  4473                           
  4474                           ;main.c: 866:     PORTCbits.RC6 = 1;
  4475  00635E  8C82               	bsf	3970,6,c	;volatile
  4476                           
  4477                           ;main.c: 867:     _delay((unsigned long)((1600)*(20000000/4000000.0)));
  4478  006360  0E0B               	movlw	11
  4479  006362  6E37               	movwf	??_Draw_8& (0+255),c
  4480  006364  0E62               	movlw	98
  4481  006366                     u2437:
  4482  006366  2EE8               	decfsz	wreg,f,c
  4483  006368  D7FE               	bra	u2437
  4484  00636A  2E37               	decfsz	??_Draw_8& (0+255),f,c
  4485  00636C  D7FC               	bra	u2437
  4486  00636E  D000               	nop2	
  4487                           
  4488                           ;main.c: 868:     PORTCbits.RC6 = 0;
  4489  006370  9C82               	bcf	3970,6,c	;volatile
  4490  006372  0012               	return		;funcret
  4491  006374                     __end_of_Draw_8:
  4492                           	opt callstack 0
  4493                           
  4494 ;; *************** function _Draw_7 *****************
  4495 ;; Defined at:
  4496 ;;		line 849 in file "main.c"
  4497 ;; Parameters:    Size  Location     Type
  4498 ;;		None
  4499 ;; Auto vars:     Size  Location     Type
  4500 ;;		None
  4501 ;; Return value:  Size  Location     Type
  4502 ;;                  1    wreg      void 
  4503 ;; Registers used:
  4504 ;;		wreg, status,2
  4505 ;; Tracked objects:
  4506 ;;		On entry : 0/0
  4507 ;;		On exit  : 0/0
  4508 ;;		Unchanged: 0/0
  4509 ;; Data sizes:     COMRAM   BANK0   BANK1   BANK2   BANK3   BANK4   BANK5   BANK6   BANK7
  4510 ;;      Params:         0       0       0       0       0       0       0       0       0
  4511 ;;      Locals:         0       0       0       0       0       0       0       0       0
  4512 ;;      Temps:          1       0       0       0       0       0       0       0       0
  4513 ;;      Totals:         1       0       0       0       0       0       0       0       0
  4514 ;;Total ram usage:        1 bytes
  4515 ;; Hardware stack levels used:    1
  4516 ;; This function calls:
  4517 ;;		Nothing
  4518 ;; This function is called by:
  4519 ;;		_Menu_P2
  4520 ;;		_Menu_P4
  4521 ;; This function uses a non-reentrant model
  4522 ;;
  4523                           
  4524                           	psect	text18
  4525  006314                     __ptext18:
  4526                           	opt callstack 0
  4527  006314                     _Draw_7:
  4528                           	opt callstack 27
  4529                           
  4530                           ;main.c: 850:     PORTB = 0xFF;
  4531                           
  4532                           ;incstack = 0
  4533  006314  6881               	setf	3969,c	;volatile
  4534                           
  4535                           ;main.c: 851:     PORTCbits.RC7 = 0;
  4536  006316  9E82               	bcf	3970,7,c	;volatile
  4537                           
  4538                           ;main.c: 852:     _delay((unsigned long)((1600)*(20000000/4000000.0)));
  4539  006318  0E0B               	movlw	11
  4540  00631A  6E37               	movwf	??_Draw_7& (0+255),c
  4541  00631C  0E62               	movlw	98
  4542  00631E                     u2447:
  4543  00631E  2EE8               	decfsz	wreg,f,c
  4544  006320  D7FE               	bra	u2447
  4545  006322  2E37               	decfsz	??_Draw_7& (0+255),f,c
  4546  006324  D7FC               	bra	u2447
  4547  006326  D000               	nop2	
  4548                           
  4549                           ;main.c: 853:     PORTCbits.RC7 = 0;
  4550  006328  9E82               	bcf	3970,7,c	;volatile
  4551                           
  4552                           ;main.c: 854:     PORTB = 0x7C;
  4553  00632A  0E7C               	movlw	124
  4554  00632C  6E81               	movwf	3969,c	;volatile
  4555                           
  4556                           ;main.c: 855:     PORTCbits.RC6 = 1;
  4557  00632E  8C82               	bsf	3970,6,c	;volatile
  4558                           
  4559                           ;main.c: 856:     _delay((unsigned long)((1600)*(20000000/4000000.0)));
  4560  006330  0E0B               	movlw	11
  4561  006332  6E37               	movwf	??_Draw_7& (0+255),c
  4562  006334  0E62               	movlw	98
  4563  006336                     u2457:
  4564  006336  2EE8               	decfsz	wreg,f,c
  4565  006338  D7FE               	bra	u2457
  4566  00633A  2E37               	decfsz	??_Draw_7& (0+255),f,c
  4567  00633C  D7FC               	bra	u2457
  4568  00633E  D000               	nop2	
  4569                           
  4570                           ;main.c: 857:     PORTCbits.RC6 = 0;
  4571  006340  9C82               	bcf	3970,6,c	;volatile
  4572  006342  0012               	return		;funcret
  4573  006344                     __end_of_Draw_7:
  4574                           	opt callstack 0
  4575                           
  4576 ;; *************** function _Draw_6 *****************
  4577 ;; Defined at:
  4578 ;;		line 838 in file "main.c"
  4579 ;; Parameters:    Size  Location     Type
  4580 ;;		None
  4581 ;; Auto vars:     Size  Location     Type
  4582 ;;		None
  4583 ;; Return value:  Size  Location     Type
  4584 ;;                  1    wreg      void 
  4585 ;; Registers used:
  4586 ;;		wreg, status,2
  4587 ;; Tracked objects:
  4588 ;;		On entry : 0/0
  4589 ;;		On exit  : 0/0
  4590 ;;		Unchanged: 0/0
  4591 ;; Data sizes:     COMRAM   BANK0   BANK1   BANK2   BANK3   BANK4   BANK5   BANK6   BANK7
  4592 ;;      Params:         0       0       0       0       0       0       0       0       0
  4593 ;;      Locals:         0       0       0       0       0       0       0       0       0
  4594 ;;      Temps:          1       0       0       0       0       0       0       0       0
  4595 ;;      Totals:         1       0       0       0       0       0       0       0       0
  4596 ;;Total ram usage:        1 bytes
  4597 ;; Hardware stack levels used:    1
  4598 ;; This function calls:
  4599 ;;		Nothing
  4600 ;; This function is called by:
  4601 ;;		_Menu_P2
  4602 ;;		_Menu_P3
  4603 ;;		_Menu_P4
  4604 ;; This function uses a non-reentrant model
  4605 ;;
  4606                           
  4607                           	psect	text19
  4608  0062E4                     __ptext19:
  4609                           	opt callstack 0
  4610  0062E4                     _Draw_6:
  4611                           	opt callstack 27
  4612                           
  4613                           ;main.c: 839:     PORTB = 0xFF;
  4614                           
  4615                           ;incstack = 0
  4616  0062E4  6881               	setf	3969,c	;volatile
  4617                           
  4618                           ;main.c: 840:     PORTCbits.RC7 = 0;
  4619  0062E6  9E82               	bcf	3970,7,c	;volatile
  4620                           
  4621                           ;main.c: 841:     _delay((unsigned long)((1600)*(20000000/4000000.0)));
  4622  0062E8  0E0B               	movlw	11
  4623  0062EA  6E37               	movwf	??_Draw_6& (0+255),c
  4624  0062EC  0E62               	movlw	98
  4625  0062EE                     u2467:
  4626  0062EE  2EE8               	decfsz	wreg,f,c
  4627  0062F0  D7FE               	bra	u2467
  4628  0062F2  2E37               	decfsz	??_Draw_6& (0+255),f,c
  4629  0062F4  D7FC               	bra	u2467
  4630  0062F6  D000               	nop2	
  4631                           
  4632                           ;main.c: 842:     PORTCbits.RC7 = 0;
  4633  0062F8  9E82               	bcf	3970,7,c	;volatile
  4634                           
  4635                           ;main.c: 843:     PORTB = 0x22;
  4636  0062FA  0E22               	movlw	34
  4637  0062FC  6E81               	movwf	3969,c	;volatile
  4638                           
  4639                           ;main.c: 844:     PORTCbits.RC6 = 1;
  4640  0062FE  8C82               	bsf	3970,6,c	;volatile
  4641                           
  4642                           ;main.c: 845:     _delay((unsigned long)((1600)*(20000000/4000000.0)));
  4643  006300  0E0B               	movlw	11
  4644  006302  6E37               	movwf	??_Draw_6& (0+255),c
  4645  006304  0E62               	movlw	98
  4646  006306                     u2477:
  4647  006306  2EE8               	decfsz	wreg,f,c
  4648  006308  D7FE               	bra	u2477
  4649  00630A  2E37               	decfsz	??_Draw_6& (0+255),f,c
  4650  00630C  D7FC               	bra	u2477
  4651  00630E  D000               	nop2	
  4652                           
  4653                           ;main.c: 846:     PORTCbits.RC6 = 0;
  4654  006310  9C82               	bcf	3970,6,c	;volatile
  4655  006312  0012               	return		;funcret
  4656  006314                     __end_of_Draw_6:
  4657                           	opt callstack 0
  4658                           
  4659 ;; *************** function _Draw_5 *****************
  4660 ;; Defined at:
  4661 ;;		line 827 in file "main.c"
  4662 ;; Parameters:    Size  Location     Type
  4663 ;;		None
  4664 ;; Auto vars:     Size  Location     Type
  4665 ;;		None
  4666 ;; Return value:  Size  Location     Type
  4667 ;;                  1    wreg      void 
  4668 ;; Registers used:
  4669 ;;		wreg, status,2
  4670 ;; Tracked objects:
  4671 ;;		On entry : 0/0
  4672 ;;		On exit  : 0/0
  4673 ;;		Unchanged: 0/0
  4674 ;; Data sizes:     COMRAM   BANK0   BANK1   BANK2   BANK3   BANK4   BANK5   BANK6   BANK7
  4675 ;;      Params:         0       0       0       0       0       0       0       0       0
  4676 ;;      Locals:         0       0       0       0       0       0       0       0       0
  4677 ;;      Temps:          1       0       0       0       0       0       0       0       0
  4678 ;;      Totals:         1       0       0       0       0       0       0       0       0
  4679 ;;Total ram usage:        1 bytes
  4680 ;; Hardware stack levels used:    1
  4681 ;; This function calls:
  4682 ;;		Nothing
  4683 ;; This function is called by:
  4684 ;;		_Menu_P2
  4685 ;;		_Menu_P4
  4686 ;; This function uses a non-reentrant model
  4687 ;;
  4688                           
  4689                           	psect	text20
  4690  0062B4                     __ptext20:
  4691                           	opt callstack 0
  4692  0062B4                     _Draw_5:
  4693                           	opt callstack 27
  4694                           
  4695                           ;main.c: 828:     PORTB = 0xFF;
  4696                           
  4697                           ;incstack = 0
  4698  0062B4  6881               	setf	3969,c	;volatile
  4699                           
  4700                           ;main.c: 829:     PORTCbits.RC7 = 0;
  4701  0062B6  9E82               	bcf	3970,7,c	;volatile
  4702                           
  4703                           ;main.c: 830:     _delay((unsigned long)((1600)*(20000000/4000000.0)));
  4704  0062B8  0E0B               	movlw	11
  4705  0062BA  6E37               	movwf	??_Draw_5& (0+255),c
  4706  0062BC  0E62               	movlw	98
  4707  0062BE                     u2487:
  4708  0062BE  2EE8               	decfsz	wreg,f,c
  4709  0062C0  D7FE               	bra	u2487
  4710  0062C2  2E37               	decfsz	??_Draw_5& (0+255),f,c
  4711  0062C4  D7FC               	bra	u2487
  4712  0062C6  D000               	nop2	
  4713                           
  4714                           ;main.c: 831:     PORTCbits.RC7 = 0;
  4715  0062C8  9E82               	bcf	3970,7,c	;volatile
  4716                           
  4717                           ;main.c: 832:     PORTB = 0x62;
  4718  0062CA  0E62               	movlw	98
  4719  0062CC  6E81               	movwf	3969,c	;volatile
  4720                           
  4721                           ;main.c: 833:     PORTCbits.RC6 = 1;
  4722  0062CE  8C82               	bsf	3970,6,c	;volatile
  4723                           
  4724                           ;main.c: 834:     _delay((unsigned long)((1600)*(20000000/4000000.0)));
  4725  0062D0  0E0B               	movlw	11
  4726  0062D2  6E37               	movwf	??_Draw_5& (0+255),c
  4727  0062D4  0E62               	movlw	98
  4728  0062D6                     u2497:
  4729  0062D6  2EE8               	decfsz	wreg,f,c
  4730  0062D8  D7FE               	bra	u2497
  4731  0062DA  2E37               	decfsz	??_Draw_5& (0+255),f,c
  4732  0062DC  D7FC               	bra	u2497
  4733  0062DE  D000               	nop2	
  4734                           
  4735                           ;main.c: 835:     PORTCbits.RC6 = 0;
  4736  0062E0  9C82               	bcf	3970,6,c	;volatile
  4737  0062E2  0012               	return		;funcret
  4738  0062E4                     __end_of_Draw_5:
  4739                           	opt callstack 0
  4740                           
  4741 ;; *************** function _Draw_4 *****************
  4742 ;; Defined at:
  4743 ;;		line 816 in file "main.c"
  4744 ;; Parameters:    Size  Location     Type
  4745 ;;		None
  4746 ;; Auto vars:     Size  Location     Type
  4747 ;;		None
  4748 ;; Return value:  Size  Location     Type
  4749 ;;                  1    wreg      void 
  4750 ;; Registers used:
  4751 ;;		wreg, status,2
  4752 ;; Tracked objects:
  4753 ;;		On entry : 0/0
  4754 ;;		On exit  : 0/0
  4755 ;;		Unchanged: 0/0
  4756 ;; Data sizes:     COMRAM   BANK0   BANK1   BANK2   BANK3   BANK4   BANK5   BANK6   BANK7
  4757 ;;      Params:         0       0       0       0       0       0       0       0       0
  4758 ;;      Locals:         0       0       0       0       0       0       0       0       0
  4759 ;;      Temps:          1       0       0       0       0       0       0       0       0
  4760 ;;      Totals:         1       0       0       0       0       0       0       0       0
  4761 ;;Total ram usage:        1 bytes
  4762 ;; Hardware stack levels used:    1
  4763 ;; This function calls:
  4764 ;;		Nothing
  4765 ;; This function is called by:
  4766 ;;		_Menu_P2
  4767 ;;		_Menu_P3
  4768 ;;		_Menu_P4
  4769 ;; This function uses a non-reentrant model
  4770 ;;
  4771                           
  4772                           	psect	text21
  4773  006284                     __ptext21:
  4774                           	opt callstack 0
  4775  006284                     _Draw_4:
  4776                           	opt callstack 27
  4777                           
  4778                           ;main.c: 817:     PORTB = 0xFF;
  4779                           
  4780                           ;incstack = 0
  4781  006284  6881               	setf	3969,c	;volatile
  4782                           
  4783                           ;main.c: 818:     PORTCbits.RC7 = 0;
  4784  006286  9E82               	bcf	3970,7,c	;volatile
  4785                           
  4786                           ;main.c: 819:     _delay((unsigned long)((1600)*(20000000/4000000.0)));
  4787  006288  0E0B               	movlw	11
  4788  00628A  6E37               	movwf	??_Draw_4& (0+255),c
  4789  00628C  0E62               	movlw	98
  4790  00628E                     u2507:
  4791  00628E  2EE8               	decfsz	wreg,f,c
  4792  006290  D7FE               	bra	u2507
  4793  006292  2E37               	decfsz	??_Draw_4& (0+255),f,c
  4794  006294  D7FC               	bra	u2507
  4795  006296  D000               	nop2	
  4796                           
  4797                           ;main.c: 820:     PORTCbits.RC7 = 0;
  4798  006298  9E82               	bcf	3970,7,c	;volatile
  4799                           
  4800                           ;main.c: 821:     PORTB = 0x71;
  4801  00629A  0E71               	movlw	113
  4802  00629C  6E81               	movwf	3969,c	;volatile
  4803                           
  4804                           ;main.c: 822:     PORTCbits.RC6 = 1;
  4805  00629E  8C82               	bsf	3970,6,c	;volatile
  4806                           
  4807                           ;main.c: 823:     _delay((unsigned long)((1600)*(20000000/4000000.0)));
  4808  0062A0  0E0B               	movlw	11
  4809  0062A2  6E37               	movwf	??_Draw_4& (0+255),c
  4810  0062A4  0E62               	movlw	98
  4811  0062A6                     u2517:
  4812  0062A6  2EE8               	decfsz	wreg,f,c
  4813  0062A8  D7FE               	bra	u2517
  4814  0062AA  2E37               	decfsz	??_Draw_4& (0+255),f,c
  4815  0062AC  D7FC               	bra	u2517
  4816  0062AE  D000               	nop2	
  4817                           
  4818                           ;main.c: 824:     PORTCbits.RC6 = 0;
  4819  0062B0  9C82               	bcf	3970,6,c	;volatile
  4820  0062B2  0012               	return		;funcret
  4821  0062B4                     __end_of_Draw_4:
  4822                           	opt callstack 0
  4823                           
  4824 ;; *************** function _Draw_3 *****************
  4825 ;; Defined at:
  4826 ;;		line 805 in file "main.c"
  4827 ;; Parameters:    Size  Location     Type
  4828 ;;		None
  4829 ;; Auto vars:     Size  Location     Type
  4830 ;;		None
  4831 ;; Return value:  Size  Location     Type
  4832 ;;                  1    wreg      void 
  4833 ;; Registers used:
  4834 ;;		wreg, status,2
  4835 ;; Tracked objects:
  4836 ;;		On entry : 0/0
  4837 ;;		On exit  : 0/0
  4838 ;;		Unchanged: 0/0
  4839 ;; Data sizes:     COMRAM   BANK0   BANK1   BANK2   BANK3   BANK4   BANK5   BANK6   BANK7
  4840 ;;      Params:         0       0       0       0       0       0       0       0       0
  4841 ;;      Locals:         0       0       0       0       0       0       0       0       0
  4842 ;;      Temps:          1       0       0       0       0       0       0       0       0
  4843 ;;      Totals:         1       0       0       0       0       0       0       0       0
  4844 ;;Total ram usage:        1 bytes
  4845 ;; Hardware stack levels used:    1
  4846 ;; This function calls:
  4847 ;;		Nothing
  4848 ;; This function is called by:
  4849 ;;		_Menu_P2
  4850 ;;		_Menu_P4
  4851 ;; This function uses a non-reentrant model
  4852 ;;
  4853                           
  4854                           	psect	text22
  4855  006254                     __ptext22:
  4856                           	opt callstack 0
  4857  006254                     _Draw_3:
  4858                           	opt callstack 27
  4859                           
  4860                           ;main.c: 806:     PORTB = 0xFF;
  4861                           
  4862                           ;incstack = 0
  4863  006254  6881               	setf	3969,c	;volatile
  4864                           
  4865                           ;main.c: 807:     PORTCbits.RC7 = 0;
  4866  006256  9E82               	bcf	3970,7,c	;volatile
  4867                           
  4868                           ;main.c: 808:     _delay((unsigned long)((1600)*(20000000/4000000.0)));
  4869  006258  0E0B               	movlw	11
  4870  00625A  6E37               	movwf	??_Draw_3& (0+255),c
  4871  00625C  0E62               	movlw	98
  4872  00625E                     u2527:
  4873  00625E  2EE8               	decfsz	wreg,f,c
  4874  006260  D7FE               	bra	u2527
  4875  006262  2E37               	decfsz	??_Draw_3& (0+255),f,c
  4876  006264  D7FC               	bra	u2527
  4877  006266  D000               	nop2	
  4878                           
  4879                           ;main.c: 809:     PORTCbits.RC7 = 0;
  4880  006268  9E82               	bcf	3970,7,c	;volatile
  4881                           
  4882                           ;main.c: 810:     PORTB = 0x64;
  4883  00626A  0E64               	movlw	100
  4884  00626C  6E81               	movwf	3969,c	;volatile
  4885                           
  4886                           ;main.c: 811:     PORTCbits.RC6 = 1;
  4887  00626E  8C82               	bsf	3970,6,c	;volatile
  4888                           
  4889                           ;main.c: 812:     _delay((unsigned long)((1600)*(20000000/4000000.0)));
  4890  006270  0E0B               	movlw	11
  4891  006272  6E37               	movwf	??_Draw_3& (0+255),c
  4892  006274  0E62               	movlw	98
  4893  006276                     u2537:
  4894  006276  2EE8               	decfsz	wreg,f,c
  4895  006278  D7FE               	bra	u2537
  4896  00627A  2E37               	decfsz	??_Draw_3& (0+255),f,c
  4897  00627C  D7FC               	bra	u2537
  4898  00627E  D000               	nop2	
  4899                           
  4900                           ;main.c: 813:     PORTCbits.RC6 = 0;
  4901  006280  9C82               	bcf	3970,6,c	;volatile
  4902  006282  0012               	return		;funcret
  4903  006284                     __end_of_Draw_3:
  4904                           	opt callstack 0
  4905                           
  4906 ;; *************** function _Draw_2 *****************
  4907 ;; Defined at:
  4908 ;;		line 794 in file "main.c"
  4909 ;; Parameters:    Size  Location     Type
  4910 ;;		None
  4911 ;; Auto vars:     Size  Location     Type
  4912 ;;		None
  4913 ;; Return value:  Size  Location     Type
  4914 ;;                  1    wreg      void 
  4915 ;; Registers used:
  4916 ;;		wreg, status,2
  4917 ;; Tracked objects:
  4918 ;;		On entry : 0/0
  4919 ;;		On exit  : 0/0
  4920 ;;		Unchanged: 0/0
  4921 ;; Data sizes:     COMRAM   BANK0   BANK1   BANK2   BANK3   BANK4   BANK5   BANK6   BANK7
  4922 ;;      Params:         0       0       0       0       0       0       0       0       0
  4923 ;;      Locals:         0       0       0       0       0       0       0       0       0
  4924 ;;      Temps:          1       0       0       0       0       0       0       0       0
  4925 ;;      Totals:         1       0       0       0       0       0       0       0       0
  4926 ;;Total ram usage:        1 bytes
  4927 ;; Hardware stack levels used:    1
  4928 ;; This function calls:
  4929 ;;		Nothing
  4930 ;; This function is called by:
  4931 ;;		_Menu_P2
  4932 ;;		_Menu_P3
  4933 ;;		_Menu_P4
  4934 ;; This function uses a non-reentrant model
  4935 ;;
  4936                           
  4937                           	psect	text23
  4938  006224                     __ptext23:
  4939                           	opt callstack 0
  4940  006224                     _Draw_2:
  4941                           	opt callstack 27
  4942                           
  4943                           ;main.c: 795:     PORTB = 0xFF;
  4944                           
  4945                           ;incstack = 0
  4946  006224  6881               	setf	3969,c	;volatile
  4947                           
  4948                           ;main.c: 796:     PORTCbits.RC7 = 0;
  4949  006226  9E82               	bcf	3970,7,c	;volatile
  4950                           
  4951                           ;main.c: 797:     _delay((unsigned long)((1600)*(20000000/4000000.0)));
  4952  006228  0E0B               	movlw	11
  4953  00622A  6E37               	movwf	??_Draw_2& (0+255),c
  4954  00622C  0E62               	movlw	98
  4955  00622E                     u2547:
  4956  00622E  2EE8               	decfsz	wreg,f,c
  4957  006230  D7FE               	bra	u2547
  4958  006232  2E37               	decfsz	??_Draw_2& (0+255),f,c
  4959  006234  D7FC               	bra	u2547
  4960  006236  D000               	nop2	
  4961                           
  4962                           ;main.c: 798:     PORTCbits.RC7 = 0;
  4963  006238  9E82               	bcf	3970,7,c	;volatile
  4964                           
  4965                           ;main.c: 799:     PORTB = 0xA4;
  4966  00623A  0EA4               	movlw	164
  4967  00623C  6E81               	movwf	3969,c	;volatile
  4968                           
  4969                           ;main.c: 800:     PORTCbits.RC6 = 1;
  4970  00623E  8C82               	bsf	3970,6,c	;volatile
  4971                           
  4972                           ;main.c: 801:     _delay((unsigned long)((1600)*(20000000/4000000.0)));
  4973  006240  0E0B               	movlw	11
  4974  006242  6E37               	movwf	??_Draw_2& (0+255),c
  4975  006244  0E62               	movlw	98
  4976  006246                     u2557:
  4977  006246  2EE8               	decfsz	wreg,f,c
  4978  006248  D7FE               	bra	u2557
  4979  00624A  2E37               	decfsz	??_Draw_2& (0+255),f,c
  4980  00624C  D7FC               	bra	u2557
  4981  00624E  D000               	nop2	
  4982                           
  4983                           ;main.c: 802:     PORTCbits.RC6 = 0;
  4984  006250  9C82               	bcf	3970,6,c	;volatile
  4985  006252  0012               	return		;funcret
  4986  006254                     __end_of_Draw_2:
  4987                           	opt callstack 0
  4988                           
  4989 ;; *************** function _Draw_15 *****************
  4990 ;; Defined at:
  4991 ;;		line 937 in file "main.c"
  4992 ;; Parameters:    Size  Location     Type
  4993 ;;		None
  4994 ;; Auto vars:     Size  Location     Type
  4995 ;;		None
  4996 ;; Return value:  Size  Location     Type
  4997 ;;                  1    wreg      void 
  4998 ;; Registers used:
  4999 ;;		wreg, status,2
  5000 ;; Tracked objects:
  5001 ;;		On entry : 0/0
  5002 ;;		On exit  : 0/0
  5003 ;;		Unchanged: 0/0
  5004 ;; Data sizes:     COMRAM   BANK0   BANK1   BANK2   BANK3   BANK4   BANK5   BANK6   BANK7
  5005 ;;      Params:         0       0       0       0       0       0       0       0       0
  5006 ;;      Locals:         0       0       0       0       0       0       0       0       0
  5007 ;;      Temps:          1       0       0       0       0       0       0       0       0
  5008 ;;      Totals:         1       0       0       0       0       0       0       0       0
  5009 ;;Total ram usage:        1 bytes
  5010 ;; Hardware stack levels used:    1
  5011 ;; This function calls:
  5012 ;;		Nothing
  5013 ;; This function is called by:
  5014 ;;		_Menu_P2
  5015 ;;		_Menu_P4
  5016 ;; This function uses a non-reentrant model
  5017 ;;
  5018                           
  5019                           	psect	text24
  5020  006598                     __ptext24:
  5021                           	opt callstack 0
  5022  006598                     _Draw_15:
  5023                           	opt callstack 27
  5024                           
  5025                           ;main.c: 938:     PORTB = 0x7D;
  5026                           
  5027                           ;incstack = 0
  5028  006598  0E7D               	movlw	125
  5029  00659A  6E81               	movwf	3969,c	;volatile
  5030                           
  5031                           ;main.c: 939:     PORTCbits.RC7 = 1;
  5032  00659C  8E82               	bsf	3970,7,c	;volatile
  5033                           
  5034                           ;main.c: 940:     _delay((unsigned long)((1600)*(20000000/4000000.0)));
  5035  00659E  0E0B               	movlw	11
  5036  0065A0  6E37               	movwf	??_Draw_15& (0+255),c
  5037  0065A2  0E62               	movlw	98
  5038  0065A4                     u2567:
  5039  0065A4  2EE8               	decfsz	wreg,f,c
  5040  0065A6  D7FE               	bra	u2567
  5041  0065A8  2E37               	decfsz	??_Draw_15& (0+255),f,c
  5042  0065AA  D7FC               	bra	u2567
  5043  0065AC  D000               	nop2	
  5044                           
  5045                           ;main.c: 941:     PORTCbits.RC7 = 0;
  5046  0065AE  9E82               	bcf	3970,7,c	;volatile
  5047                           
  5048                           ;main.c: 942:     PORTB = 0x62;
  5049  0065B0  0E62               	movlw	98
  5050  0065B2  6E81               	movwf	3969,c	;volatile
  5051                           
  5052                           ;main.c: 943:     PORTCbits.RC6 = 1;
  5053  0065B4  8C82               	bsf	3970,6,c	;volatile
  5054                           
  5055                           ;main.c: 944:     _delay((unsigned long)((1600)*(20000000/4000000.0)));
  5056  0065B6  0E0B               	movlw	11
  5057  0065B8  6E37               	movwf	??_Draw_15& (0+255),c
  5058  0065BA  0E62               	movlw	98
  5059  0065BC                     u2577:
  5060  0065BC  2EE8               	decfsz	wreg,f,c
  5061  0065BE  D7FE               	bra	u2577
  5062  0065C0  2E37               	decfsz	??_Draw_15& (0+255),f,c
  5063  0065C2  D7FC               	bra	u2577
  5064  0065C4  D000               	nop2	
  5065                           
  5066                           ;main.c: 945:     PORTCbits.RC6 = 0;
  5067  0065C6  9C82               	bcf	3970,6,c	;volatile
  5068  0065C8  0012               	return		;funcret
  5069  0065CA                     __end_of_Draw_15:
  5070                           	opt callstack 0
  5071                           
  5072 ;; *************** function _Draw_14 *****************
  5073 ;; Defined at:
  5074 ;;		line 926 in file "main.c"
  5075 ;; Parameters:    Size  Location     Type
  5076 ;;		None
  5077 ;; Auto vars:     Size  Location     Type
  5078 ;;		None
  5079 ;; Return value:  Size  Location     Type
  5080 ;;                  1    wreg      void 
  5081 ;; Registers used:
  5082 ;;		wreg, status,2
  5083 ;; Tracked objects:
  5084 ;;		On entry : 0/0
  5085 ;;		On exit  : 0/0
  5086 ;;		Unchanged: 0/0
  5087 ;; Data sizes:     COMRAM   BANK0   BANK1   BANK2   BANK3   BANK4   BANK5   BANK6   BANK7
  5088 ;;      Params:         0       0       0       0       0       0       0       0       0
  5089 ;;      Locals:         0       0       0       0       0       0       0       0       0
  5090 ;;      Temps:          1       0       0       0       0       0       0       0       0
  5091 ;;      Totals:         1       0       0       0       0       0       0       0       0
  5092 ;;Total ram usage:        1 bytes
  5093 ;; Hardware stack levels used:    1
  5094 ;; This function calls:
  5095 ;;		Nothing
  5096 ;; This function is called by:
  5097 ;;		_Menu_P2
  5098 ;;		_Menu_P3
  5099 ;;		_Menu_P4
  5100 ;; This function uses a non-reentrant model
  5101 ;;
  5102                           
  5103                           	psect	text25
  5104  006566                     __ptext25:
  5105                           	opt callstack 0
  5106  006566                     _Draw_14:
  5107                           	opt callstack 27
  5108                           
  5109                           ;main.c: 927:     PORTB = 0x7D;
  5110                           
  5111                           ;incstack = 0
  5112  006566  0E7D               	movlw	125
  5113  006568  6E81               	movwf	3969,c	;volatile
  5114                           
  5115                           ;main.c: 928:     PORTCbits.RC7 = 1;
  5116  00656A  8E82               	bsf	3970,7,c	;volatile
  5117                           
  5118                           ;main.c: 929:     _delay((unsigned long)((1600)*(20000000/4000000.0)));
  5119  00656C  0E0B               	movlw	11
  5120  00656E  6E37               	movwf	??_Draw_14& (0+255),c
  5121  006570  0E62               	movlw	98
  5122  006572                     u2587:
  5123  006572  2EE8               	decfsz	wreg,f,c
  5124  006574  D7FE               	bra	u2587
  5125  006576  2E37               	decfsz	??_Draw_14& (0+255),f,c
  5126  006578  D7FC               	bra	u2587
  5127  00657A  D000               	nop2	
  5128                           
  5129                           ;main.c: 930:     PORTCbits.RC7 = 0;
  5130  00657C  9E82               	bcf	3970,7,c	;volatile
  5131                           
  5132                           ;main.c: 931:     PORTB = 0x71;
  5133  00657E  0E71               	movlw	113
  5134  006580  6E81               	movwf	3969,c	;volatile
  5135                           
  5136                           ;main.c: 932:     PORTCbits.RC6 = 1;
  5137  006582  8C82               	bsf	3970,6,c	;volatile
  5138                           
  5139                           ;main.c: 933:     _delay((unsigned long)((1600)*(20000000/4000000.0)));
  5140  006584  0E0B               	movlw	11
  5141  006586  6E37               	movwf	??_Draw_14& (0+255),c
  5142  006588  0E62               	movlw	98
  5143  00658A                     u2597:
  5144  00658A  2EE8               	decfsz	wreg,f,c
  5145  00658C  D7FE               	bra	u2597
  5146  00658E  2E37               	decfsz	??_Draw_14& (0+255),f,c
  5147  006590  D7FC               	bra	u2597
  5148  006592  D000               	nop2	
  5149                           
  5150                           ;main.c: 934:     PORTCbits.RC6 = 0;
  5151  006594  9C82               	bcf	3970,6,c	;volatile
  5152  006596  0012               	return		;funcret
  5153  006598                     __end_of_Draw_14:
  5154                           	opt callstack 0
  5155                           
  5156 ;; *************** function _Draw_13 *****************
  5157 ;; Defined at:
  5158 ;;		line 915 in file "main.c"
  5159 ;; Parameters:    Size  Location     Type
  5160 ;;		None
  5161 ;; Auto vars:     Size  Location     Type
  5162 ;;		None
  5163 ;; Return value:  Size  Location     Type
  5164 ;;                  1    wreg      void 
  5165 ;; Registers used:
  5166 ;;		wreg, status,2
  5167 ;; Tracked objects:
  5168 ;;		On entry : 0/0
  5169 ;;		On exit  : 0/0
  5170 ;;		Unchanged: 0/0
  5171 ;; Data sizes:     COMRAM   BANK0   BANK1   BANK2   BANK3   BANK4   BANK5   BANK6   BANK7
  5172 ;;      Params:         0       0       0       0       0       0       0       0       0
  5173 ;;      Locals:         0       0       0       0       0       0       0       0       0
  5174 ;;      Temps:          1       0       0       0       0       0       0       0       0
  5175 ;;      Totals:         1       0       0       0       0       0       0       0       0
  5176 ;;Total ram usage:        1 bytes
  5177 ;; Hardware stack levels used:    1
  5178 ;; This function calls:
  5179 ;;		Nothing
  5180 ;; This function is called by:
  5181 ;;		_Menu_P2
  5182 ;;		_Menu_P4
  5183 ;; This function uses a non-reentrant model
  5184 ;;
  5185                           
  5186                           	psect	text26
  5187  006534                     __ptext26:
  5188                           	opt callstack 0
  5189  006534                     _Draw_13:
  5190                           	opt callstack 27
  5191                           
  5192                           ;main.c: 916:     PORTB = 0x7D;
  5193                           
  5194                           ;incstack = 0
  5195  006534  0E7D               	movlw	125
  5196  006536  6E81               	movwf	3969,c	;volatile
  5197                           
  5198                           ;main.c: 917:     PORTCbits.RC7 = 1;
  5199  006538  8E82               	bsf	3970,7,c	;volatile
  5200                           
  5201                           ;main.c: 918:     _delay((unsigned long)((1600)*(20000000/4000000.0)));
  5202  00653A  0E0B               	movlw	11
  5203  00653C  6E37               	movwf	??_Draw_13& (0+255),c
  5204  00653E  0E62               	movlw	98
  5205  006540                     u2607:
  5206  006540  2EE8               	decfsz	wreg,f,c
  5207  006542  D7FE               	bra	u2607
  5208  006544  2E37               	decfsz	??_Draw_13& (0+255),f,c
  5209  006546  D7FC               	bra	u2607
  5210  006548  D000               	nop2	
  5211                           
  5212                           ;main.c: 919:     PORTCbits.RC7 = 0;
  5213  00654A  9E82               	bcf	3970,7,c	;volatile
  5214                           
  5215                           ;main.c: 920:     PORTB = 0x64;
  5216  00654C  0E64               	movlw	100
  5217  00654E  6E81               	movwf	3969,c	;volatile
  5218                           
  5219                           ;main.c: 921:     PORTCbits.RC6 = 1;
  5220  006550  8C82               	bsf	3970,6,c	;volatile
  5221                           
  5222                           ;main.c: 922:     _delay((unsigned long)((1600)*(20000000/4000000.0)));
  5223  006552  0E0B               	movlw	11
  5224  006554  6E37               	movwf	??_Draw_13& (0+255),c
  5225  006556  0E62               	movlw	98
  5226  006558                     u2617:
  5227  006558  2EE8               	decfsz	wreg,f,c
  5228  00655A  D7FE               	bra	u2617
  5229  00655C  2E37               	decfsz	??_Draw_13& (0+255),f,c
  5230  00655E  D7FC               	bra	u2617
  5231  006560  D000               	nop2	
  5232                           
  5233                           ;main.c: 923:     PORTCbits.RC6 = 0;
  5234  006562  9C82               	bcf	3970,6,c	;volatile
  5235  006564  0012               	return		;funcret
  5236  006566                     __end_of_Draw_13:
  5237                           	opt callstack 0
  5238                           
  5239 ;; *************** function _Draw_12 *****************
  5240 ;; Defined at:
  5241 ;;		line 904 in file "main.c"
  5242 ;; Parameters:    Size  Location     Type
  5243 ;;		None
  5244 ;; Auto vars:     Size  Location     Type
  5245 ;;		None
  5246 ;; Return value:  Size  Location     Type
  5247 ;;                  1    wreg      void 
  5248 ;; Registers used:
  5249 ;;		wreg, status,2
  5250 ;; Tracked objects:
  5251 ;;		On entry : 0/0
  5252 ;;		On exit  : 0/0
  5253 ;;		Unchanged: 0/0
  5254 ;; Data sizes:     COMRAM   BANK0   BANK1   BANK2   BANK3   BANK4   BANK5   BANK6   BANK7
  5255 ;;      Params:         0       0       0       0       0       0       0       0       0
  5256 ;;      Locals:         0       0       0       0       0       0       0       0       0
  5257 ;;      Temps:          1       0       0       0       0       0       0       0       0
  5258 ;;      Totals:         1       0       0       0       0       0       0       0       0
  5259 ;;Total ram usage:        1 bytes
  5260 ;; Hardware stack levels used:    1
  5261 ;; This function calls:
  5262 ;;		Nothing
  5263 ;; This function is called by:
  5264 ;;		_Menu_P2
  5265 ;;		_Menu_P3
  5266 ;;		_Menu_P4
  5267 ;; This function uses a non-reentrant model
  5268 ;;
  5269                           
  5270                           	psect	text27
  5271  006502                     __ptext27:
  5272                           	opt callstack 0
  5273  006502                     _Draw_12:
  5274                           	opt callstack 27
  5275                           
  5276                           ;main.c: 905:     PORTB = 0x7D;
  5277                           
  5278                           ;incstack = 0
  5279  006502  0E7D               	movlw	125
  5280  006504  6E81               	movwf	3969,c	;volatile
  5281                           
  5282                           ;main.c: 906:     PORTCbits.RC7 = 1;
  5283  006506  8E82               	bsf	3970,7,c	;volatile
  5284                           
  5285                           ;main.c: 907:     _delay((unsigned long)((1600)*(20000000/4000000.0)));
  5286  006508  0E0B               	movlw	11
  5287  00650A  6E37               	movwf	??_Draw_12& (0+255),c
  5288  00650C  0E62               	movlw	98
  5289  00650E                     u2627:
  5290  00650E  2EE8               	decfsz	wreg,f,c
  5291  006510  D7FE               	bra	u2627
  5292  006512  2E37               	decfsz	??_Draw_12& (0+255),f,c
  5293  006514  D7FC               	bra	u2627
  5294  006516  D000               	nop2	
  5295                           
  5296                           ;main.c: 908:     PORTCbits.RC7 = 0;
  5297  006518  9E82               	bcf	3970,7,c	;volatile
  5298                           
  5299                           ;main.c: 909:     PORTB = 0xA4;
  5300  00651A  0EA4               	movlw	164
  5301  00651C  6E81               	movwf	3969,c	;volatile
  5302                           
  5303                           ;main.c: 910:     PORTCbits.RC6 = 1;
  5304  00651E  8C82               	bsf	3970,6,c	;volatile
  5305                           
  5306                           ;main.c: 911:     _delay((unsigned long)((1600)*(20000000/4000000.0)));
  5307  006520  0E0B               	movlw	11
  5308  006522  6E37               	movwf	??_Draw_12& (0+255),c
  5309  006524  0E62               	movlw	98
  5310  006526                     u2637:
  5311  006526  2EE8               	decfsz	wreg,f,c
  5312  006528  D7FE               	bra	u2637
  5313  00652A  2E37               	decfsz	??_Draw_12& (0+255),f,c
  5314  00652C  D7FC               	bra	u2637
  5315  00652E  D000               	nop2	
  5316                           
  5317                           ;main.c: 912:     PORTCbits.RC6 = 0;
  5318  006530  9C82               	bcf	3970,6,c	;volatile
  5319  006532  0012               	return		;funcret
  5320  006534                     __end_of_Draw_12:
  5321                           	opt callstack 0
  5322                           
  5323 ;; *************** function _Draw_11 *****************
  5324 ;; Defined at:
  5325 ;;		line 893 in file "main.c"
  5326 ;; Parameters:    Size  Location     Type
  5327 ;;		None
  5328 ;; Auto vars:     Size  Location     Type
  5329 ;;		None
  5330 ;; Return value:  Size  Location     Type
  5331 ;;                  1    wreg      void 
  5332 ;; Registers used:
  5333 ;;		wreg, status,2
  5334 ;; Tracked objects:
  5335 ;;		On entry : 0/0
  5336 ;;		On exit  : 0/0
  5337 ;;		Unchanged: 0/0
  5338 ;; Data sizes:     COMRAM   BANK0   BANK1   BANK2   BANK3   BANK4   BANK5   BANK6   BANK7
  5339 ;;      Params:         0       0       0       0       0       0       0       0       0
  5340 ;;      Locals:         0       0       0       0       0       0       0       0       0
  5341 ;;      Temps:          1       0       0       0       0       0       0       0       0
  5342 ;;      Totals:         1       0       0       0       0       0       0       0       0
  5343 ;;Total ram usage:        1 bytes
  5344 ;; Hardware stack levels used:    1
  5345 ;; This function calls:
  5346 ;;		Nothing
  5347 ;; This function is called by:
  5348 ;;		_Menu_P2
  5349 ;;		_Menu_P4
  5350 ;; This function uses a non-reentrant model
  5351 ;;
  5352                           
  5353                           	psect	text28
  5354  0064D0                     __ptext28:
  5355                           	opt callstack 0
  5356  0064D0                     _Draw_11:
  5357                           	opt callstack 27
  5358                           
  5359                           ;main.c: 894:     PORTB = 0x7D;
  5360                           
  5361                           ;incstack = 0
  5362  0064D0  0E7D               	movlw	125
  5363  0064D2  6E81               	movwf	3969,c	;volatile
  5364                           
  5365                           ;main.c: 895:     PORTCbits.RC7 = 1;
  5366  0064D4  8E82               	bsf	3970,7,c	;volatile
  5367                           
  5368                           ;main.c: 896:     _delay((unsigned long)((1600)*(20000000/4000000.0)));
  5369  0064D6  0E0B               	movlw	11
  5370  0064D8  6E37               	movwf	??_Draw_11& (0+255),c
  5371  0064DA  0E62               	movlw	98
  5372  0064DC                     u2647:
  5373  0064DC  2EE8               	decfsz	wreg,f,c
  5374  0064DE  D7FE               	bra	u2647
  5375  0064E0  2E37               	decfsz	??_Draw_11& (0+255),f,c
  5376  0064E2  D7FC               	bra	u2647
  5377  0064E4  D000               	nop2	
  5378                           
  5379                           ;main.c: 897:     PORTCbits.RC7 = 0;
  5380  0064E6  9E82               	bcf	3970,7,c	;volatile
  5381                           
  5382                           ;main.c: 898:     PORTB = 0x7D;
  5383  0064E8  0E7D               	movlw	125
  5384  0064EA  6E81               	movwf	3969,c	;volatile
  5385                           
  5386                           ;main.c: 899:     PORTCbits.RC6 = 1;
  5387  0064EC  8C82               	bsf	3970,6,c	;volatile
  5388                           
  5389                           ;main.c: 900:     _delay((unsigned long)((1600)*(20000000/4000000.0)));
  5390  0064EE  0E0B               	movlw	11
  5391  0064F0  6E37               	movwf	??_Draw_11& (0+255),c
  5392  0064F2  0E62               	movlw	98
  5393  0064F4                     u2657:
  5394  0064F4  2EE8               	decfsz	wreg,f,c
  5395  0064F6  D7FE               	bra	u2657
  5396  0064F8  2E37               	decfsz	??_Draw_11& (0+255),f,c
  5397  0064FA  D7FC               	bra	u2657
  5398  0064FC  D000               	nop2	
  5399                           
  5400                           ;main.c: 901:     PORTCbits.RC6 = 0;
  5401  0064FE  9C82               	bcf	3970,6,c	;volatile
  5402  006500  0012               	return		;funcret
  5403  006502                     __end_of_Draw_11:
  5404                           	opt callstack 0
  5405                           
  5406 ;; *************** function _Draw_10 *****************
  5407 ;; Defined at:
  5408 ;;		line 882 in file "main.c"
  5409 ;; Parameters:    Size  Location     Type
  5410 ;;		None
  5411 ;; Auto vars:     Size  Location     Type
  5412 ;;		None
  5413 ;; Return value:  Size  Location     Type
  5414 ;;                  1    wreg      void 
  5415 ;; Registers used:
  5416 ;;		wreg, status,2
  5417 ;; Tracked objects:
  5418 ;;		On entry : 0/0
  5419 ;;		On exit  : 0/0
  5420 ;;		Unchanged: 0/0
  5421 ;; Data sizes:     COMRAM   BANK0   BANK1   BANK2   BANK3   BANK4   BANK5   BANK6   BANK7
  5422 ;;      Params:         0       0       0       0       0       0       0       0       0
  5423 ;;      Locals:         0       0       0       0       0       0       0       0       0
  5424 ;;      Temps:          1       0       0       0       0       0       0       0       0
  5425 ;;      Totals:         1       0       0       0       0       0       0       0       0
  5426 ;;Total ram usage:        1 bytes
  5427 ;; Hardware stack levels used:    1
  5428 ;; This function calls:
  5429 ;;		Nothing
  5430 ;; This function is called by:
  5431 ;;		_Menu_P2
  5432 ;;		_Menu_P3
  5433 ;;		_Menu_P4
  5434 ;; This function uses a non-reentrant model
  5435 ;;
  5436                           
  5437                           	psect	text29
  5438  00649E                     __ptext29:
  5439                           	opt callstack 0
  5440  00649E                     _Draw_10:
  5441                           	opt callstack 27
  5442                           
  5443                           ;main.c: 883:     PORTB = 0x7D;
  5444                           
  5445                           ;incstack = 0
  5446  00649E  0E7D               	movlw	125
  5447  0064A0  6E81               	movwf	3969,c	;volatile
  5448                           
  5449                           ;main.c: 884:     PORTCbits.RC7 = 1;
  5450  0064A2  8E82               	bsf	3970,7,c	;volatile
  5451                           
  5452                           ;main.c: 885:     _delay((unsigned long)((1600)*(20000000/4000000.0)));
  5453  0064A4  0E0B               	movlw	11
  5454  0064A6  6E37               	movwf	??_Draw_10& (0+255),c
  5455  0064A8  0E62               	movlw	98
  5456  0064AA                     u2667:
  5457  0064AA  2EE8               	decfsz	wreg,f,c
  5458  0064AC  D7FE               	bra	u2667
  5459  0064AE  2E37               	decfsz	??_Draw_10& (0+255),f,c
  5460  0064B0  D7FC               	bra	u2667
  5461  0064B2  D000               	nop2	
  5462                           
  5463                           ;main.c: 886:     PORTCbits.RC7 = 0;
  5464  0064B4  9E82               	bcf	3970,7,c	;volatile
  5465                           
  5466                           ;main.c: 887:     PORTB = 0x28;
  5467  0064B6  0E28               	movlw	40
  5468  0064B8  6E81               	movwf	3969,c	;volatile
  5469                           
  5470                           ;main.c: 888:     PORTCbits.RC6 = 1;
  5471  0064BA  8C82               	bsf	3970,6,c	;volatile
  5472                           
  5473                           ;main.c: 889:     _delay((unsigned long)((1600)*(20000000/4000000.0)));
  5474  0064BC  0E0B               	movlw	11
  5475  0064BE  6E37               	movwf	??_Draw_10& (0+255),c
  5476  0064C0  0E62               	movlw	98
  5477  0064C2                     u2677:
  5478  0064C2  2EE8               	decfsz	wreg,f,c
  5479  0064C4  D7FE               	bra	u2677
  5480  0064C6  2E37               	decfsz	??_Draw_10& (0+255),f,c
  5481  0064C8  D7FC               	bra	u2677
  5482  0064CA  D000               	nop2	
  5483                           
  5484                           ;main.c: 890:     PORTCbits.RC6 = 0;
  5485  0064CC  9C82               	bcf	3970,6,c	;volatile
  5486  0064CE  0012               	return		;funcret
  5487  0064D0                     __end_of_Draw_10:
  5488                           	opt callstack 0
  5489                           
  5490 ;; *************** function _Menu_P1 *****************
  5491 ;; Defined at:
  5492 ;;		line 499 in file "main.c"
  5493 ;; Parameters:    Size  Location     Type
  5494 ;;		None
  5495 ;; Auto vars:     Size  Location     Type
  5496 ;;		None
  5497 ;; Return value:  Size  Location     Type
  5498 ;;                  1    wreg      void 
  5499 ;; Registers used:
  5500 ;;		wreg, status,2, status,0, cstack
  5501 ;; Tracked objects:
  5502 ;;		On entry : 0/0
  5503 ;;		On exit  : 0/0
  5504 ;;		Unchanged: 0/0
  5505 ;; Data sizes:     COMRAM   BANK0   BANK1   BANK2   BANK3   BANK4   BANK5   BANK6   BANK7
  5506 ;;      Params:         0       0       0       0       0       0       0       0       0
  5507 ;;      Locals:         0       0       0       0       0       0       0       0       0
  5508 ;;      Temps:          2       0       0       0       0       0       0       0       0
  5509 ;;      Totals:         2       0       0       0       0       0       0       0       0
  5510 ;;Total ram usage:        2 bytes
  5511 ;; Hardware stack levels used:    1
  5512 ;; Hardware stack levels required when called:    2
  5513 ;; This function calls:
  5514 ;;		_Draw_0
  5515 ;;		_Draw_1
  5516 ;;		_Exit_Time_Menu
  5517 ;;		_Recording
  5518 ;;		_eeprom_writex
  5519 ;; This function is called by:
  5520 ;;		_Menu
  5521 ;; This function uses a non-reentrant model
  5522 ;;
  5523                           
  5524                           	psect	text30
  5525  006A7A                     __ptext30:
  5526                           	opt callstack 0
  5527  006A7A                     _Menu_P1:
  5528                           	opt callstack 26
  5529                           
  5530                           ;main.c: 501:         switch (Count_Push_Button)
  5531                           
  5532                           ;incstack = 0
  5533                           ;main.c: 500:     do {
  5534  006A7A  D00B               	goto	l3008
  5535  006A7C                     l3000:
  5536  006A7C  ECCA  F030         	call	_Draw_0	;wreg free
  5537  006A80  D018               	goto	l3010
  5538  006A82                     l3002:
  5539  006A82  ECE2  F030         	call	_Draw_1	;wreg free
  5540  006A86  D015               	goto	l3010
  5541  006A88                     l3004:
  5542  006A88  0E00               	movlw	0
  5543  006A8A  6E28               	movwf	_Count_Push_Button+1,c
  5544  006A8C  0E00               	movlw	0
  5545  006A8E  6E27               	movwf	_Count_Push_Button,c
  5546  006A90  D010               	goto	l3010
  5547  006A92                     l3008:
  5548  006A92  C027  F03A         	movff	_Count_Push_Button,??_Menu_P1
  5549  006A96  C028  F03B         	movff	_Count_Push_Button+1,??_Menu_P1+1
  5550                           
  5551                           ; Switch on 2 bytes has been partitioned into a top level switch of size 1, and 1 sub-sw
      +                          itches
  5552                           ; Switch size 1, requested type "simple"
  5553                           ; Number of cases is 1, Range of values is 0 to 0
  5554                           ; switch strategies available:
  5555                           ; Name         Instructions Cycles
  5556                           ; simple_byte            4     3 (average)
  5557                           ;	Chosen strategy is simple_byte
  5558  006A9A  503B               	movf	??_Menu_P1+1,w,c
  5559  006A9C  0A00               	xorlw	0	; case 0
  5560  006A9E  A4D8               	btfss	status,2,c
  5561  006AA0  D7F3               	goto	l3004
  5562                           
  5563                           ; Switch size 1, requested type "simple"
  5564                           ; Number of cases is 2, Range of values is 0 to 1
  5565                           ; switch strategies available:
  5566                           ; Name         Instructions Cycles
  5567                           ; simple_byte            7     4 (average)
  5568                           ;	Chosen strategy is simple_byte
  5569  006AA2  503A               	movf	??_Menu_P1,w,c
  5570  006AA4  0A00               	xorlw	0	; case 0
  5571  006AA6  B4D8               	btfsc	status,2,c
  5572  006AA8  D7E9               	goto	l3000
  5573  006AAA  0A01               	xorlw	1	; case 1
  5574  006AAC  B4D8               	btfsc	status,2,c
  5575  006AAE  D7E9               	goto	l3002
  5576  006AB0  D7EB               	goto	l3004
  5577  006AB2                     l3010:
  5578                           
  5579                           ;main.c: 508:         Button_Menu_Down_State = PORTAbits.RA2;
  5580  006AB2  A480               	btfss	3968,2,c	;volatile
  5581  006AB4  D002               	goto	u1030
  5582  006AB6  0E01               	movlw	1
  5583  006AB8  D001               	goto	u1036
  5584  006ABA                     u1030:
  5585  006ABA  0E00               	movlw	0
  5586  006ABC                     u1036:
  5587  006ABC  6E32               	movwf	_Button_Menu_Down_State,c
  5588                           
  5589                           ;main.c: 509:         if (Button_Menu_Down_State == 0 && Last_Button_Menu_Down_State == 
      +                          1) {
  5590  006ABE  5032               	movf	_Button_Menu_Down_State,w,c
  5591  006AC0  A4D8               	btfss	status,2,c
  5592  006AC2  D00D               	goto	l3018
  5593  006AC4  0453               	decf	_Last_Button_Menu_Down_State,w,c
  5594  006AC6  A4D8               	btfss	status,2,c
  5595  006AC8  D00A               	goto	l3018
  5596                           
  5597                           ;main.c: 510:             Count_Push_Button++;
  5598  006ACA  4A27               	infsnz	_Count_Push_Button,f,c
  5599  006ACC  2A28               	incf	_Count_Push_Button+1,f,c
  5600                           
  5601                           ;main.c: 511:             Count_Exit_Menu = 0;
  5602  006ACE  0E00               	movlw	0
  5603  006AD0  6E11               	movwf	_Count_Exit_Menu,c
  5604  006AD2  0E00               	movlw	0
  5605  006AD4  6E12               	movwf	_Count_Exit_Menu+1,c
  5606  006AD6  0E00               	movlw	0
  5607  006AD8  6E13               	movwf	_Count_Exit_Menu+2,c
  5608  006ADA  0E00               	movlw	0
  5609  006ADC  6E14               	movwf	_Count_Exit_Menu+3,c
  5610  006ADE                     l3018:
  5611                           
  5612                           ;main.c: 513:         Last_Button_Menu_Down_State = Button_Menu_Down_State;
  5613  006ADE  C032  F053         	movff	_Button_Menu_Down_State,_Last_Button_Menu_Down_State
  5614                           
  5615                           ;main.c: 516:         Button_Menu_Up_State = PORTAbits.RA1;
  5616  006AE2  A280               	btfss	3968,1,c	;volatile
  5617  006AE4  D002               	goto	u1060
  5618  006AE6  0E01               	movlw	1
  5619  006AE8  D001               	goto	u1066
  5620  006AEA                     u1060:
  5621  006AEA  0E00               	movlw	0
  5622  006AEC                     u1066:
  5623  006AEC  6E33               	movwf	_Button_Menu_Up_State,c
  5624                           
  5625                           ;main.c: 517:         Count_Exit_Menu = 0;
  5626  006AEE  0E00               	movlw	0
  5627  006AF0  6E11               	movwf	_Count_Exit_Menu,c
  5628  006AF2  0E00               	movlw	0
  5629  006AF4  6E12               	movwf	_Count_Exit_Menu+1,c
  5630  006AF6  0E00               	movlw	0
  5631  006AF8  6E13               	movwf	_Count_Exit_Menu+2,c
  5632  006AFA  0E00               	movlw	0
  5633  006AFC  6E14               	movwf	_Count_Exit_Menu+3,c
  5634                           
  5635                           ;main.c: 518:         if (Button_Menu_Up_State == 0 && Last_Button_Menu_Up_State == 1) {
  5636  006AFE  5033               	movf	_Button_Menu_Up_State,w,c
  5637  006B00  A4D8               	btfss	status,2,c
  5638  006B02  D02D               	goto	l326
  5639  006B04  0454               	decf	_Last_Button_Menu_Up_State,w,c
  5640  006B06  B4D8               	btfsc	status,2,c
  5641  006B08  D01A               	goto	l3042
  5642  006B0A  D029               	goto	l326
  5643  006B0C                     l3030:
  5644  006B0C  0E00               	movlw	0
  5645  006B0E  6E38               	movwf	eeprom_writex@address+1,c
  5646  006B10  0E01               	movlw	1
  5647  006B12  6E37               	movwf	eeprom_writex@address,c
  5648  006B14  0E00               	movlw	0
  5649  006B16  6E39               	movwf	eeprom_writex@data,c
  5650  006B18  EC7E  F030         	call	_eeprom_writex	;wreg free
  5651  006B1C                     l3032:
  5652  006B1C  EC8D  F034         	call	_Recording	;wreg free
  5653  006B20  D01E               	goto	l326
  5654  006B22                     l3034:
  5655  006B22  0E00               	movlw	0
  5656  006B24  6E38               	movwf	eeprom_writex@address+1,c
  5657  006B26  0E01               	movlw	1
  5658  006B28  6E37               	movwf	eeprom_writex@address,c
  5659  006B2A  0E01               	movlw	1
  5660  006B2C  6E39               	movwf	eeprom_writex@data,c
  5661  006B2E  EC7E  F030         	call	_eeprom_writex	;wreg free
  5662  006B32  D7F4               	goto	l3032
  5663  006B34                     l3038:
  5664  006B34  0E00               	movlw	0
  5665  006B36  6E28               	movwf	_Count_Push_Button+1,c
  5666  006B38  0E00               	movlw	0
  5667  006B3A  6E27               	movwf	_Count_Push_Button,c
  5668  006B3C  D010               	goto	l326
  5669  006B3E                     l3042:
  5670  006B3E  C027  F03A         	movff	_Count_Push_Button,??_Menu_P1
  5671  006B42  C028  F03B         	movff	_Count_Push_Button+1,??_Menu_P1+1
  5672                           
  5673                           ; Switch on 2 bytes has been partitioned into a top level switch of size 1, and 1 sub-sw
      +                          itches
  5674                           ; Switch size 1, requested type "simple"
  5675                           ; Number of cases is 1, Range of values is 0 to 0
  5676                           ; switch strategies available:
  5677                           ; Name         Instructions Cycles
  5678                           ; simple_byte            4     3 (average)
  5679                           ;	Chosen strategy is simple_byte
  5680  006B46  503B               	movf	??_Menu_P1+1,w,c
  5681  006B48  0A00               	xorlw	0	; case 0
  5682  006B4A  A4D8               	btfss	status,2,c
  5683  006B4C  D7F3               	goto	l3038
  5684                           
  5685                           ; Switch size 1, requested type "simple"
  5686                           ; Number of cases is 2, Range of values is 0 to 1
  5687                           ; switch strategies available:
  5688                           ; Name         Instructions Cycles
  5689                           ; simple_byte            7     4 (average)
  5690                           ;	Chosen strategy is simple_byte
  5691  006B4E  503A               	movf	??_Menu_P1,w,c
  5692  006B50  0A00               	xorlw	0	; case 0
  5693  006B52  B4D8               	btfsc	status,2,c
  5694  006B54  D7DB               	goto	l3030
  5695  006B56  0A01               	xorlw	1	; case 1
  5696  006B58  B4D8               	btfsc	status,2,c
  5697  006B5A  D7E3               	goto	l3034
  5698  006B5C  D7EB               	goto	l3038
  5699  006B5E                     l326:
  5700                           
  5701                           ;main.c: 526:         Last_Button_Menu_Up_State = Button_Menu_Up_State;
  5702  006B5E  C033  F054         	movff	_Button_Menu_Up_State,_Last_Button_Menu_Up_State
  5703                           
  5704                           ;main.c: 527:         Exit_Time_Menu();
  5705  006B62  ECAD  F033         	call	_Exit_Time_Menu	;wreg free
  5706                           
  5707                           ;main.c: 528:     } while (Flag_Menu == 1);
  5708  006B66  042F               	decf	_Flag_Menu,w,c
  5709  006B68  A4D8               	btfss	status,2,c
  5710  006B6A  0012               	return	
  5711  006B6C  D792               	goto	l3008
  5712  006B6E                     __end_of_Menu_P1:
  5713                           	opt callstack 0
  5714                           
  5715 ;; *************** function _eeprom_writex *****************
  5716 ;; Defined at:
  5717 ;;		line 380 in file "main.c"
  5718 ;; Parameters:    Size  Location     Type
  5719 ;;  address         2    0[COMRAM] int 
  5720 ;;  data            1    2[COMRAM] unsigned char 
  5721 ;; Auto vars:     Size  Location     Type
  5722 ;;		None
  5723 ;; Return value:  Size  Location     Type
  5724 ;;                  1    wreg      void 
  5725 ;; Registers used:
  5726 ;;		wreg, status,2
  5727 ;; Tracked objects:
  5728 ;;		On entry : 0/0
  5729 ;;		On exit  : 0/0
  5730 ;;		Unchanged: 0/0
  5731 ;; Data sizes:     COMRAM   BANK0   BANK1   BANK2   BANK3   BANK4   BANK5   BANK6   BANK7
  5732 ;;      Params:         3       0       0       0       0       0       0       0       0
  5733 ;;      Locals:         0       0       0       0       0       0       0       0       0
  5734 ;;      Temps:          0       0       0       0       0       0       0       0       0
  5735 ;;      Totals:         3       0       0       0       0       0       0       0       0
  5736 ;;Total ram usage:        3 bytes
  5737 ;; Hardware stack levels used:    1
  5738 ;; This function calls:
  5739 ;;		Nothing
  5740 ;; This function is called by:
  5741 ;;		_Menu_P1
  5742 ;;		_Menu_P2
  5743 ;;		_Menu_P3
  5744 ;;		_Menu_P4
  5745 ;; This function uses a non-reentrant model
  5746 ;;
  5747                           
  5748                           	psect	text31
  5749  0060FC                     __ptext31:
  5750                           	opt callstack 0
  5751  0060FC                     _eeprom_writex:
  5752                           	opt callstack 27
  5753                           
  5754                           ;main.c: 381:     EEADR = address;
  5755                           
  5756                           ;incstack = 0
  5757  0060FC  C037  FFA9         	movff	eeprom_writex@address,4009	;volatile
  5758                           
  5759                           ;main.c: 382:     EEDATA = data;
  5760  006100  C039  FFA8         	movff	eeprom_writex@data,4008	;volatile
  5761                           
  5762                           ;main.c: 383:     EECON1bits.EEPGD = 0;
  5763  006104  9EA6               	bcf	4006,7,c	;volsfr
  5764                           
  5765                           ;main.c: 384:     EECON1bits.CFGS = 0;
  5766  006106  9CA6               	bcf	4006,6,c	;volsfr
  5767                           
  5768                           ;main.c: 385:     EECON1bits.WREN = 1;
  5769  006108  84A6               	bsf	4006,2,c	;volsfr
  5770                           
  5771                           ;main.c: 386:     INTCONbits.GIE = 0;
  5772  00610A  9EF2               	bcf	4082,7,c	;volatile
  5773                           
  5774                           ;main.c: 388:     EECON2 = 0x55;
  5775  00610C  0E55               	movlw	85
  5776  00610E  6EA7               	movwf	4007,c	;volsfr
  5777                           
  5778                           ;main.c: 389:     EECON2 = 0xaa;
  5779  006110  0EAA               	movlw	170
  5780  006112  6EA7               	movwf	4007,c	;volsfr
  5781                           
  5782                           ;main.c: 390:     EECON1bits.WR = 1;
  5783  006114  82A6               	bsf	4006,1,c	;volsfr
  5784                           
  5785                           ;main.c: 392:     INTCONbits.GIE = 1;
  5786  006116  8EF2               	bsf	4082,7,c	;volatile
  5787  006118                     l278:
  5788  006118  B2A6               	btfsc	4006,1,c	;volsfr
  5789  00611A  D7FE               	goto	l278
  5790  00611C  0012               	return	
  5791  00611E                     __end_of_eeprom_writex:
  5792                           	opt callstack 0
  5793                           
  5794 ;; *************** function _Recording *****************
  5795 ;; Defined at:
  5796 ;;		line 1058 in file "main.c"
  5797 ;; Parameters:    Size  Location     Type
  5798 ;;		None
  5799 ;; Auto vars:     Size  Location     Type
  5800 ;;		None
  5801 ;; Return value:  Size  Location     Type
  5802 ;;                  1    wreg      void 
  5803 ;; Registers used:
  5804 ;;		wreg, status,2, status,0, cstack
  5805 ;; Tracked objects:
  5806 ;;		On entry : 0/0
  5807 ;;		On exit  : 0/0
  5808 ;;		Unchanged: 0/0
  5809 ;; Data sizes:     COMRAM   BANK0   BANK1   BANK2   BANK3   BANK4   BANK5   BANK6   BANK7
  5810 ;;      Params:         0       0       0       0       0       0       0       0       0
  5811 ;;      Locals:         0       0       0       0       0       0       0       0       0
  5812 ;;      Temps:          2       0       0       0       0       0       0       0       0
  5813 ;;      Totals:         2       0       0       0       0       0       0       0       0
  5814 ;;Total ram usage:        2 bytes
  5815 ;; Hardware stack levels used:    1
  5816 ;; Hardware stack levels required when called:    1
  5817 ;; This function calls:
  5818 ;;		_Clear
  5819 ;;		_Draw_Save_Dot_One
  5820 ;;		_Draw_Save_Dot_Two
  5821 ;; This function is called by:
  5822 ;;		_Menu_P1
  5823 ;;		_Menu_P2
  5824 ;;		_Menu_P3
  5825 ;;		_Menu_P4
  5826 ;; This function uses a non-reentrant model
  5827 ;;
  5828                           
  5829                           	psect	text32
  5830  00691A                     __ptext32:
  5831                           	opt callstack 0
  5832  00691A                     _Recording:
  5833                           	opt callstack 26
  5834                           
  5835                           ;main.c: 1059:     Clear();
  5836                           
  5837                           ;incstack = 0
  5838  00691A  EC61  F030         	call	_Clear	;wreg free
  5839                           
  5840                           ;main.c: 1060:     _delay((unsigned long)((500)*(20000000/4000.0)));
  5841  00691E  0E0D               	movlw	13
  5842  006920  6E39               	movwf	(??_Recording+1)& (0+255),c
  5843  006922  0EAF               	movlw	175
  5844  006924  6E38               	movwf	??_Recording& (0+255),c
  5845  006926  0EB6               	movlw	182
  5846  006928                     u2687:
  5847  006928  2EE8               	decfsz	wreg,f,c
  5848  00692A  D7FE               	bra	u2687
  5849  00692C  2E38               	decfsz	??_Recording& (0+255),f,c
  5850  00692E  D7FC               	bra	u2687
  5851  006930  2E39               	decfsz	(??_Recording+1)& (0+255),f,c
  5852  006932  D7FA               	bra	u2687
  5853  006934  D000               	nop2	
  5854  006936                     l1356:
  5855                           
  5856                           ;main.c: 1062:     {;main.c: 1063:         Draw_Save_Dot_One();
  5857  006936  ECFA  F030         	call	_Draw_Save_Dot_One	;wreg free
  5858                           
  5859                           ;main.c: 1064:         Count_Save++;
  5860  00693A  0E01               	movlw	1
  5861  00693C  2615               	addwf	_Count_Save,f,c
  5862  00693E  0E00               	movlw	0
  5863  006940  2216               	addwfc	_Count_Save+1,f,c
  5864  006942  2217               	addwfc	_Count_Save+2,f,c
  5865  006944  2218               	addwfc	_Count_Save+3,f,c
  5866                           
  5867                           ;main.c: 1065:     } while (Count_Save < 250);
  5868  006946  BE18               	btfsc	_Count_Save+3,7,c
  5869  006948  D7F6               	goto	l1356
  5870  00694A  5018               	movf	_Count_Save+3,w,c
  5871  00694C  1017               	iorwf	_Count_Save+2,w,c
  5872  00694E  1016               	iorwf	_Count_Save+1,w,c
  5873  006950  E104               	bnz	u40
  5874  006952  0EFA               	movlw	250
  5875  006954  5C15               	subwf	_Count_Save,w,c
  5876  006956  A0D8               	btfss	status,0,c
  5877  006958  D7EE               	goto	l1356
  5878  00695A                     u40:
  5879                           
  5880                           ;main.c: 1066:     Count_Save = 0;
  5881  00695A  0E00               	movlw	0
  5882  00695C  6E15               	movwf	_Count_Save,c
  5883  00695E  0E00               	movlw	0
  5884  006960  6E16               	movwf	_Count_Save+1,c
  5885  006962  0E00               	movlw	0
  5886  006964  6E17               	movwf	_Count_Save+2,c
  5887  006966  0E00               	movlw	0
  5888  006968  6E18               	movwf	_Count_Save+3,c
  5889  00696A                     l1364:
  5890                           
  5891                           ;main.c: 1068:     {;main.c: 1069:         Draw_Save_Dot_Two();
  5892  00696A  EC36  F032         	call	_Draw_Save_Dot_Two	;wreg free
  5893                           
  5894                           ;main.c: 1070:         Count_Save++;
  5895  00696E  0E01               	movlw	1
  5896  006970  2615               	addwf	_Count_Save,f,c
  5897  006972  0E00               	movlw	0
  5898  006974  2216               	addwfc	_Count_Save+1,f,c
  5899  006976  2217               	addwfc	_Count_Save+2,f,c
  5900  006978  2218               	addwfc	_Count_Save+3,f,c
  5901                           
  5902                           ;main.c: 1071:     } while (Count_Save < 250);
  5903  00697A  BE18               	btfsc	_Count_Save+3,7,c
  5904  00697C  D7F6               	goto	l1364
  5905  00697E  5018               	movf	_Count_Save+3,w,c
  5906  006980  1017               	iorwf	_Count_Save+2,w,c
  5907  006982  1016               	iorwf	_Count_Save+1,w,c
  5908  006984  E104               	bnz	u50
  5909  006986  0EFA               	movlw	250
  5910  006988  5C15               	subwf	_Count_Save,w,c
  5911  00698A  A0D8               	btfss	status,0,c
  5912  00698C  D7EE               	goto	l1364
  5913  00698E                     u50:
  5914                           
  5915                           ;main.c: 1072:     Count_Save = 0;
  5916  00698E  0E00               	movlw	0
  5917  006990  6E15               	movwf	_Count_Save,c
  5918  006992  0E00               	movlw	0
  5919  006994  6E16               	movwf	_Count_Save+1,c
  5920  006996  0E00               	movlw	0
  5921  006998  6E17               	movwf	_Count_Save+2,c
  5922  00699A  0E00               	movlw	0
  5923  00699C  6E18               	movwf	_Count_Save+3,c
  5924                           
  5925                           ;main.c: 1073:     Flag_Menu = 0;
  5926  00699E  0E00               	movlw	0
  5927  0069A0  6E2F               	movwf	_Flag_Menu,c
  5928  0069A2  0012               	return		;funcret
  5929  0069A4                     __end_of_Recording:
  5930                           	opt callstack 0
  5931                           
  5932 ;; *************** function _Draw_Save_Dot_Two *****************
  5933 ;; Defined at:
  5934 ;;		line 1047 in file "main.c"
  5935 ;; Parameters:    Size  Location     Type
  5936 ;;		None
  5937 ;; Auto vars:     Size  Location     Type
  5938 ;;		None
  5939 ;; Return value:  Size  Location     Type
  5940 ;;                  1    wreg      void 
  5941 ;; Registers used:
  5942 ;;		wreg, status,2
  5943 ;; Tracked objects:
  5944 ;;		On entry : 0/0
  5945 ;;		On exit  : 0/0
  5946 ;;		Unchanged: 0/0
  5947 ;; Data sizes:     COMRAM   BANK0   BANK1   BANK2   BANK3   BANK4   BANK5   BANK6   BANK7
  5948 ;;      Params:         0       0       0       0       0       0       0       0       0
  5949 ;;      Locals:         0       0       0       0       0       0       0       0       0
  5950 ;;      Temps:          1       0       0       0       0       0       0       0       0
  5951 ;;      Totals:         1       0       0       0       0       0       0       0       0
  5952 ;;Total ram usage:        1 bytes
  5953 ;; Hardware stack levels used:    1
  5954 ;; This function calls:
  5955 ;;		Nothing
  5956 ;; This function is called by:
  5957 ;;		_Recording
  5958 ;; This function uses a non-reentrant model
  5959 ;;
  5960                           
  5961                           	psect	text33
  5962  00646C                     __ptext33:
  5963                           	opt callstack 0
  5964  00646C                     _Draw_Save_Dot_Two:
  5965                           	opt callstack 26
  5966                           
  5967                           ;main.c: 1048:     PORTB = 0xDF;
  5968                           
  5969                           ;incstack = 0
  5970  00646C  0EDF               	movlw	223
  5971  00646E  6E81               	movwf	3969,c	;volatile
  5972                           
  5973                           ;main.c: 1049:     PORTCbits.RC7 = 1;
  5974  006470  8E82               	bsf	3970,7,c	;volatile
  5975                           
  5976                           ;main.c: 1050:     _delay((unsigned long)((1600)*(20000000/4000000.0)));
  5977  006472  0E0B               	movlw	11
  5978  006474  6E37               	movwf	??_Draw_Save_Dot_Two& (0+255),c
  5979  006476  0E62               	movlw	98
  5980  006478                     u2697:
  5981  006478  2EE8               	decfsz	wreg,f,c
  5982  00647A  D7FE               	bra	u2697
  5983  00647C  2E37               	decfsz	??_Draw_Save_Dot_Two& (0+255),f,c
  5984  00647E  D7FC               	bra	u2697
  5985  006480  D000               	nop2	
  5986                           
  5987                           ;main.c: 1051:     PORTCbits.RC7 = 0;
  5988  006482  9E82               	bcf	3970,7,c	;volatile
  5989                           
  5990                           ;main.c: 1052:     PORTB = 0xDF;
  5991  006484  0EDF               	movlw	223
  5992  006486  6E81               	movwf	3969,c	;volatile
  5993                           
  5994                           ;main.c: 1053:     PORTCbits.RC6 = 1;
  5995  006488  8C82               	bsf	3970,6,c	;volatile
  5996                           
  5997                           ;main.c: 1054:     _delay((unsigned long)((1600)*(20000000/4000000.0)));
  5998  00648A  0E0B               	movlw	11
  5999  00648C  6E37               	movwf	??_Draw_Save_Dot_Two& (0+255),c
  6000  00648E  0E62               	movlw	98
  6001  006490                     u2707:
  6002  006490  2EE8               	decfsz	wreg,f,c
  6003  006492  D7FE               	bra	u2707
  6004  006494  2E37               	decfsz	??_Draw_Save_Dot_Two& (0+255),f,c
  6005  006496  D7FC               	bra	u2707
  6006  006498  D000               	nop2	
  6007                           
  6008                           ;main.c: 1055:     PORTCbits.RC6 = 0;
  6009  00649A  9C82               	bcf	3970,6,c	;volatile
  6010  00649C  0012               	return		;funcret
  6011  00649E                     __end_of_Draw_Save_Dot_Two:
  6012                           	opt callstack 0
  6013                           
  6014 ;; *************** function _Draw_Save_Dot_One *****************
  6015 ;; Defined at:
  6016 ;;		line 1036 in file "main.c"
  6017 ;; Parameters:    Size  Location     Type
  6018 ;;		None
  6019 ;; Auto vars:     Size  Location     Type
  6020 ;;		None
  6021 ;; Return value:  Size  Location     Type
  6022 ;;                  1    wreg      void 
  6023 ;; Registers used:
  6024 ;;		wreg, status,2
  6025 ;; Tracked objects:
  6026 ;;		On entry : 0/0
  6027 ;;		On exit  : 0/0
  6028 ;;		Unchanged: 0/0
  6029 ;; Data sizes:     COMRAM   BANK0   BANK1   BANK2   BANK3   BANK4   BANK5   BANK6   BANK7
  6030 ;;      Params:         0       0       0       0       0       0       0       0       0
  6031 ;;      Locals:         0       0       0       0       0       0       0       0       0
  6032 ;;      Temps:          1       0       0       0       0       0       0       0       0
  6033 ;;      Totals:         1       0       0       0       0       0       0       0       0
  6034 ;;Total ram usage:        1 bytes
  6035 ;; Hardware stack levels used:    1
  6036 ;; This function calls:
  6037 ;;		Nothing
  6038 ;; This function is called by:
  6039 ;;		_Recording
  6040 ;; This function uses a non-reentrant model
  6041 ;;
  6042                           
  6043                           	psect	text34
  6044  0061F4                     __ptext34:
  6045                           	opt callstack 0
  6046  0061F4                     _Draw_Save_Dot_One:
  6047                           	opt callstack 26
  6048                           
  6049                           ;main.c: 1037:     PORTB = 0xDF;
  6050                           
  6051                           ;incstack = 0
  6052  0061F4  0EDF               	movlw	223
  6053  0061F6  6E81               	movwf	3969,c	;volatile
  6054                           
  6055                           ;main.c: 1038:     PORTCbits.RC7 = 1;
  6056  0061F8  8E82               	bsf	3970,7,c	;volatile
  6057                           
  6058                           ;main.c: 1039:     _delay((unsigned long)((1600)*(20000000/4000000.0)));
  6059  0061FA  0E0B               	movlw	11
  6060  0061FC  6E37               	movwf	??_Draw_Save_Dot_One& (0+255),c
  6061  0061FE  0E62               	movlw	98
  6062  006200                     u2717:
  6063  006200  2EE8               	decfsz	wreg,f,c
  6064  006202  D7FE               	bra	u2717
  6065  006204  2E37               	decfsz	??_Draw_Save_Dot_One& (0+255),f,c
  6066  006206  D7FC               	bra	u2717
  6067  006208  D000               	nop2	
  6068                           
  6069                           ;main.c: 1040:     PORTCbits.RC7 = 0;
  6070  00620A  9E82               	bcf	3970,7,c	;volatile
  6071                           
  6072                           ;main.c: 1041:     PORTB = 0xFF;
  6073  00620C  6881               	setf	3969,c	;volatile
  6074                           
  6075                           ;main.c: 1042:     PORTCbits.RC6 = 0;
  6076  00620E  9C82               	bcf	3970,6,c	;volatile
  6077                           
  6078                           ;main.c: 1043:     _delay((unsigned long)((1600)*(20000000/4000000.0)));
  6079  006210  0E0B               	movlw	11
  6080  006212  6E37               	movwf	??_Draw_Save_Dot_One& (0+255),c
  6081  006214  0E62               	movlw	98
  6082  006216                     u2727:
  6083  006216  2EE8               	decfsz	wreg,f,c
  6084  006218  D7FE               	bra	u2727
  6085  00621A  2E37               	decfsz	??_Draw_Save_Dot_One& (0+255),f,c
  6086  00621C  D7FC               	bra	u2727
  6087  00621E  D000               	nop2	
  6088                           
  6089                           ;main.c: 1044:     PORTCbits.RC6 = 0;
  6090  006220  9C82               	bcf	3970,6,c	;volatile
  6091  006222  0012               	return		;funcret
  6092  006224                     __end_of_Draw_Save_Dot_One:
  6093                           	opt callstack 0
  6094                           
  6095 ;; *************** function _Exit_Time_Menu *****************
  6096 ;; Defined at:
  6097 ;;		line 491 in file "main.c"
  6098 ;; Parameters:    Size  Location     Type
  6099 ;;		None
  6100 ;; Auto vars:     Size  Location     Type
  6101 ;;		None
  6102 ;; Return value:  Size  Location     Type
  6103 ;;                  1    wreg      void 
  6104 ;; Registers used:
  6105 ;;		wreg, status,2, status,0
  6106 ;; Tracked objects:
  6107 ;;		On entry : 0/0
  6108 ;;		On exit  : 0/0
  6109 ;;		Unchanged: 0/0
  6110 ;; Data sizes:     COMRAM   BANK0   BANK1   BANK2   BANK3   BANK4   BANK5   BANK6   BANK7
  6111 ;;      Params:         0       0       0       0       0       0       0       0       0
  6112 ;;      Locals:         0       0       0       0       0       0       0       0       0
  6113 ;;      Temps:          0       0       0       0       0       0       0       0       0
  6114 ;;      Totals:         0       0       0       0       0       0       0       0       0
  6115 ;;Total ram usage:        0 bytes
  6116 ;; Hardware stack levels used:    1
  6117 ;; This function calls:
  6118 ;;		Nothing
  6119 ;; This function is called by:
  6120 ;;		_Menu
  6121 ;;		_Menu_P1
  6122 ;;		_Menu_P2
  6123 ;;		_Menu_P3
  6124 ;;		_Menu_P4
  6125 ;; This function uses a non-reentrant model
  6126 ;;
  6127                           
  6128                           	psect	text35
  6129  00675A                     __ptext35:
  6130                           	opt callstack 0
  6131  00675A                     _Exit_Time_Menu:
  6132                           	opt callstack 27
  6133                           
  6134                           ;main.c: 492:     Count_Exit_Menu++;
  6135                           
  6136                           ;incstack = 0
  6137  00675A  0E01               	movlw	1
  6138  00675C  2611               	addwf	_Count_Exit_Menu,f,c
  6139  00675E  0E00               	movlw	0
  6140  006760  2212               	addwfc	_Count_Exit_Menu+1,f,c
  6141  006762  2213               	addwfc	_Count_Exit_Menu+2,f,c
  6142  006764  2214               	addwfc	_Count_Exit_Menu+3,f,c
  6143                           
  6144                           ;main.c: 493:     if (Count_Exit_Menu == 7000) {
  6145  006766  0E58               	movlw	88
  6146  006768  1811               	xorwf	_Count_Exit_Menu,w,c
  6147  00676A  E110               	bnz	l316
  6148  00676C  0E1B               	movlw	27
  6149  00676E  1812               	xorwf	_Count_Exit_Menu+1,w,c
  6150  006770  1013               	iorwf	_Count_Exit_Menu+2,w,c
  6151  006772  1014               	iorwf	_Count_Exit_Menu+3,w,c
  6152  006774  A4D8               	btfss	status,2,c
  6153  006776  0012               	return	
  6154                           
  6155                           ;main.c: 494:         Flag_Menu = 0;
  6156  006778  0E00               	movlw	0
  6157  00677A  6E2F               	movwf	_Flag_Menu,c
  6158                           
  6159                           ;main.c: 495:         Count_Exit_Menu = 0;
  6160  00677C  0E00               	movlw	0
  6161  00677E  6E11               	movwf	_Count_Exit_Menu,c
  6162  006780  0E00               	movlw	0
  6163  006782  6E12               	movwf	_Count_Exit_Menu+1,c
  6164  006784  0E00               	movlw	0
  6165  006786  6E13               	movwf	_Count_Exit_Menu+2,c
  6166  006788  0E00               	movlw	0
  6167  00678A  6E14               	movwf	_Count_Exit_Menu+3,c
  6168  00678C                     l316:
  6169  00678C  0012               	return		;funcret
  6170  00678E                     __end_of_Exit_Time_Menu:
  6171                           	opt callstack 0
  6172                           
  6173 ;; *************** function _Draw_1 *****************
  6174 ;; Defined at:
  6175 ;;		line 783 in file "main.c"
  6176 ;; Parameters:    Size  Location     Type
  6177 ;;		None
  6178 ;; Auto vars:     Size  Location     Type
  6179 ;;		None
  6180 ;; Return value:  Size  Location     Type
  6181 ;;                  1    wreg      void 
  6182 ;; Registers used:
  6183 ;;		wreg, status,2
  6184 ;; Tracked objects:
  6185 ;;		On entry : 0/0
  6186 ;;		On exit  : 0/0
  6187 ;;		Unchanged: 0/0
  6188 ;; Data sizes:     COMRAM   BANK0   BANK1   BANK2   BANK3   BANK4   BANK5   BANK6   BANK7
  6189 ;;      Params:         0       0       0       0       0       0       0       0       0
  6190 ;;      Locals:         0       0       0       0       0       0       0       0       0
  6191 ;;      Temps:          1       0       0       0       0       0       0       0       0
  6192 ;;      Totals:         1       0       0       0       0       0       0       0       0
  6193 ;;Total ram usage:        1 bytes
  6194 ;; Hardware stack levels used:    1
  6195 ;; This function calls:
  6196 ;;		Nothing
  6197 ;; This function is called by:
  6198 ;;		_Menu_P1
  6199 ;;		_Menu_P2
  6200 ;;		_Menu_P4
  6201 ;; This function uses a non-reentrant model
  6202 ;;
  6203                           
  6204                           	psect	text36
  6205  0061C4                     __ptext36:
  6206                           	opt callstack 0
  6207  0061C4                     _Draw_1:
  6208                           	opt callstack 27
  6209                           
  6210                           ;main.c: 784:     PORTB = 0xFF;
  6211                           
  6212                           ;incstack = 0
  6213  0061C4  6881               	setf	3969,c	;volatile
  6214                           
  6215                           ;main.c: 785:     PORTCbits.RC7 = 0;
  6216  0061C6  9E82               	bcf	3970,7,c	;volatile
  6217                           
  6218                           ;main.c: 786:     _delay((unsigned long)((1600)*(20000000/4000000.0)));
  6219  0061C8  0E0B               	movlw	11
  6220  0061CA  6E37               	movwf	??_Draw_1& (0+255),c
  6221  0061CC  0E62               	movlw	98
  6222  0061CE                     u2737:
  6223  0061CE  2EE8               	decfsz	wreg,f,c
  6224  0061D0  D7FE               	bra	u2737
  6225  0061D2  2E37               	decfsz	??_Draw_1& (0+255),f,c
  6226  0061D4  D7FC               	bra	u2737
  6227  0061D6  D000               	nop2	
  6228                           
  6229                           ;main.c: 787:     PORTCbits.RC7 = 0;
  6230  0061D8  9E82               	bcf	3970,7,c	;volatile
  6231                           
  6232                           ;main.c: 788:     PORTB = 0x7D;
  6233  0061DA  0E7D               	movlw	125
  6234  0061DC  6E81               	movwf	3969,c	;volatile
  6235                           
  6236                           ;main.c: 789:     PORTCbits.RC6 = 1;
  6237  0061DE  8C82               	bsf	3970,6,c	;volatile
  6238                           
  6239                           ;main.c: 790:     _delay((unsigned long)((1600)*(20000000/4000000.0)));
  6240  0061E0  0E0B               	movlw	11
  6241  0061E2  6E37               	movwf	??_Draw_1& (0+255),c
  6242  0061E4  0E62               	movlw	98
  6243  0061E6                     u2747:
  6244  0061E6  2EE8               	decfsz	wreg,f,c
  6245  0061E8  D7FE               	bra	u2747
  6246  0061EA  2E37               	decfsz	??_Draw_1& (0+255),f,c
  6247  0061EC  D7FC               	bra	u2747
  6248  0061EE  D000               	nop2	
  6249                           
  6250                           ;main.c: 791:     PORTCbits.RC6 = 0;
  6251  0061F0  9C82               	bcf	3970,6,c	;volatile
  6252  0061F2  0012               	return		;funcret
  6253  0061F4                     __end_of_Draw_1:
  6254                           	opt callstack 0
  6255                           
  6256 ;; *************** function _Draw_0 *****************
  6257 ;; Defined at:
  6258 ;;		line 772 in file "main.c"
  6259 ;; Parameters:    Size  Location     Type
  6260 ;;		None
  6261 ;; Auto vars:     Size  Location     Type
  6262 ;;		None
  6263 ;; Return value:  Size  Location     Type
  6264 ;;                  1    wreg      void 
  6265 ;; Registers used:
  6266 ;;		wreg, status,2
  6267 ;; Tracked objects:
  6268 ;;		On entry : 0/0
  6269 ;;		On exit  : 0/0
  6270 ;;		Unchanged: 0/0
  6271 ;; Data sizes:     COMRAM   BANK0   BANK1   BANK2   BANK3   BANK4   BANK5   BANK6   BANK7
  6272 ;;      Params:         0       0       0       0       0       0       0       0       0
  6273 ;;      Locals:         0       0       0       0       0       0       0       0       0
  6274 ;;      Temps:          1       0       0       0       0       0       0       0       0
  6275 ;;      Totals:         1       0       0       0       0       0       0       0       0
  6276 ;;Total ram usage:        1 bytes
  6277 ;; Hardware stack levels used:    1
  6278 ;; This function calls:
  6279 ;;		Nothing
  6280 ;; This function is called by:
  6281 ;;		_Menu_P1
  6282 ;;		_Menu_P2
  6283 ;;		_Menu_P4
  6284 ;; This function uses a non-reentrant model
  6285 ;;
  6286                           
  6287                           	psect	text37
  6288  006194                     __ptext37:
  6289                           	opt callstack 0
  6290  006194                     _Draw_0:
  6291                           	opt callstack 27
  6292                           
  6293                           ;main.c: 773:     PORTB = 0xFF;
  6294                           
  6295                           ;incstack = 0
  6296  006194  6881               	setf	3969,c	;volatile
  6297                           
  6298                           ;main.c: 774:     PORTCbits.RC7 = 0;
  6299  006196  9E82               	bcf	3970,7,c	;volatile
  6300                           
  6301                           ;main.c: 775:     _delay((unsigned long)((1600)*(20000000/4000000.0)));
  6302  006198  0E0B               	movlw	11
  6303  00619A  6E37               	movwf	??_Draw_0& (0+255),c
  6304  00619C  0E62               	movlw	98
  6305  00619E                     u2757:
  6306  00619E  2EE8               	decfsz	wreg,f,c
  6307  0061A0  D7FE               	bra	u2757
  6308  0061A2  2E37               	decfsz	??_Draw_0& (0+255),f,c
  6309  0061A4  D7FC               	bra	u2757
  6310  0061A6  D000               	nop2	
  6311                           
  6312                           ;main.c: 776:     PORTCbits.RC7 = 0;
  6313  0061A8  9E82               	bcf	3970,7,c	;volatile
  6314                           
  6315                           ;main.c: 777:     PORTB = 0x28;
  6316  0061AA  0E28               	movlw	40
  6317  0061AC  6E81               	movwf	3969,c	;volatile
  6318                           
  6319                           ;main.c: 778:     PORTCbits.RC6 = 1;
  6320  0061AE  8C82               	bsf	3970,6,c	;volatile
  6321                           
  6322                           ;main.c: 779:     _delay((unsigned long)((1600)*(20000000/4000000.0)));
  6323  0061B0  0E0B               	movlw	11
  6324  0061B2  6E37               	movwf	??_Draw_0& (0+255),c
  6325  0061B4  0E62               	movlw	98
  6326  0061B6                     u2767:
  6327  0061B6  2EE8               	decfsz	wreg,f,c
  6328  0061B8  D7FE               	bra	u2767
  6329  0061BA  2E37               	decfsz	??_Draw_0& (0+255),f,c
  6330  0061BC  D7FC               	bra	u2767
  6331  0061BE  D000               	nop2	
  6332                           
  6333                           ;main.c: 780:     PORTCbits.RC6 = 0;
  6334  0061C0  9C82               	bcf	3970,6,c	;volatile
  6335  0061C2  0012               	return		;funcret
  6336  0061C4                     __end_of_Draw_0:
  6337                           	opt callstack 0
  6338                           
  6339 ;; *************** function _Draw_P4 *****************
  6340 ;; Defined at:
  6341 ;;		line 761 in file "main.c"
  6342 ;; Parameters:    Size  Location     Type
  6343 ;;		None
  6344 ;; Auto vars:     Size  Location     Type
  6345 ;;		None
  6346 ;; Return value:  Size  Location     Type
  6347 ;;                  1    wreg      void 
  6348 ;; Registers used:
  6349 ;;		wreg, status,2
  6350 ;; Tracked objects:
  6351 ;;		On entry : 0/0
  6352 ;;		On exit  : 0/0
  6353 ;;		Unchanged: 0/0
  6354 ;; Data sizes:     COMRAM   BANK0   BANK1   BANK2   BANK3   BANK4   BANK5   BANK6   BANK7
  6355 ;;      Params:         0       0       0       0       0       0       0       0       0
  6356 ;;      Locals:         0       0       0       0       0       0       0       0       0
  6357 ;;      Temps:          1       0       0       0       0       0       0       0       0
  6358 ;;      Totals:         1       0       0       0       0       0       0       0       0
  6359 ;;Total ram usage:        1 bytes
  6360 ;; Hardware stack levels used:    1
  6361 ;; This function calls:
  6362 ;;		Nothing
  6363 ;; This function is called by:
  6364 ;;		_Menu
  6365 ;; This function uses a non-reentrant model
  6366 ;;
  6367                           
  6368                           	psect	text38
  6369  00643A                     __ptext38:
  6370                           	opt callstack 0
  6371  00643A                     _Draw_P4:
  6372                           	opt callstack 28
  6373                           
  6374                           ;main.c: 762:     PORTB = 0xB0;
  6375                           
  6376                           ;incstack = 0
  6377  00643A  0EB0               	movlw	176
  6378  00643C  6E81               	movwf	3969,c	;volatile
  6379                           
  6380                           ;main.c: 763:     PORTCbits.RC7 = 1;
  6381  00643E  8E82               	bsf	3970,7,c	;volatile
  6382                           
  6383                           ;main.c: 764:     _delay((unsigned long)((1600)*(20000000/4000000.0)));
  6384  006440  0E0B               	movlw	11
  6385  006442  6E37               	movwf	??_Draw_P4& (0+255),c
  6386  006444  0E62               	movlw	98
  6387  006446                     u2777:
  6388  006446  2EE8               	decfsz	wreg,f,c
  6389  006448  D7FE               	bra	u2777
  6390  00644A  2E37               	decfsz	??_Draw_P4& (0+255),f,c
  6391  00644C  D7FC               	bra	u2777
  6392  00644E  D000               	nop2	
  6393                           
  6394                           ;main.c: 765:     PORTCbits.RC7 = 0;
  6395  006450  9E82               	bcf	3970,7,c	;volatile
  6396                           
  6397                           ;main.c: 766:     PORTB = 0x71;
  6398  006452  0E71               	movlw	113
  6399  006454  6E81               	movwf	3969,c	;volatile
  6400                           
  6401                           ;main.c: 767:     PORTCbits.RC6 = 1;
  6402  006456  8C82               	bsf	3970,6,c	;volatile
  6403                           
  6404                           ;main.c: 768:     _delay((unsigned long)((1600)*(20000000/4000000.0)));
  6405  006458  0E0B               	movlw	11
  6406  00645A  6E37               	movwf	??_Draw_P4& (0+255),c
  6407  00645C  0E62               	movlw	98
  6408  00645E                     u2787:
  6409  00645E  2EE8               	decfsz	wreg,f,c
  6410  006460  D7FE               	bra	u2787
  6411  006462  2E37               	decfsz	??_Draw_P4& (0+255),f,c
  6412  006464  D7FC               	bra	u2787
  6413  006466  D000               	nop2	
  6414                           
  6415                           ;main.c: 769:     PORTCbits.RC6 = 0;
  6416  006468  9C82               	bcf	3970,6,c	;volatile
  6417  00646A  0012               	return		;funcret
  6418  00646C                     __end_of_Draw_P4:
  6419                           	opt callstack 0
  6420                           
  6421 ;; *************** function _Draw_P3 *****************
  6422 ;; Defined at:
  6423 ;;		line 750 in file "main.c"
  6424 ;; Parameters:    Size  Location     Type
  6425 ;;		None
  6426 ;; Auto vars:     Size  Location     Type
  6427 ;;		None
  6428 ;; Return value:  Size  Location     Type
  6429 ;;                  1    wreg      void 
  6430 ;; Registers used:
  6431 ;;		wreg, status,2
  6432 ;; Tracked objects:
  6433 ;;		On entry : 0/0
  6434 ;;		On exit  : 0/0
  6435 ;;		Unchanged: 0/0
  6436 ;; Data sizes:     COMRAM   BANK0   BANK1   BANK2   BANK3   BANK4   BANK5   BANK6   BANK7
  6437 ;;      Params:         0       0       0       0       0       0       0       0       0
  6438 ;;      Locals:         0       0       0       0       0       0       0       0       0
  6439 ;;      Temps:          1       0       0       0       0       0       0       0       0
  6440 ;;      Totals:         1       0       0       0       0       0       0       0       0
  6441 ;;Total ram usage:        1 bytes
  6442 ;; Hardware stack levels used:    1
  6443 ;; This function calls:
  6444 ;;		Nothing
  6445 ;; This function is called by:
  6446 ;;		_Menu
  6447 ;; This function uses a non-reentrant model
  6448 ;;
  6449                           
  6450                           	psect	text39
  6451  006408                     __ptext39:
  6452                           	opt callstack 0
  6453  006408                     _Draw_P3:
  6454                           	opt callstack 28
  6455                           
  6456                           ;main.c: 751:     PORTB = 0xB0;
  6457                           
  6458                           ;incstack = 0
  6459  006408  0EB0               	movlw	176
  6460  00640A  6E81               	movwf	3969,c	;volatile
  6461                           
  6462                           ;main.c: 752:     PORTCbits.RC7 = 1;
  6463  00640C  8E82               	bsf	3970,7,c	;volatile
  6464                           
  6465                           ;main.c: 753:     _delay((unsigned long)((1600)*(20000000/4000000.0)));
  6466  00640E  0E0B               	movlw	11
  6467  006410  6E37               	movwf	??_Draw_P3& (0+255),c
  6468  006412  0E62               	movlw	98
  6469  006414                     u2797:
  6470  006414  2EE8               	decfsz	wreg,f,c
  6471  006416  D7FE               	bra	u2797
  6472  006418  2E37               	decfsz	??_Draw_P3& (0+255),f,c
  6473  00641A  D7FC               	bra	u2797
  6474  00641C  D000               	nop2	
  6475                           
  6476                           ;main.c: 754:     PORTCbits.RC7 = 0;
  6477  00641E  9E82               	bcf	3970,7,c	;volatile
  6478                           
  6479                           ;main.c: 755:     PORTB = 0x64;
  6480  006420  0E64               	movlw	100
  6481  006422  6E81               	movwf	3969,c	;volatile
  6482                           
  6483                           ;main.c: 756:     PORTCbits.RC6 = 1;
  6484  006424  8C82               	bsf	3970,6,c	;volatile
  6485                           
  6486                           ;main.c: 757:     _delay((unsigned long)((1600)*(20000000/4000000.0)));
  6487  006426  0E0B               	movlw	11
  6488  006428  6E37               	movwf	??_Draw_P3& (0+255),c
  6489  00642A  0E62               	movlw	98
  6490  00642C                     u2807:
  6491  00642C  2EE8               	decfsz	wreg,f,c
  6492  00642E  D7FE               	bra	u2807
  6493  006430  2E37               	decfsz	??_Draw_P3& (0+255),f,c
  6494  006432  D7FC               	bra	u2807
  6495  006434  D000               	nop2	
  6496                           
  6497                           ;main.c: 758:     PORTCbits.RC6 = 0;
  6498  006436  9C82               	bcf	3970,6,c	;volatile
  6499  006438  0012               	return		;funcret
  6500  00643A                     __end_of_Draw_P3:
  6501                           	opt callstack 0
  6502                           
  6503 ;; *************** function _Draw_P2 *****************
  6504 ;; Defined at:
  6505 ;;		line 739 in file "main.c"
  6506 ;; Parameters:    Size  Location     Type
  6507 ;;		None
  6508 ;; Auto vars:     Size  Location     Type
  6509 ;;		None
  6510 ;; Return value:  Size  Location     Type
  6511 ;;                  1    wreg      void 
  6512 ;; Registers used:
  6513 ;;		wreg, status,2
  6514 ;; Tracked objects:
  6515 ;;		On entry : 0/0
  6516 ;;		On exit  : 0/0
  6517 ;;		Unchanged: 0/0
  6518 ;; Data sizes:     COMRAM   BANK0   BANK1   BANK2   BANK3   BANK4   BANK5   BANK6   BANK7
  6519 ;;      Params:         0       0       0       0       0       0       0       0       0
  6520 ;;      Locals:         0       0       0       0       0       0       0       0       0
  6521 ;;      Temps:          1       0       0       0       0       0       0       0       0
  6522 ;;      Totals:         1       0       0       0       0       0       0       0       0
  6523 ;;Total ram usage:        1 bytes
  6524 ;; Hardware stack levels used:    1
  6525 ;; This function calls:
  6526 ;;		Nothing
  6527 ;; This function is called by:
  6528 ;;		_Menu
  6529 ;; This function uses a non-reentrant model
  6530 ;;
  6531                           
  6532                           	psect	text40
  6533  0063D6                     __ptext40:
  6534                           	opt callstack 0
  6535  0063D6                     _Draw_P2:
  6536                           	opt callstack 28
  6537                           
  6538                           ;main.c: 740:     PORTB = 0xB0;
  6539                           
  6540                           ;incstack = 0
  6541  0063D6  0EB0               	movlw	176
  6542  0063D8  6E81               	movwf	3969,c	;volatile
  6543                           
  6544                           ;main.c: 741:     PORTCbits.RC7 = 1;
  6545  0063DA  8E82               	bsf	3970,7,c	;volatile
  6546                           
  6547                           ;main.c: 742:     _delay((unsigned long)((1600)*(20000000/4000000.0)));
  6548  0063DC  0E0B               	movlw	11
  6549  0063DE  6E37               	movwf	??_Draw_P2& (0+255),c
  6550  0063E0  0E62               	movlw	98
  6551  0063E2                     u2817:
  6552  0063E2  2EE8               	decfsz	wreg,f,c
  6553  0063E4  D7FE               	bra	u2817
  6554  0063E6  2E37               	decfsz	??_Draw_P2& (0+255),f,c
  6555  0063E8  D7FC               	bra	u2817
  6556  0063EA  D000               	nop2	
  6557                           
  6558                           ;main.c: 743:     PORTCbits.RC7 = 0;
  6559  0063EC  9E82               	bcf	3970,7,c	;volatile
  6560                           
  6561                           ;main.c: 744:     PORTB = 0xA4;
  6562  0063EE  0EA4               	movlw	164
  6563  0063F0  6E81               	movwf	3969,c	;volatile
  6564                           
  6565                           ;main.c: 745:     PORTCbits.RC6 = 1;
  6566  0063F2  8C82               	bsf	3970,6,c	;volatile
  6567                           
  6568                           ;main.c: 746:     _delay((unsigned long)((1600)*(20000000/4000000.0)));
  6569  0063F4  0E0B               	movlw	11
  6570  0063F6  6E37               	movwf	??_Draw_P2& (0+255),c
  6571  0063F8  0E62               	movlw	98
  6572  0063FA                     u2827:
  6573  0063FA  2EE8               	decfsz	wreg,f,c
  6574  0063FC  D7FE               	bra	u2827
  6575  0063FE  2E37               	decfsz	??_Draw_P2& (0+255),f,c
  6576  006400  D7FC               	bra	u2827
  6577  006402  D000               	nop2	
  6578                           
  6579                           ;main.c: 747:     PORTCbits.RC6 = 0;
  6580  006404  9C82               	bcf	3970,6,c	;volatile
  6581  006406  0012               	return		;funcret
  6582  006408                     __end_of_Draw_P2:
  6583                           	opt callstack 0
  6584                           
  6585 ;; *************** function _Draw_P1 *****************
  6586 ;; Defined at:
  6587 ;;		line 728 in file "main.c"
  6588 ;; Parameters:    Size  Location     Type
  6589 ;;		None
  6590 ;; Auto vars:     Size  Location     Type
  6591 ;;		None
  6592 ;; Return value:  Size  Location     Type
  6593 ;;                  1    wreg      void 
  6594 ;; Registers used:
  6595 ;;		wreg, status,2
  6596 ;; Tracked objects:
  6597 ;;		On entry : 0/0
  6598 ;;		On exit  : 0/0
  6599 ;;		Unchanged: 0/0
  6600 ;; Data sizes:     COMRAM   BANK0   BANK1   BANK2   BANK3   BANK4   BANK5   BANK6   BANK7
  6601 ;;      Params:         0       0       0       0       0       0       0       0       0
  6602 ;;      Locals:         0       0       0       0       0       0       0       0       0
  6603 ;;      Temps:          1       0       0       0       0       0       0       0       0
  6604 ;;      Totals:         1       0       0       0       0       0       0       0       0
  6605 ;;Total ram usage:        1 bytes
  6606 ;; Hardware stack levels used:    1
  6607 ;; This function calls:
  6608 ;;		Nothing
  6609 ;; This function is called by:
  6610 ;;		_Menu
  6611 ;; This function uses a non-reentrant model
  6612 ;;
  6613                           
  6614                           	psect	text41
  6615  0063A4                     __ptext41:
  6616                           	opt callstack 0
  6617  0063A4                     _Draw_P1:
  6618                           	opt callstack 28
  6619                           
  6620                           ;main.c: 729:     PORTB = 0xB0;
  6621                           
  6622                           ;incstack = 0
  6623  0063A4  0EB0               	movlw	176
  6624  0063A6  6E81               	movwf	3969,c	;volatile
  6625                           
  6626                           ;main.c: 730:     PORTCbits.RC7 = 1;
  6627  0063A8  8E82               	bsf	3970,7,c	;volatile
  6628                           
  6629                           ;main.c: 731:     _delay((unsigned long)((1600)*(20000000/4000000.0)));
  6630  0063AA  0E0B               	movlw	11
  6631  0063AC  6E37               	movwf	??_Draw_P1& (0+255),c
  6632  0063AE  0E62               	movlw	98
  6633  0063B0                     u2837:
  6634  0063B0  2EE8               	decfsz	wreg,f,c
  6635  0063B2  D7FE               	bra	u2837
  6636  0063B4  2E37               	decfsz	??_Draw_P1& (0+255),f,c
  6637  0063B6  D7FC               	bra	u2837
  6638  0063B8  D000               	nop2	
  6639                           
  6640                           ;main.c: 732:     PORTCbits.RC7 = 0;
  6641  0063BA  9E82               	bcf	3970,7,c	;volatile
  6642                           
  6643                           ;main.c: 733:     PORTB = 0x7D;
  6644  0063BC  0E7D               	movlw	125
  6645  0063BE  6E81               	movwf	3969,c	;volatile
  6646                           
  6647                           ;main.c: 734:     PORTCbits.RC6 = 1;
  6648  0063C0  8C82               	bsf	3970,6,c	;volatile
  6649                           
  6650                           ;main.c: 735:     _delay((unsigned long)((1600)*(20000000/4000000.0)));
  6651  0063C2  0E0B               	movlw	11
  6652  0063C4  6E37               	movwf	??_Draw_P1& (0+255),c
  6653  0063C6  0E62               	movlw	98
  6654  0063C8                     u2847:
  6655  0063C8  2EE8               	decfsz	wreg,f,c
  6656  0063CA  D7FE               	bra	u2847
  6657  0063CC  2E37               	decfsz	??_Draw_P1& (0+255),f,c
  6658  0063CE  D7FC               	bra	u2847
  6659  0063D0  D000               	nop2	
  6660                           
  6661                           ;main.c: 736:     PORTCbits.RC6 = 0;
  6662  0063D2  9C82               	bcf	3970,6,c	;volatile
  6663  0063D4  0012               	return		;funcret
  6664  0063D6                     __end_of_Draw_P1:
  6665                           	opt callstack 0
  6666                           
  6667 ;; *************** function _Indicator *****************
  6668 ;; Defined at:
  6669 ;;		line 1076 in file "main.c"
  6670 ;; Parameters:    Size  Location     Type
  6671 ;;		None
  6672 ;; Auto vars:     Size  Location     Type
  6673 ;;		None
  6674 ;; Return value:  Size  Location     Type
  6675 ;;                  1    wreg      void 
  6676 ;; Registers used:
  6677 ;;		wreg, status,2, status,0
  6678 ;; Tracked objects:
  6679 ;;		On entry : 0/0
  6680 ;;		On exit  : 0/0
  6681 ;;		Unchanged: 0/0
  6682 ;; Data sizes:     COMRAM   BANK0   BANK1   BANK2   BANK3   BANK4   BANK5   BANK6   BANK7
  6683 ;;      Params:         0       0       0       0       0       0       0       0       0
  6684 ;;      Locals:         0       0       0       0       0       0       0       0       0
  6685 ;;      Temps:          0       0       0       0       0       0       0       0       0
  6686 ;;      Totals:         0       0       0       0       0       0       0       0       0
  6687 ;;Total ram usage:        0 bytes
  6688 ;; Hardware stack levels used:    1
  6689 ;; This function calls:
  6690 ;;		Nothing
  6691 ;; This function is called by:
  6692 ;;		_main
  6693 ;; This function uses a non-reentrant model
  6694 ;;
  6695                           
  6696                           	psect	text42
  6697  00681A                     __ptext42:
  6698                           	opt callstack 0
  6699  00681A                     _Indicator:
  6700                           	opt callstack 30
  6701                           
  6702                           ;main.c: 1077:     Inductive_State = PORTAbits.RA3;
  6703                           
  6704                           ;incstack = 0
  6705  00681A  A680               	btfss	3968,3,c	;volatile
  6706  00681C  D002               	goto	u520
  6707  00681E  0E01               	movlw	1
  6708  006820  D001               	goto	u526
  6709  006822                     u520:
  6710  006822  0E00               	movlw	0
  6711  006824                     u526:
  6712  006824  6E4E               	movwf	_Inductive_State,c
  6713                           
  6714                           ;main.c: 1078:     End_Stop_Close_State = PORTAbits.RA5;
  6715  006826  AA80               	btfss	3968,5,c	;volatile
  6716  006828  D002               	goto	u530
  6717  00682A  0E01               	movlw	1
  6718  00682C  D001               	goto	u536
  6719  00682E                     u530:
  6720  00682E  0E00               	movlw	0
  6721  006830                     u536:
  6722  006830  6E4D               	movwf	_End_Stop_Close_State,c
  6723                           
  6724                           ;main.c: 1079:     if (Inductive_State == 1 && End_Stop_Close_State == 0) {
  6725  006832  044E               	decf	_Inductive_State,w,c
  6726  006834  A4D8               	btfss	status,2,c
  6727  006836  D006               	goto	l2370
  6728  006838  504D               	movf	_End_Stop_Close_State,w,c
  6729  00683A  A4D8               	btfss	status,2,c
  6730  00683C  D003               	goto	l2370
  6731                           
  6732                           ;main.c: 1080:         PORTB = 0xFF;
  6733  00683E  6881               	setf	3969,c	;volatile
  6734                           
  6735                           ;main.c: 1081:         PORTCbits.RC7 = 1;
  6736  006840  8E82               	bsf	3970,7,c	;volatile
  6737                           
  6738                           ;main.c: 1082:     } else {
  6739  006842  0012               	return	
  6740  006844                     l2370:
  6741                           
  6742                           ;main.c: 1083:         Count_Led++;
  6743  006844  4A25               	infsnz	_Count_Led,f,c
  6744  006846  2A26               	incf	_Count_Led+1,f,c
  6745                           
  6746                           ;main.c: 1084:         if (Count_Led < 2) {
  6747  006848  BE26               	btfsc	_Count_Led+1,7,c
  6748  00684A  D006               	goto	u560
  6749  00684C  5026               	movf	_Count_Led+1,w,c
  6750  00684E  E107               	bnz	l2376
  6751  006850  0E02               	movlw	2
  6752  006852  5C25               	subwf	_Count_Led,w,c
  6753  006854  B0D8               	btfsc	status,0,c
  6754  006856  D003               	goto	l2376
  6755  006858                     u560:
  6756                           
  6757                           ;main.c: 1085:             PORTB = 0xFF;
  6758  006858  6881               	setf	3969,c	;volatile
  6759                           
  6760                           ;main.c: 1086:             PORTCbits.RC7 = 1;
  6761  00685A  8E82               	bsf	3970,7,c	;volatile
  6762                           
  6763                           ;main.c: 1087:         } else if (Count_Led >= 2 && Count_Led < 4) {
  6764  00685C  0012               	return	
  6765  00685E                     l2376:
  6766  00685E  BE26               	btfsc	_Count_Led+1,7,c
  6767  006860  D011               	goto	l576
  6768  006862  5026               	movf	_Count_Led+1,w,c
  6769  006864  E104               	bnz	u570
  6770  006866  0E02               	movlw	2
  6771  006868  5C25               	subwf	_Count_Led,w,c
  6772  00686A  A0D8               	btfss	status,0,c
  6773  00686C  D00B               	goto	l576
  6774  00686E                     u570:
  6775  00686E  BE26               	btfsc	_Count_Led+1,7,c
  6776  006870  D006               	goto	u580
  6777  006872  5026               	movf	_Count_Led+1,w,c
  6778  006874  E107               	bnz	l576
  6779  006876  0E04               	movlw	4
  6780  006878  5C25               	subwf	_Count_Led,w,c
  6781  00687A  B0D8               	btfsc	status,0,c
  6782  00687C  D003               	goto	l576
  6783  00687E                     u580:
  6784                           
  6785                           ;main.c: 1088:             PORTB = 0xFF;
  6786  00687E  6881               	setf	3969,c	;volatile
  6787                           
  6788                           ;main.c: 1089:             PORTCbits.RC7 = 0;
  6789  006880  9E82               	bcf	3970,7,c	;volatile
  6790                           
  6791                           ;main.c: 1090:         } else {
  6792  006882  0012               	return	
  6793  006884                     l576:
  6794                           
  6795                           ;main.c: 1091:             PORTB = 0xFF;
  6796  006884  6881               	setf	3969,c	;volatile
  6797                           
  6798                           ;main.c: 1092:             PORTCbits.RC7 = 0;
  6799  006886  9E82               	bcf	3970,7,c	;volatile
  6800                           
  6801                           ;main.c: 1093:             Count_Led = 0;
  6802  006888  0E00               	movlw	0
  6803  00688A  6E26               	movwf	_Count_Led+1,c
  6804  00688C  0E00               	movlw	0
  6805  00688E  6E25               	movwf	_Count_Led,c
  6806  006890  0012               	return		;funcret
  6807  006892                     __end_of_Indicator:
  6808                           	opt callstack 0
  6809                           
  6810 ;; *************** function _Close_Lock *****************
  6811 ;; Defined at:
  6812 ;;		line 178 in file "main.c"
  6813 ;; Parameters:    Size  Location     Type
  6814 ;;		None
  6815 ;; Auto vars:     Size  Location     Type
  6816 ;;		None
  6817 ;; Return value:  Size  Location     Type
  6818 ;;                  1    wreg      void 
  6819 ;; Registers used:
  6820 ;;		wreg, status,2, status,0, prodl, prodh, cstack
  6821 ;; Tracked objects:
  6822 ;;		On entry : 0/0
  6823 ;;		On exit  : 0/0
  6824 ;;		Unchanged: 0/0
  6825 ;; Data sizes:     COMRAM   BANK0   BANK1   BANK2   BANK3   BANK4   BANK5   BANK6   BANK7
  6826 ;;      Params:         0       0       0       0       0       0       0       0       0
  6827 ;;      Locals:         0       0       0       0       0       0       0       0       0
  6828 ;;      Temps:          2       0       0       0       0       0       0       0       0
  6829 ;;      Totals:         2       0       0       0       0       0       0       0       0
  6830 ;;Total ram usage:        2 bytes
  6831 ;; Hardware stack levels used:    1
  6832 ;; Hardware stack levels required when called:    3
  6833 ;; This function calls:
  6834 ;;		_Closing
  6835 ;;		___wmul
  6836 ;;		_eeprom_readx
  6837 ;; This function is called by:
  6838 ;;		_main
  6839 ;; This function uses a non-reentrant model
  6840 ;;
  6841                           
  6842                           	psect	text43
  6843  0076B2                     __ptext43:
  6844                           	opt callstack 0
  6845  0076B2                     _Close_Lock:
  6846                           	opt callstack 27
  6847                           
  6848                           ;main.c: 179:     Inductive_State = PORTAbits.RA3;
  6849                           
  6850                           ;incstack = 0
  6851  0076B2  A680               	btfss	3968,3,c	;volatile
  6852  0076B4  D002               	goto	u1580
  6853  0076B6  0E01               	movlw	1
  6854  0076B8  D001               	goto	u1586
  6855  0076BA                     u1580:
  6856  0076BA  0E00               	movlw	0
  6857  0076BC                     u1586:
  6858  0076BC  6E4E               	movwf	_Inductive_State,c
  6859                           
  6860                           ;main.c: 180:     _delay((unsigned long)((50)*(20000000/4000.0)));
  6861  0076BE  0E02               	movlw	2
  6862  0076C0  6E3E               	movwf	(??_Close_Lock+1)& (0+255),c
  6863  0076C2  0E45               	movlw	69
  6864  0076C4  6E3D               	movwf	??_Close_Lock& (0+255),c
  6865  0076C6  0EAA               	movlw	170
  6866  0076C8                     u2857:
  6867  0076C8  2EE8               	decfsz	wreg,f,c
  6868  0076CA  D7FE               	bra	u2857
  6869  0076CC  2E3D               	decfsz	??_Close_Lock& (0+255),f,c
  6870  0076CE  D7FC               	bra	u2857
  6871  0076D0  2E3E               	decfsz	(??_Close_Lock+1)& (0+255),f,c
  6872  0076D2  D7FA               	bra	u2857
  6873                           
  6874                           ;main.c: 181:     if(Inductive_State == 1 && Last_Inductive_State == 0) {
  6875  0076D4  044E               	decf	_Inductive_State,w,c
  6876  0076D6  A4D8               	btfss	status,2,c
  6877  0076D8  D1D5               	goto	l3730
  6878  0076DA  5036               	movf	_Last_Inductive_State,w,c
  6879  0076DC  A4D8               	btfss	status,2,c
  6880  0076DE  D1D2               	goto	l3730
  6881                           
  6882                           ;main.c: 182:         _delay((unsigned long)((50)*(20000000/4000.0)));
  6883  0076E0  0E02               	movlw	2
  6884  0076E2  6E3E               	movwf	(??_Close_Lock+1)& (0+255),c
  6885  0076E4  0E45               	movlw	69
  6886  0076E6  6E3D               	movwf	??_Close_Lock& (0+255),c
  6887  0076E8  0EAA               	movlw	170
  6888  0076EA                     u2867:
  6889  0076EA  2EE8               	decfsz	wreg,f,c
  6890  0076EC  D7FE               	bra	u2867
  6891  0076EE  2E3D               	decfsz	??_Close_Lock& (0+255),f,c
  6892  0076F0  D7FC               	bra	u2867
  6893  0076F2  2E3E               	decfsz	(??_Close_Lock+1)& (0+255),f,c
  6894  0076F4  D7FA               	bra	u2867
  6895                           
  6896                           ;main.c: 183:         End_Stop_Open_State = PORTAbits.RA4;
  6897  0076F6  A880               	btfss	3968,4,c	;volatile
  6898  0076F8  D002               	goto	u1610
  6899  0076FA  0E01               	movlw	1
  6900  0076FC  D001               	goto	u1616
  6901  0076FE                     u1610:
  6902  0076FE  0E00               	movlw	0
  6903  007700                     u1616:
  6904  007700  6E34               	movwf	_End_Stop_Open_State,c
  6905                           
  6906                           ;main.c: 184:         if(Inductive_State == 1 && Last_Inductive_State == 0 && End_Stop_O
      +                          pen_State == 0) {
  6907  007702  044E               	decf	_Inductive_State,w,c
  6908  007704  A4D8               	btfss	status,2,c
  6909  007706  D1BE               	goto	l3730
  6910  007708  5036               	movf	_Last_Inductive_State,w,c
  6911  00770A  A4D8               	btfss	status,2,c
  6912  00770C  D1BB               	goto	l3730
  6913  00770E  5034               	movf	_End_Stop_Open_State,w,c
  6914  007710  A4D8               	btfss	status,2,c
  6915  007712  D1B8               	goto	l3730
  6916                           
  6917                           ;main.c: 185:             _delay((unsigned long)((50)*(20000000/4000.0)));
  6918  007714  0E02               	movlw	2
  6919  007716  6E3E               	movwf	(??_Close_Lock+1)& (0+255),c
  6920  007718  0E45               	movlw	69
  6921  00771A  6E3D               	movwf	??_Close_Lock& (0+255),c
  6922  00771C  0EAA               	movlw	170
  6923  00771E                     u2877:
  6924  00771E  2EE8               	decfsz	wreg,f,c
  6925  007720  D7FE               	bra	u2877
  6926  007722  2E3D               	decfsz	??_Close_Lock& (0+255),f,c
  6927  007724  D7FC               	bra	u2877
  6928  007726  2E3E               	decfsz	(??_Close_Lock+1)& (0+255),f,c
  6929  007728  D7FA               	bra	u2877
  6930                           
  6931                           ;main.c: 186:             Count_Time_Close = 0;
  6932  00772A  0E00               	movlw	0
  6933  00772C  6E1D               	movwf	_Count_Time_Close,c
  6934  00772E  0E00               	movlw	0
  6935  007730  6E1E               	movwf	_Count_Time_Close+1,c
  6936  007732  0E00               	movlw	0
  6937  007734  6E1F               	movwf	_Count_Time_Close+2,c
  6938  007736  0E00               	movlw	0
  6939  007738  6E20               	movwf	_Count_Time_Close+3,c
  6940                           
  6941                           ;main.c: 187:             Time_Inductive_State = eeprom_readx(0x02);
  6942  00773A  0E00               	movlw	0
  6943  00773C  6E38               	movwf	eeprom_readx@address+1,c
  6944  00773E  0E02               	movlw	2
  6945  007740  6E37               	movwf	eeprom_readx@address,c
  6946  007742  EC66  F030         	call	_eeprom_readx	;wreg free
  6947  007746  6E3D               	movwf	??_Close_Lock& (0+255),c
  6948  007748  503D               	movf	??_Close_Lock,w,c
  6949  00774A  6E4A               	movwf	_Time_Inductive_State,c
  6950  00774C  6A4B               	clrf	_Time_Inductive_State+1,c
  6951                           
  6952                           ;main.c: 188:             Time_Inductive_State = Time_Inductive_State * 1000;
  6953  00774E  C04A  F037         	movff	_Time_Inductive_State,___wmul@multiplier
  6954  007752  C04B  F038         	movff	_Time_Inductive_State+1,___wmul@multiplier+1
  6955  007756  0E03               	movlw	3
  6956  007758  6E3A               	movwf	___wmul@multiplicand+1,c
  6957  00775A  0EE8               	movlw	232
  6958  00775C  6E39               	movwf	___wmul@multiplicand,c
  6959  00775E  EC8F  F030         	call	___wmul	;wreg free
  6960  007762  C037  F04A         	movff	?___wmul,_Time_Inductive_State
  6961  007766  C038  F04B         	movff	?___wmul+1,_Time_Inductive_State+1
  6962                           
  6963                           ;main.c: 189:             switch (Time_Inductive_State)
  6964  00776A  D0F9               	goto	l3724
  6965  00776C                     l3688:
  6966  00776C  0E0D               	movlw	13
  6967  00776E  6E3E               	movwf	(??_Close_Lock+1)& (0+255),c
  6968  007770  0EAF               	movlw	175
  6969  007772  6E3D               	movwf	??_Close_Lock& (0+255),c
  6970  007774  0EB6               	movlw	182
  6971  007776                     u2887:
  6972  007776  2EE8               	decfsz	wreg,f,c
  6973  007778  D7FE               	bra	u2887
  6974  00777A  2E3D               	decfsz	??_Close_Lock& (0+255),f,c
  6975  00777C  D7FC               	bra	u2887
  6976  00777E  2E3E               	decfsz	(??_Close_Lock+1)& (0+255),f,c
  6977  007780  D7FA               	bra	u2887
  6978  007782  D08E               	goto	L12
  6979  007784                     l3690:
  6980  007784  0E1A               	movlw	26
  6981  007786  6E3E               	movwf	(??_Close_Lock+1)& (0+255),c
  6982  007788  0E5E               	movlw	94
  6983  00778A  6E3D               	movwf	??_Close_Lock& (0+255),c
  6984  00778C  0E6E               	movlw	110
  6985  00778E                     u2897:
  6986  00778E  2EE8               	decfsz	wreg,f,c
  6987  007790  D7FE               	bra	u2897
  6988  007792  2E3D               	decfsz	??_Close_Lock& (0+255),f,c
  6989  007794  D7FC               	bra	u2897
  6990  007796  2E3E               	decfsz	(??_Close_Lock+1)& (0+255),f,c
  6991  007798  D7FA               	bra	u2897
  6992  00779A  D082               	goto	L12
  6993  00779C                     l3692:
  6994  00779C  0E33               	movlw	51
  6995  00779E  6E3E               	movwf	(??_Close_Lock+1)& (0+255),c
  6996  0077A0  0EBB               	movlw	187
  6997  0077A2  6E3D               	movwf	??_Close_Lock& (0+255),c
  6998  0077A4  0EE0               	movlw	224
  6999  0077A6                     u2907:
  7000  0077A6  2EE8               	decfsz	wreg,f,c
  7001  0077A8  D7FE               	bra	u2907
  7002  0077AA  2E3D               	decfsz	??_Close_Lock& (0+255),f,c
  7003  0077AC  D7FC               	bra	u2907
  7004  0077AE  2E3E               	decfsz	(??_Close_Lock+1)& (0+255),f,c
  7005  0077B0  D7FA               	bra	u2907
  7006  0077B2  D159               	goto	l199
  7007  0077B4                     l3694:
  7008  0077B4  0E4D               	movlw	77
  7009  0077B6  6E3E               	movwf	(??_Close_Lock+1)& (0+255),c
  7010  0077B8  0E19               	movlw	25
  7011  0077BA  6E3D               	movwf	??_Close_Lock& (0+255),c
  7012  0077BC  0E50               	movlw	80
  7013  0077BE                     u2917:
  7014  0077BE  2EE8               	decfsz	wreg,f,c
  7015  0077C0  D7FE               	bra	u2917
  7016  0077C2  2E3D               	decfsz	??_Close_Lock& (0+255),f,c
  7017  0077C4  D7FC               	bra	u2917
  7018  0077C6  2E3E               	decfsz	(??_Close_Lock+1)& (0+255),f,c
  7019  0077C8  D7FA               	bra	u2917
  7020  0077CA  D14D               	goto	l199
  7021  0077CC                     l3696:
  7022  0077CC  0E66               	movlw	102
  7023  0077CE  6E3E               	movwf	(??_Close_Lock+1)& (0+255),c
  7024  0077D0  0E76               	movlw	118
  7025  0077D2  6E3D               	movwf	??_Close_Lock& (0+255),c
  7026  0077D4  0EC1               	movlw	193
  7027  0077D6                     u2927:
  7028  0077D6  2EE8               	decfsz	wreg,f,c
  7029  0077D8  D7FE               	bra	u2927
  7030  0077DA  2E3D               	decfsz	??_Close_Lock& (0+255),f,c
  7031  0077DC  D7FC               	bra	u2927
  7032  0077DE  2E3E               	decfsz	(??_Close_Lock+1)& (0+255),f,c
  7033  0077E0  D7FA               	bra	u2927
  7034  0077E2  D0A4               	goto	L13
  7035  0077E4                     l3698:
  7036  0077E4  0E7F               	movlw	127
  7037  0077E6  6E3E               	movwf	(??_Close_Lock+1)& (0+255),c
  7038  0077E8  0ED4               	movlw	212
  7039  0077EA  6E3D               	movwf	??_Close_Lock& (0+255),c
  7040  0077EC  0E32               	movlw	50
  7041  0077EE                     u2937:
  7042  0077EE  2EE8               	decfsz	wreg,f,c
  7043  0077F0  D7FE               	bra	u2937
  7044  0077F2  2E3D               	decfsz	??_Close_Lock& (0+255),f,c
  7045  0077F4  D7FC               	bra	u2937
  7046  0077F6  2E3E               	decfsz	(??_Close_Lock+1)& (0+255),f,c
  7047  0077F8  D7FA               	bra	u2937
  7048  0077FA  D135               	goto	l199
  7049  0077FC                     l3700:
  7050  0077FC  0E99               	movlw	153
  7051  0077FE  6E3E               	movwf	(??_Close_Lock+1)& (0+255),c
  7052  007800  0E31               	movlw	49
  7053  007802  6E3D               	movwf	??_Close_Lock& (0+255),c
  7054  007804  0EA2               	movlw	162
  7055  007806                     u2947:
  7056  007806  2EE8               	decfsz	wreg,f,c
  7057  007808  D7FE               	bra	u2947
  7058  00780A  2E3D               	decfsz	??_Close_Lock& (0+255),f,c
  7059  00780C  D7FC               	bra	u2947
  7060  00780E  2E3E               	decfsz	(??_Close_Lock+1)& (0+255),f,c
  7061  007810  D7FA               	bra	u2947
  7062  007812  D046               	goto	L12
  7063  007814                     l3702:
  7064  007814  0EB2               	movlw	178
  7065  007816  6E3E               	movwf	(??_Close_Lock+1)& (0+255),c
  7066  007818  0E8F               	movlw	143
  7067  00781A  6E3D               	movwf	??_Close_Lock& (0+255),c
  7068  00781C  0E13               	movlw	19
  7069  00781E                     u2957:
  7070  00781E  2EE8               	decfsz	wreg,f,c
  7071  007820  D7FE               	bra	u2957
  7072  007822  2E3D               	decfsz	??_Close_Lock& (0+255),f,c
  7073  007824  D7FC               	bra	u2957
  7074  007826  2E3E               	decfsz	(??_Close_Lock+1)& (0+255),f,c
  7075  007828  D7FA               	bra	u2957
  7076  00782A  D080               	goto	L13
  7077  00782C                     l3704:
  7078  00782C  0ECB               	movlw	203
  7079  00782E  6E3E               	movwf	(??_Close_Lock+1)& (0+255),c
  7080  007830  0EEC               	movlw	236
  7081  007832  6E3D               	movwf	??_Close_Lock& (0+255),c
  7082  007834  0E84               	movlw	132
  7083  007836                     u2967:
  7084  007836  2EE8               	decfsz	wreg,f,c
  7085  007838  D7FE               	bra	u2967
  7086  00783A  2E3D               	decfsz	??_Close_Lock& (0+255),f,c
  7087  00783C  D7FC               	bra	u2967
  7088  00783E  2E3E               	decfsz	(??_Close_Lock+1)& (0+255),f,c
  7089  007840  D7FA               	bra	u2967
  7090  007842  D02E               	goto	L12
  7091  007844                     l3706:
  7092  007844  0EE5               	movlw	229
  7093  007846  6E3E               	movwf	(??_Close_Lock+1)& (0+255),c
  7094  007848  0E49               	movlw	73
  7095  00784A  6E3D               	movwf	??_Close_Lock& (0+255),c
  7096  00784C  0EF5               	movlw	245
  7097  00784E                     u2977:
  7098  00784E  2EE8               	decfsz	wreg,f,c
  7099  007850  D7FE               	bra	u2977
  7100  007852  2E3D               	decfsz	??_Close_Lock& (0+255),f,c
  7101  007854  D7FC               	bra	u2977
  7102  007856  2E3E               	decfsz	(??_Close_Lock+1)& (0+255),f,c
  7103  007858  D7FA               	bra	u2977
  7104  00785A  D068               	goto	L13
  7105  00785C                     l3708:
  7106  00785C  0EFE               	movlw	254
  7107  00785E  6E3E               	movwf	(??_Close_Lock+1)& (0+255),c
  7108  007860  0EA7               	movlw	167
  7109  007862  6E3D               	movwf	??_Close_Lock& (0+255),c
  7110  007864  0E66               	movlw	102
  7111  007866                     u2987:
  7112  007866  2EE8               	decfsz	wreg,f,c
  7113  007868  D7FE               	bra	u2987
  7114  00786A  2E3D               	decfsz	??_Close_Lock& (0+255),f,c
  7115  00786C  D7FC               	bra	u2987
  7116  00786E  2E3E               	decfsz	(??_Close_Lock+1)& (0+255),f,c
  7117  007870  D7FA               	bra	u2987
  7118  007872  D0F9               	goto	l199
  7119  007874                     l3710:
  7120  007874  0EFE               	movlw	254
  7121  007876  6E3E               	movwf	(??_Close_Lock+1)& (0+255),c
  7122  007878  0EA7               	movlw	167
  7123  00787A  6E3D               	movwf	??_Close_Lock& (0+255),c
  7124  00787C  0E66               	movlw	102
  7125  00787E                     u2997:
  7126  00787E  2EE8               	decfsz	wreg,f,c
  7127  007880  D7FE               	bra	u2997
  7128  007882  2E3D               	decfsz	??_Close_Lock& (0+255),f,c
  7129  007884  D7FC               	bra	u2997
  7130  007886  2E3E               	decfsz	(??_Close_Lock+1)& (0+255),f,c
  7131  007888  D7FA               	bra	u2997
  7132  00788A  0E1A               	movlw	26
  7133  00788C  6E3E               	movwf	(??_Close_Lock+1)& (0+255),c
  7134  00788E  0E5E               	movlw	94
  7135  007890  6E3D               	movwf	??_Close_Lock& (0+255),c
  7136  007892  0E6E               	movlw	110
  7137  007894                     u3007:
  7138  007894  2EE8               	decfsz	wreg,f,c
  7139  007896  D7FE               	bra	u3007
  7140  007898  2E3D               	decfsz	??_Close_Lock& (0+255),f,c
  7141  00789A  D7FC               	bra	u3007
  7142  00789C  2E3E               	decfsz	(??_Close_Lock+1)& (0+255),f,c
  7143  00789E  D7FA               	bra	u3007
  7144  0078A0                     L12:
  7145  0078A0  D000               	nop2	
  7146  0078A2  D0E1               	goto	l199
  7147  0078A4                     l3712:
  7148  0078A4  0EFE               	movlw	254
  7149  0078A6  6E3E               	movwf	(??_Close_Lock+1)& (0+255),c
  7150  0078A8  0EA7               	movlw	167
  7151  0078AA  6E3D               	movwf	??_Close_Lock& (0+255),c
  7152  0078AC  0E66               	movlw	102
  7153  0078AE                     u3017:
  7154  0078AE  2EE8               	decfsz	wreg,f,c
  7155  0078B0  D7FE               	bra	u3017
  7156  0078B2  2E3D               	decfsz	??_Close_Lock& (0+255),f,c
  7157  0078B4  D7FC               	bra	u3017
  7158  0078B6  2E3E               	decfsz	(??_Close_Lock+1)& (0+255),f,c
  7159  0078B8  D7FA               	bra	u3017
  7160  0078BA  0E33               	movlw	51
  7161  0078BC  6E3E               	movwf	(??_Close_Lock+1)& (0+255),c
  7162  0078BE  0EBB               	movlw	187
  7163  0078C0  6E3D               	movwf	??_Close_Lock& (0+255),c
  7164  0078C2  0EE0               	movlw	224
  7165  0078C4                     u3027:
  7166  0078C4  2EE8               	decfsz	wreg,f,c
  7167  0078C6  D7FE               	bra	u3027
  7168  0078C8  2E3D               	decfsz	??_Close_Lock& (0+255),f,c
  7169  0078CA  D7FC               	bra	u3027
  7170  0078CC  2E3E               	decfsz	(??_Close_Lock+1)& (0+255),f,c
  7171  0078CE  D7FA               	bra	u3027
  7172  0078D0  D0CA               	goto	l199
  7173  0078D2                     l3714:
  7174  0078D2  0EFE               	movlw	254
  7175  0078D4  6E3E               	movwf	(??_Close_Lock+1)& (0+255),c
  7176  0078D6  0EA7               	movlw	167
  7177  0078D8  6E3D               	movwf	??_Close_Lock& (0+255),c
  7178  0078DA  0E66               	movlw	102
  7179  0078DC                     u3037:
  7180  0078DC  2EE8               	decfsz	wreg,f,c
  7181  0078DE  D7FE               	bra	u3037
  7182  0078E0  2E3D               	decfsz	??_Close_Lock& (0+255),f,c
  7183  0078E2  D7FC               	bra	u3037
  7184  0078E4  2E3E               	decfsz	(??_Close_Lock+1)& (0+255),f,c
  7185  0078E6  D7FA               	bra	u3037
  7186  0078E8  0E4D               	movlw	77
  7187  0078EA  6E3E               	movwf	(??_Close_Lock+1)& (0+255),c
  7188  0078EC  0E19               	movlw	25
  7189  0078EE  6E3D               	movwf	??_Close_Lock& (0+255),c
  7190  0078F0  0E50               	movlw	80
  7191  0078F2                     u3047:
  7192  0078F2  2EE8               	decfsz	wreg,f,c
  7193  0078F4  D7FE               	bra	u3047
  7194  0078F6  2E3D               	decfsz	??_Close_Lock& (0+255),f,c
  7195  0078F8  D7FC               	bra	u3047
  7196  0078FA  2E3E               	decfsz	(??_Close_Lock+1)& (0+255),f,c
  7197  0078FC  D7FA               	bra	u3047
  7198  0078FE  D0B3               	goto	l199
  7199  007900                     l3716:
  7200  007900  0EFE               	movlw	254
  7201  007902  6E3E               	movwf	(??_Close_Lock+1)& (0+255),c
  7202  007904  0EA7               	movlw	167
  7203  007906  6E3D               	movwf	??_Close_Lock& (0+255),c
  7204  007908  0E66               	movlw	102
  7205  00790A                     u3057:
  7206  00790A  2EE8               	decfsz	wreg,f,c
  7207  00790C  D7FE               	bra	u3057
  7208  00790E  2E3D               	decfsz	??_Close_Lock& (0+255),f,c
  7209  007910  D7FC               	bra	u3057
  7210  007912  2E3E               	decfsz	(??_Close_Lock+1)& (0+255),f,c
  7211  007914  D7FA               	bra	u3057
  7212  007916  0E66               	movlw	102
  7213  007918  6E3E               	movwf	(??_Close_Lock+1)& (0+255),c
  7214  00791A  0E76               	movlw	118
  7215  00791C  6E3D               	movwf	??_Close_Lock& (0+255),c
  7216  00791E  0EC1               	movlw	193
  7217  007920                     u3067:
  7218  007920  2EE8               	decfsz	wreg,f,c
  7219  007922  D7FE               	bra	u3067
  7220  007924  2E3D               	decfsz	??_Close_Lock& (0+255),f,c
  7221  007926  D7FC               	bra	u3067
  7222  007928  2E3E               	decfsz	(??_Close_Lock+1)& (0+255),f,c
  7223  00792A  D7FA               	bra	u3067
  7224  00792C                     L13:
  7225  00792C  F000               	nop	
  7226  00792E  D09B               	goto	l199
  7227  007930                     l3718:
  7228  007930  0EFE               	movlw	254
  7229  007932  6E3E               	movwf	(??_Close_Lock+1)& (0+255),c
  7230  007934  0EA7               	movlw	167
  7231  007936  6E3D               	movwf	??_Close_Lock& (0+255),c
  7232  007938  0E66               	movlw	102
  7233  00793A                     u3077:
  7234  00793A  2EE8               	decfsz	wreg,f,c
  7235  00793C  D7FE               	bra	u3077
  7236  00793E  2E3D               	decfsz	??_Close_Lock& (0+255),f,c
  7237  007940  D7FC               	bra	u3077
  7238  007942  2E3E               	decfsz	(??_Close_Lock+1)& (0+255),f,c
  7239  007944  D7FA               	bra	u3077
  7240  007946  0E7F               	movlw	127
  7241  007948  6E3E               	movwf	(??_Close_Lock+1)& (0+255),c
  7242  00794A  0ED4               	movlw	212
  7243  00794C  6E3D               	movwf	??_Close_Lock& (0+255),c
  7244  00794E  0E32               	movlw	50
  7245  007950                     u3087:
  7246  007950  2EE8               	decfsz	wreg,f,c
  7247  007952  D7FE               	bra	u3087
  7248  007954  2E3D               	decfsz	??_Close_Lock& (0+255),f,c
  7249  007956  D7FC               	bra	u3087
  7250  007958  2E3E               	decfsz	(??_Close_Lock+1)& (0+255),f,c
  7251  00795A  D7FA               	bra	u3087
  7252  00795C  D084               	goto	l199
  7253  00795E                     l3724:
  7254  00795E  C04A  F03D         	movff	_Time_Inductive_State,??_Close_Lock
  7255  007962  C04B  F03E         	movff	_Time_Inductive_State+1,??_Close_Lock+1
  7256                           
  7257                           ; Switch on 2 bytes has been partitioned into a top level switch of size 1, and 16 sub-s
      +                          witches
  7258                           ; Switch size 1, requested type "simple"
  7259                           ; Number of cases is 16, Range of values is 0 to 58
  7260                           ; switch strategies available:
  7261                           ; Name         Instructions Cycles
  7262                           ; simple_byte           49    25 (average)
  7263                           ;	Chosen strategy is simple_byte
  7264  007966  503E               	movf	??_Close_Lock+1,w,c
  7265  007968  0A00               	xorlw	0	; case 0
  7266  00796A  B4D8               	btfsc	status,2,c
  7267  00796C  D02E               	goto	l4260
  7268  00796E  0A03               	xorlw	3	; case 3
  7269  007970  B4D8               	btfsc	status,2,c
  7270  007972  D02E               	goto	l4262
  7271  007974  0A04               	xorlw	4	; case 7
  7272  007976  B4D8               	btfsc	status,2,c
  7273  007978  D030               	goto	l4264
  7274  00797A  0A0C               	xorlw	12	; case 11
  7275  00797C  B4D8               	btfsc	status,2,c
  7276  00797E  D032               	goto	l4266
  7277  007980  0A04               	xorlw	4	; case 15
  7278  007982  B4D8               	btfsc	status,2,c
  7279  007984  D034               	goto	l4268
  7280  007986  0A1C               	xorlw	28	; case 19
  7281  007988  B4D8               	btfsc	status,2,c
  7282  00798A  D036               	goto	l4270
  7283  00798C  0A04               	xorlw	4	; case 23
  7284  00798E  B4D8               	btfsc	status,2,c
  7285  007990  D038               	goto	l4272
  7286  007992  0A0C               	xorlw	12	; case 27
  7287  007994  B4D8               	btfsc	status,2,c
  7288  007996  D03A               	goto	l4274
  7289  007998  0A04               	xorlw	4	; case 31
  7290  00799A  B4D8               	btfsc	status,2,c
  7291  00799C  D03C               	goto	l4276
  7292  00799E  0A3C               	xorlw	60	; case 35
  7293  0079A0  B4D8               	btfsc	status,2,c
  7294  0079A2  D03E               	goto	l4278
  7295  0079A4  0A04               	xorlw	4	; case 39
  7296  0079A6  B4D8               	btfsc	status,2,c
  7297  0079A8  D040               	goto	l4280
  7298  0079AA  0A0D               	xorlw	13	; case 42
  7299  0079AC  B4D8               	btfsc	status,2,c
  7300  0079AE  D042               	goto	l4282
  7301  0079B0  0A04               	xorlw	4	; case 46
  7302  0079B2  B4D8               	btfsc	status,2,c
  7303  0079B4  D044               	goto	l4284
  7304  0079B6  0A1C               	xorlw	28	; case 50
  7305  0079B8  B4D8               	btfsc	status,2,c
  7306  0079BA  D046               	goto	l4286
  7307  0079BC  0A04               	xorlw	4	; case 54
  7308  0079BE  B4D8               	btfsc	status,2,c
  7309  0079C0  D048               	goto	l4288
  7310  0079C2  0A0C               	xorlw	12	; case 58
  7311  0079C4  B4D8               	btfsc	status,2,c
  7312  0079C6  D04A               	goto	l4290
  7313  0079C8  D6D1               	goto	l3688
  7314  0079CA                     l4260:
  7315                           
  7316                           ; Switch size 1, requested type "simple"
  7317                           ; Number of cases is 1, Range of values is 0 to 0
  7318                           ; switch strategies available:
  7319                           ; Name         Instructions Cycles
  7320                           ; simple_byte            4     3 (average)
  7321                           ;	Chosen strategy is simple_byte
  7322  0079CA  503D               	movf	??_Close_Lock,w,c
  7323  0079CC  0A00               	xorlw	0	; case 0
  7324  0079CE  D6CE               	goto	l3688
  7325  0079D0                     l4262:
  7326                           
  7327                           ; Switch size 1, requested type "simple"
  7328                           ; Number of cases is 1, Range of values is 232 to 232
  7329                           ; switch strategies available:
  7330                           ; Name         Instructions Cycles
  7331                           ; simple_byte            4     3 (average)
  7332                           ;	Chosen strategy is simple_byte
  7333  0079D0  503D               	movf	??_Close_Lock,w,c
  7334  0079D2  0AE8               	xorlw	232	; case 232
  7335  0079D4  B4D8               	btfsc	status,2,c
  7336  0079D6  D6D6               	goto	l3690
  7337  0079D8  D6C9               	goto	l3688
  7338  0079DA                     l4264:
  7339                           
  7340                           ; Switch size 1, requested type "simple"
  7341                           ; Number of cases is 1, Range of values is 208 to 208
  7342                           ; switch strategies available:
  7343                           ; Name         Instructions Cycles
  7344                           ; simple_byte            4     3 (average)
  7345                           ;	Chosen strategy is simple_byte
  7346  0079DA  503D               	movf	??_Close_Lock,w,c
  7347  0079DC  0AD0               	xorlw	208	; case 208
  7348  0079DE  B4D8               	btfsc	status,2,c
  7349  0079E0  D6DD               	goto	l3692
  7350  0079E2  D6C4               	goto	l3688
  7351  0079E4                     l4266:
  7352                           
  7353                           ; Switch size 1, requested type "simple"
  7354                           ; Number of cases is 1, Range of values is 184 to 184
  7355                           ; switch strategies available:
  7356                           ; Name         Instructions Cycles
  7357                           ; simple_byte            4     3 (average)
  7358                           ;	Chosen strategy is simple_byte
  7359  0079E4  503D               	movf	??_Close_Lock,w,c
  7360  0079E6  0AB8               	xorlw	184	; case 184
  7361  0079E8  B4D8               	btfsc	status,2,c
  7362  0079EA  D6E4               	goto	l3694
  7363  0079EC  D6BF               	goto	l3688
  7364  0079EE                     l4268:
  7365                           
  7366                           ; Switch size 1, requested type "simple"
  7367                           ; Number of cases is 1, Range of values is 160 to 160
  7368                           ; switch strategies available:
  7369                           ; Name         Instructions Cycles
  7370                           ; simple_byte            4     3 (average)
  7371                           ;	Chosen strategy is simple_byte
  7372  0079EE  503D               	movf	??_Close_Lock,w,c
  7373  0079F0  0AA0               	xorlw	160	; case 160
  7374  0079F2  B4D8               	btfsc	status,2,c
  7375  0079F4  D6EB               	goto	l3696
  7376  0079F6  D6BA               	goto	l3688
  7377  0079F8                     l4270:
  7378                           
  7379                           ; Switch size 1, requested type "simple"
  7380                           ; Number of cases is 1, Range of values is 136 to 136
  7381                           ; switch strategies available:
  7382                           ; Name         Instructions Cycles
  7383                           ; simple_byte            4     3 (average)
  7384                           ;	Chosen strategy is simple_byte
  7385  0079F8  503D               	movf	??_Close_Lock,w,c
  7386  0079FA  0A88               	xorlw	136	; case 136
  7387  0079FC  B4D8               	btfsc	status,2,c
  7388  0079FE  D6F2               	goto	l3698
  7389  007A00  D6B5               	goto	l3688
  7390  007A02                     l4272:
  7391                           
  7392                           ; Switch size 1, requested type "simple"
  7393                           ; Number of cases is 1, Range of values is 112 to 112
  7394                           ; switch strategies available:
  7395                           ; Name         Instructions Cycles
  7396                           ; simple_byte            4     3 (average)
  7397                           ;	Chosen strategy is simple_byte
  7398  007A02  503D               	movf	??_Close_Lock,w,c
  7399  007A04  0A70               	xorlw	112	; case 112
  7400  007A06  B4D8               	btfsc	status,2,c
  7401  007A08  D6F9               	goto	l3700
  7402  007A0A  D6B0               	goto	l3688
  7403  007A0C                     l4274:
  7404                           
  7405                           ; Switch size 1, requested type "simple"
  7406                           ; Number of cases is 1, Range of values is 88 to 88
  7407                           ; switch strategies available:
  7408                           ; Name         Instructions Cycles
  7409                           ; simple_byte            4     3 (average)
  7410                           ;	Chosen strategy is simple_byte
  7411  007A0C  503D               	movf	??_Close_Lock,w,c
  7412  007A0E  0A58               	xorlw	88	; case 88
  7413  007A10  B4D8               	btfsc	status,2,c
  7414  007A12  D700               	goto	l3702
  7415  007A14  D6AB               	goto	l3688
  7416  007A16                     l4276:
  7417                           
  7418                           ; Switch size 1, requested type "simple"
  7419                           ; Number of cases is 1, Range of values is 64 to 64
  7420                           ; switch strategies available:
  7421                           ; Name         Instructions Cycles
  7422                           ; simple_byte            4     3 (average)
  7423                           ;	Chosen strategy is simple_byte
  7424  007A16  503D               	movf	??_Close_Lock,w,c
  7425  007A18  0A40               	xorlw	64	; case 64
  7426  007A1A  B4D8               	btfsc	status,2,c
  7427  007A1C  D707               	goto	l3704
  7428  007A1E  D6A6               	goto	l3688
  7429  007A20                     l4278:
  7430                           
  7431                           ; Switch size 1, requested type "simple"
  7432                           ; Number of cases is 1, Range of values is 40 to 40
  7433                           ; switch strategies available:
  7434                           ; Name         Instructions Cycles
  7435                           ; simple_byte            4     3 (average)
  7436                           ;	Chosen strategy is simple_byte
  7437  007A20  503D               	movf	??_Close_Lock,w,c
  7438  007A22  0A28               	xorlw	40	; case 40
  7439  007A24  B4D8               	btfsc	status,2,c
  7440  007A26  D70E               	goto	l3706
  7441  007A28  D6A1               	goto	l3688
  7442  007A2A                     l4280:
  7443                           
  7444                           ; Switch size 1, requested type "simple"
  7445                           ; Number of cases is 1, Range of values is 16 to 16
  7446                           ; switch strategies available:
  7447                           ; Name         Instructions Cycles
  7448                           ; simple_byte            4     3 (average)
  7449                           ;	Chosen strategy is simple_byte
  7450  007A2A  503D               	movf	??_Close_Lock,w,c
  7451  007A2C  0A10               	xorlw	16	; case 16
  7452  007A2E  B4D8               	btfsc	status,2,c
  7453  007A30  D715               	goto	l3708
  7454  007A32  D69C               	goto	l3688
  7455  007A34                     l4282:
  7456                           
  7457                           ; Switch size 1, requested type "simple"
  7458                           ; Number of cases is 1, Range of values is 248 to 248
  7459                           ; switch strategies available:
  7460                           ; Name         Instructions Cycles
  7461                           ; simple_byte            4     3 (average)
  7462                           ;	Chosen strategy is simple_byte
  7463  007A34  503D               	movf	??_Close_Lock,w,c
  7464  007A36  0AF8               	xorlw	248	; case 248
  7465  007A38  B4D8               	btfsc	status,2,c
  7466  007A3A  D71C               	goto	l3710
  7467  007A3C  D697               	goto	l3688
  7468  007A3E                     l4284:
  7469                           
  7470                           ; Switch size 1, requested type "simple"
  7471                           ; Number of cases is 1, Range of values is 224 to 224
  7472                           ; switch strategies available:
  7473                           ; Name         Instructions Cycles
  7474                           ; simple_byte            4     3 (average)
  7475                           ;	Chosen strategy is simple_byte
  7476  007A3E  503D               	movf	??_Close_Lock,w,c
  7477  007A40  0AE0               	xorlw	224	; case 224
  7478  007A42  B4D8               	btfsc	status,2,c
  7479  007A44  D72F               	goto	l3712
  7480  007A46  D692               	goto	l3688
  7481  007A48                     l4286:
  7482                           
  7483                           ; Switch size 1, requested type "simple"
  7484                           ; Number of cases is 1, Range of values is 200 to 200
  7485                           ; switch strategies available:
  7486                           ; Name         Instructions Cycles
  7487                           ; simple_byte            4     3 (average)
  7488                           ;	Chosen strategy is simple_byte
  7489  007A48  503D               	movf	??_Close_Lock,w,c
  7490  007A4A  0AC8               	xorlw	200	; case 200
  7491  007A4C  B4D8               	btfsc	status,2,c
  7492  007A4E  D741               	goto	l3714
  7493  007A50  D68D               	goto	l3688
  7494  007A52                     l4288:
  7495                           
  7496                           ; Switch size 1, requested type "simple"
  7497                           ; Number of cases is 1, Range of values is 176 to 176
  7498                           ; switch strategies available:
  7499                           ; Name         Instructions Cycles
  7500                           ; simple_byte            4     3 (average)
  7501                           ;	Chosen strategy is simple_byte
  7502  007A52  503D               	movf	??_Close_Lock,w,c
  7503  007A54  0AB0               	xorlw	176	; case 176
  7504  007A56  B4D8               	btfsc	status,2,c
  7505  007A58  D753               	goto	l3716
  7506  007A5A  D688               	goto	l3688
  7507  007A5C                     l4290:
  7508                           
  7509                           ; Switch size 1, requested type "simple"
  7510                           ; Number of cases is 1, Range of values is 152 to 152
  7511                           ; switch strategies available:
  7512                           ; Name         Instructions Cycles
  7513                           ; simple_byte            4     3 (average)
  7514                           ;	Chosen strategy is simple_byte
  7515  007A5C  503D               	movf	??_Close_Lock,w,c
  7516  007A5E  0A98               	xorlw	152	; case 152
  7517  007A60  B4D8               	btfsc	status,2,c
  7518  007A62  D766               	goto	l3718
  7519  007A64  D683               	goto	l3688
  7520  007A66                     l199:
  7521                           
  7522                           ;main.c: 209:             PORTCbits.RC1 = 1;
  7523  007A66  8282               	bsf	3970,1,c	;volatile
  7524                           
  7525                           ;main.c: 210:             _delay((unsigned long)((1000)*(20000000/4000.0)));
  7526  007A68  0E1A               	movlw	26
  7527  007A6A  6E3E               	movwf	(??_Close_Lock+1)& (0+255),c
  7528  007A6C  0E5E               	movlw	94
  7529  007A6E  6E3D               	movwf	??_Close_Lock& (0+255),c
  7530  007A70  0E6E               	movlw	110
  7531  007A72                     u3097:
  7532  007A72  2EE8               	decfsz	wreg,f,c
  7533  007A74  D7FE               	bra	u3097
  7534  007A76  2E3D               	decfsz	??_Close_Lock& (0+255),f,c
  7535  007A78  D7FC               	bra	u3097
  7536  007A7A  2E3E               	decfsz	(??_Close_Lock+1)& (0+255),f,c
  7537  007A7C  D7FA               	bra	u3097
  7538  007A7E  D000               	nop2	
  7539                           
  7540                           ;main.c: 211:             Closing();
  7541  007A80  ECB7  F035         	call	_Closing	;wreg free
  7542  007A84                     l3730:
  7543                           
  7544                           ;main.c: 222:     Last_Inductive_State = Inductive_State;
  7545  007A84  C04E  F036         	movff	_Inductive_State,_Last_Inductive_State
  7546  007A88  0012               	return		;funcret
  7547  007A8A                     __end_of_Close_Lock:
  7548                           	opt callstack 0
  7549                           
  7550 ;; *************** function _eeprom_readx *****************
  7551 ;; Defined at:
  7552 ;;		line 396 in file "main.c"
  7553 ;; Parameters:    Size  Location     Type
  7554 ;;  address         2    0[COMRAM] int 
  7555 ;; Auto vars:     Size  Location     Type
  7556 ;;		None
  7557 ;; Return value:  Size  Location     Type
  7558 ;;                  1    wreg      unsigned char 
  7559 ;; Registers used:
  7560 ;;		wreg, status,2
  7561 ;; Tracked objects:
  7562 ;;		On entry : 0/0
  7563 ;;		On exit  : 0/0
  7564 ;;		Unchanged: 0/0
  7565 ;; Data sizes:     COMRAM   BANK0   BANK1   BANK2   BANK3   BANK4   BANK5   BANK6   BANK7
  7566 ;;      Params:         2       0       0       0       0       0       0       0       0
  7567 ;;      Locals:         0       0       0       0       0       0       0       0       0
  7568 ;;      Temps:          0       0       0       0       0       0       0       0       0
  7569 ;;      Totals:         2       0       0       0       0       0       0       0       0
  7570 ;;Total ram usage:        2 bytes
  7571 ;; Hardware stack levels used:    1
  7572 ;; This function calls:
  7573 ;;		Nothing
  7574 ;; This function is called by:
  7575 ;;		_main
  7576 ;;		_Close_Lock
  7577 ;;		_Open_Lock
  7578 ;; This function uses a non-reentrant model
  7579 ;;
  7580                           
  7581                           	psect	text44
  7582  0060CC                     __ptext44:
  7583                           	opt callstack 0
  7584  0060CC                     _eeprom_readx:
  7585                           	opt callstack 30
  7586                           
  7587                           ;main.c: 397:     EEADR = address;
  7588                           
  7589                           ;incstack = 0
  7590  0060CC  C037  FFA9         	movff	eeprom_readx@address,4009	;volatile
  7591                           
  7592                           ;main.c: 398:     EECON1bits.EEPGD = 0;
  7593  0060D0  9EA6               	bcf	4006,7,c	;volsfr
  7594                           
  7595                           ;main.c: 399:     EECON1bits.CFGS = 0;
  7596  0060D2  9CA6               	bcf	4006,6,c	;volsfr
  7597                           
  7598                           ;main.c: 400:     EECON1bits.RD = 1;
  7599  0060D4  80A6               	bsf	4006,0,c	;volsfr
  7600                           
  7601                           ;main.c: 401:     return(EEDATA);
  7602  0060D6  50A8               	movf	4008,w,c	;volatile
  7603  0060D8  0012               	return		;funcret
  7604  0060DA                     __end_of_eeprom_readx:
  7605                           	opt callstack 0
  7606                           
  7607 ;; *************** function ___wmul *****************
  7608 ;; Defined at:
  7609 ;;		line 15 in file "C:\Program Files (x86)\Microchip\xc8\v2.05\pic\sources\c99\common\Umul16.c"
  7610 ;; Parameters:    Size  Location     Type
  7611 ;;  multiplier      2    0[COMRAM] unsigned int 
  7612 ;;  multiplicand    2    2[COMRAM] unsigned int 
  7613 ;; Auto vars:     Size  Location     Type
  7614 ;;  product         2    4[COMRAM] unsigned int 
  7615 ;; Return value:  Size  Location     Type
  7616 ;;                  2    0[COMRAM] unsigned int 
  7617 ;; Registers used:
  7618 ;;		wreg, status,2, status,0, prodl, prodh
  7619 ;; Tracked objects:
  7620 ;;		On entry : 0/0
  7621 ;;		On exit  : 0/0
  7622 ;;		Unchanged: 0/0
  7623 ;; Data sizes:     COMRAM   BANK0   BANK1   BANK2   BANK3   BANK4   BANK5   BANK6   BANK7
  7624 ;;      Params:         4       0       0       0       0       0       0       0       0
  7625 ;;      Locals:         2       0       0       0       0       0       0       0       0
  7626 ;;      Temps:          0       0       0       0       0       0       0       0       0
  7627 ;;      Totals:         6       0       0       0       0       0       0       0       0
  7628 ;;Total ram usage:        6 bytes
  7629 ;; Hardware stack levels used:    1
  7630 ;; This function calls:
  7631 ;;		Nothing
  7632 ;; This function is called by:
  7633 ;;		_Close_Lock
  7634 ;;		_Open_Lock
  7635 ;; This function uses a non-reentrant model
  7636 ;;
  7637                           
  7638                           	psect	text45
  7639  00611E                     __ptext45:
  7640                           	opt callstack 0
  7641  00611E                     ___wmul:
  7642                           	opt callstack 29
  7643                           
  7644                           ;incstack = 0
  7645  00611E  5037               	movf	___wmul@multiplier,w,c
  7646  006120  0239               	mulwf	___wmul@multiplicand,c
  7647  006122  CFF3 F03B          	movff	prodl,___wmul@product
  7648  006126  CFF4 F03C          	movff	prodh,___wmul@product+1
  7649  00612A  5037               	movf	___wmul@multiplier,w,c
  7650  00612C  023A               	mulwf	___wmul@multiplicand+1,c
  7651  00612E  50F3               	movf	prodl,w,c
  7652  006130  263C               	addwf	___wmul@product+1,f,c
  7653  006132  5038               	movf	___wmul@multiplier+1,w,c
  7654  006134  0239               	mulwf	___wmul@multiplicand,c
  7655  006136  50F3               	movf	prodl,w,c
  7656  006138  263C               	addwf	___wmul@product+1,f,c
  7657  00613A  C03B  F037         	movff	___wmul@product,?___wmul
  7658  00613E  C03C  F038         	movff	___wmul@product+1,?___wmul+1
  7659  006142  0012               	return		;funcret
  7660  006144                     __end_of___wmul:
  7661                           	opt callstack 0
  7662                           
  7663 ;; *************** function _Closing *****************
  7664 ;; Defined at:
  7665 ;;		line 313 in file "main.c"
  7666 ;; Parameters:    Size  Location     Type
  7667 ;;		None
  7668 ;; Auto vars:     Size  Location     Type
  7669 ;;		None
  7670 ;; Return value:  Size  Location     Type
  7671 ;;                  1    wreg      void 
  7672 ;; Registers used:
  7673 ;;		wreg, status,2, status,0, cstack
  7674 ;; Tracked objects:
  7675 ;;		On entry : 0/0
  7676 ;;		On exit  : 0/0
  7677 ;;		Unchanged: 0/0
  7678 ;; Data sizes:     COMRAM   BANK0   BANK1   BANK2   BANK3   BANK4   BANK5   BANK6   BANK7
  7679 ;;      Params:         0       0       0       0       0       0       0       0       0
  7680 ;;      Locals:         0       0       0       0       0       0       0       0       0
  7681 ;;      Temps:          2       0       0       0       0       0       0       0       0
  7682 ;;      Totals:         2       0       0       0       0       0       0       0       0
  7683 ;;Total ram usage:        2 bytes
  7684 ;; Hardware stack levels used:    1
  7685 ;; Hardware stack levels required when called:    2
  7686 ;; This function calls:
  7687 ;;		_Analog_Read
  7688 ;;		_Sense_Current
  7689 ;; This function is called by:
  7690 ;;		_Close_Lock
  7691 ;;		_Open_Lock
  7692 ;; This function uses a non-reentrant model
  7693 ;;
  7694                           
  7695                           	psect	text46
  7696  006B6E                     __ptext46:
  7697                           	opt callstack 0
  7698  006B6E                     _Closing:
  7699                           	opt callstack 27
  7700                           
  7701                           ;main.c: 314:     Count_Time_Close = 0;
  7702                           
  7703                           ;incstack = 0
  7704  006B6E  0E00               	movlw	0
  7705  006B70  6E1D               	movwf	_Count_Time_Close,c
  7706  006B72  0E00               	movlw	0
  7707  006B74  6E1E               	movwf	_Count_Time_Close+1,c
  7708  006B76  0E00               	movlw	0
  7709  006B78  6E1F               	movwf	_Count_Time_Close+2,c
  7710  006B7A  0E00               	movlw	0
  7711  006B7C  6E20               	movwf	_Count_Time_Close+3,c
  7712                           
  7713                           ;main.c: 315:     _delay((unsigned long)((1000)*(20000000/4000.0)));
  7714  006B7E  0E1A               	movlw	26
  7715  006B80  6E3A               	movwf	(??_Closing+1)& (0+255),c
  7716  006B82  0E5E               	movlw	94
  7717  006B84  6E39               	movwf	??_Closing& (0+255),c
  7718  006B86  0E6E               	movlw	110
  7719  006B88                     u3107:
  7720  006B88  2EE8               	decfsz	wreg,f,c
  7721  006B8A  D7FE               	bra	u3107
  7722  006B8C  2E39               	decfsz	??_Closing& (0+255),f,c
  7723  006B8E  D7FC               	bra	u3107
  7724  006B90  2E3A               	decfsz	(??_Closing+1)& (0+255),f,c
  7725  006B92  D7FA               	bra	u3107
  7726  006B94  D000               	nop2	
  7727  006B96                     l3480:
  7728                           
  7729                           ;main.c: 317:         PORTCbits.RC1 = 1;
  7730  006B96  8282               	bsf	3970,1,c	;volatile
  7731                           
  7732                           ;main.c: 318:         End_Stop_Close_State = PORTAbits.RA5;
  7733  006B98  AA80               	btfss	3968,5,c	;volatile
  7734  006B9A  D002               	goto	u1310
  7735  006B9C  0E01               	movlw	1
  7736  006B9E  D001               	goto	u1316
  7737  006BA0                     u1310:
  7738  006BA0  0E00               	movlw	0
  7739  006BA2                     u1316:
  7740  006BA2  6E4D               	movwf	_End_Stop_Close_State,c
  7741                           
  7742                           ;main.c: 319:         if(End_Stop_Close_State == 0) {
  7743  006BA4  504D               	movf	_End_Stop_Close_State,w,c
  7744  006BA6  A4D8               	btfss	status,2,c
  7745  006BA8  D014               	goto	l3494
  7746                           
  7747                           ;main.c: 320:             _delay((unsigned long)((250)*(20000000/4000.0)));
  7748  006BAA  0E07               	movlw	7
  7749  006BAC  6E3A               	movwf	(??_Closing+1)& (0+255),c
  7750  006BAE  0E58               	movlw	88
  7751  006BB0  6E39               	movwf	??_Closing& (0+255),c
  7752  006BB2  0E5A               	movlw	90
  7753  006BB4                     u3117:
  7754  006BB4  2EE8               	decfsz	wreg,f,c
  7755  006BB6  D7FE               	bra	u3117
  7756  006BB8  2E39               	decfsz	??_Closing& (0+255),f,c
  7757  006BBA  D7FC               	bra	u3117
  7758  006BBC  2E3A               	decfsz	(??_Closing+1)& (0+255),f,c
  7759  006BBE  D7FA               	bra	u3117
  7760                           
  7761                           ;main.c: 321:             End_Stop_Close_State = PORTAbits.RA5;
  7762  006BC0  AA80               	btfss	3968,5,c	;volatile
  7763  006BC2  D002               	goto	u1330
  7764  006BC4  0E01               	movlw	1
  7765  006BC6  D001               	goto	u1336
  7766  006BC8                     u1330:
  7767  006BC8  0E00               	movlw	0
  7768  006BCA                     u1336:
  7769  006BCA  6E4D               	movwf	_End_Stop_Close_State,c
  7770                           
  7771                           ;main.c: 322:             if(End_Stop_Close_State == 0) {
  7772  006BCC  504D               	movf	_End_Stop_Close_State,w,c
  7773  006BCE  B4D8               	btfsc	status,2,c
  7774  006BD0  D03C               	goto	u1380
  7775  006BD2                     l3494:
  7776                           
  7777                           ;main.c: 326:         Count_Time_Close++;
  7778  006BD2  0E01               	movlw	1
  7779  006BD4  261D               	addwf	_Count_Time_Close,f,c
  7780  006BD6  0E00               	movlw	0
  7781  006BD8  221E               	addwfc	_Count_Time_Close+1,f,c
  7782  006BDA  221F               	addwfc	_Count_Time_Close+2,f,c
  7783  006BDC  2220               	addwfc	_Count_Time_Close+3,f,c
  7784                           
  7785                           ;main.c: 327:         Current = Analog_Read();
  7786  006BDE  ECA2  F030         	call	_Analog_Read	;wreg free
  7787  006BE2  C037  F029         	movff	?_Analog_Read,_Current
  7788  006BE6  C038  F02A         	movff	?_Analog_Read+1,_Current+1
  7789                           
  7790                           ;main.c: 328:         Sense_Current();
  7791  006BEA  ECB6  F030         	call	_Sense_Current	;wreg free
  7792                           
  7793                           ;main.c: 329:         if(Count_Time_Close == 250000) {
  7794  006BEE  0E90               	movlw	144
  7795  006BF0  181D               	xorwf	_Count_Time_Close,w,c
  7796  006BF2  E111               	bnz	l3504
  7797  006BF4  0ED0               	movlw	208
  7798  006BF6  181E               	xorwf	_Count_Time_Close+1,w,c
  7799  006BF8  E10E               	bnz	l3504
  7800  006BFA  0E03               	movlw	3
  7801  006BFC  181F               	xorwf	_Count_Time_Close+2,w,c
  7802  006BFE  1020               	iorwf	_Count_Time_Close+3,w,c
  7803  006C00  A4D8               	btfss	status,2,c
  7804  006C02  D009               	goto	l3504
  7805                           
  7806                           ;main.c: 330:             Count_Time_Close = 0;
  7807  006C04  0E00               	movlw	0
  7808  006C06  6E1D               	movwf	_Count_Time_Close,c
  7809  006C08  0E00               	movlw	0
  7810  006C0A  6E1E               	movwf	_Count_Time_Close+1,c
  7811  006C0C  0E00               	movlw	0
  7812  006C0E  6E1F               	movwf	_Count_Time_Close+2,c
  7813  006C10  0E00               	movlw	0
  7814  006C12  6E20               	movwf	_Count_Time_Close+3,c
  7815                           
  7816                           ;main.c: 331:             break;
  7817  006C14  D01A               	goto	u1380
  7818  006C16                     l3504:
  7819  006C16  BE2A               	btfsc	_Current+1,7,c
  7820  006C18  D015               	goto	l3512
  7821  006C1A  0E0D               	movlw	13
  7822  006C1C  5C29               	subwf	_Current,w,c
  7823  006C1E  0E02               	movlw	2
  7824  006C20  582A               	subwfb	_Current+1,w,c
  7825  006C22  A0D8               	btfss	status,0,c
  7826  006C24  D00F               	goto	l3512
  7827                           
  7828                           ;main.c: 333:             Count_Peake_Current++;
  7829  006C26  4A2B               	infsnz	_Count_Peake_Current,f,c
  7830  006C28  2A2C               	incf	_Count_Peake_Current+1,f,c
  7831                           
  7832                           ;main.c: 334:             if (Count_Peake_Current > 4000) {
  7833  006C2A  BE2C               	btfsc	_Count_Peake_Current+1,7,c
  7834  006C2C  D00B               	goto	l3512
  7835  006C2E  0EA1               	movlw	161
  7836  006C30  5C2B               	subwf	_Count_Peake_Current,w,c
  7837  006C32  0E0F               	movlw	15
  7838  006C34  582C               	subwfb	_Count_Peake_Current+1,w,c
  7839  006C36  A0D8               	btfss	status,0,c
  7840  006C38  D005               	goto	l3512
  7841                           
  7842                           ;main.c: 335:                 Count_Peake_Current = 0;
  7843  006C3A  0E00               	movlw	0
  7844  006C3C  6E2C               	movwf	_Count_Peake_Current+1,c
  7845  006C3E  0E00               	movlw	0
  7846  006C40  6E2B               	movwf	_Count_Peake_Current,c
  7847                           
  7848                           ;main.c: 336:                 break;
  7849  006C42  D003               	goto	u1380
  7850  006C44                     l3512:
  7851                           
  7852                           ;main.c: 339:     } while(End_Stop_Close_State == 1);
  7853  006C44  044D               	decf	_End_Stop_Close_State,w,c
  7854  006C46  B4D8               	btfsc	status,2,c
  7855  006C48  D7A6               	goto	l3480
  7856  006C4A                     u1380:
  7857                           
  7858                           ;main.c: 340:     _delay((unsigned long)((20)*(20000000/4000.0)));
  7859  006C4A  0E82               	movlw	130
  7860  006C4C  6E39               	movwf	??_Closing& (0+255),c
  7861  006C4E  0EDE               	movlw	222
  7862  006C50                     u3127:
  7863  006C50  2EE8               	decfsz	wreg,f,c
  7864  006C52  D7FE               	bra	u3127
  7865  006C54  2E39               	decfsz	??_Closing& (0+255),f,c
  7866  006C56  D7FC               	bra	u3127
  7867                           
  7868                           ;main.c: 341:     PORTCbits.RC1 = 0;
  7869  006C58  9282               	bcf	3970,1,c	;volatile
  7870                           
  7871                           ;main.c: 342:     Count_Time_Close = 0;
  7872  006C5A  0E00               	movlw	0
  7873  006C5C  6E1D               	movwf	_Count_Time_Close,c
  7874  006C5E  0E00               	movlw	0
  7875  006C60  6E1E               	movwf	_Count_Time_Close+1,c
  7876  006C62  0E00               	movlw	0
  7877  006C64  6E1F               	movwf	_Count_Time_Close+2,c
  7878  006C66  0E00               	movlw	0
  7879  006C68  6E20               	movwf	_Count_Time_Close+3,c
  7880                           
  7881                           ;main.c: 343:     Count_Peake_Current = 0;
  7882  006C6A  0E00               	movlw	0
  7883  006C6C  6E2C               	movwf	_Count_Peake_Current+1,c
  7884  006C6E  0E00               	movlw	0
  7885  006C70  6E2B               	movwf	_Count_Peake_Current,c
  7886                           
  7887                           ;main.c: 344:     Toggle_Up = 0;
  7888  006C72  0E00               	movlw	0
  7889  006C74  6E31               	movwf	_Toggle_Up,c
  7890                           
  7891                           ;main.c: 345:     Toggle_Down = 0;
  7892  006C76  0E00               	movlw	0
  7893  006C78  6E30               	movwf	_Toggle_Down,c
  7894  006C7A  0012               	return		;funcret
  7895  006C7C                     __end_of_Closing:
  7896                           	opt callstack 0
  7897                           
  7898 ;; *************** function _Sense_Current *****************
  7899 ;; Defined at:
  7900 ;;		line 365 in file "main.c"
  7901 ;; Parameters:    Size  Location     Type
  7902 ;;		None
  7903 ;; Auto vars:     Size  Location     Type
  7904 ;;		None
  7905 ;; Return value:  Size  Location     Type
  7906 ;;                  1    wreg      void 
  7907 ;; Registers used:
  7908 ;;		wreg, status,2, status,0, cstack
  7909 ;; Tracked objects:
  7910 ;;		On entry : 0/0
  7911 ;;		On exit  : 0/0
  7912 ;;		Unchanged: 0/0
  7913 ;; Data sizes:     COMRAM   BANK0   BANK1   BANK2   BANK3   BANK4   BANK5   BANK6   BANK7
  7914 ;;      Params:         0       0       0       0       0       0       0       0       0
  7915 ;;      Locals:         0       0       0       0       0       0       0       0       0
  7916 ;;      Temps:          0       0       0       0       0       0       0       0       0
  7917 ;;      Totals:         0       0       0       0       0       0       0       0       0
  7918 ;;Total ram usage:        0 bytes
  7919 ;; Hardware stack levels used:    1
  7920 ;; Hardware stack levels required when called:    1
  7921 ;; This function calls:
  7922 ;;		_Analog_Read
  7923 ;;		_Clear
  7924 ;;		_Draw_CL
  7925 ;; This function is called by:
  7926 ;;		_Open_Lock
  7927 ;;		_Closing
  7928 ;; This function uses a non-reentrant model
  7929 ;;
  7930                           
  7931                           	psect	text47
  7932  00616C                     __ptext47:
  7933                           	opt callstack 0
  7934  00616C                     _Sense_Current:
  7935                           	opt callstack 28
  7936                           
  7937                           ;main.c: 366:     Current = Analog_Read();
  7938                           
  7939                           ;incstack = 0
  7940  00616C  ECA2  F030         	call	_Analog_Read	;wreg free
  7941  006170  C037  F029         	movff	?_Analog_Read,_Current
  7942  006174  C038  F02A         	movff	?_Analog_Read+1,_Current+1
  7943                           
  7944                           ;main.c: 367:         if (Current > 524) {
  7945  006178  BE2A               	btfsc	_Current+1,7,c
  7946  00617A  D009               	goto	l2998
  7947  00617C  0E0D               	movlw	13
  7948  00617E  5C29               	subwf	_Current,w,c
  7949  006180  0E02               	movlw	2
  7950  006182  582A               	subwfb	_Current+1,w,c
  7951  006184  A0D8               	btfss	status,0,c
  7952  006186  D003               	goto	l2998
  7953                           
  7954                           ;main.c: 368:             Draw_CL();
  7955  006188  EC6D  F030         	call	_Draw_CL	;wreg free
  7956                           
  7957                           ;main.c: 369:         } else {
  7958  00618C  0012               	return	
  7959  00618E                     l2998:
  7960                           
  7961                           ;main.c: 370:             Clear();
  7962  00618E  EC61  F030         	call	_Clear	;wreg free
  7963  006192  0012               	return		;funcret
  7964  006194                     __end_of_Sense_Current:
  7965                           	opt callstack 0
  7966                           
  7967 ;; *************** function _Draw_CL *****************
  7968 ;; Defined at:
  7969 ;;		line 717 in file "main.c"
  7970 ;; Parameters:    Size  Location     Type
  7971 ;;		None
  7972 ;; Auto vars:     Size  Location     Type
  7973 ;;		None
  7974 ;; Return value:  Size  Location     Type
  7975 ;;                  1    wreg      void 
  7976 ;; Registers used:
  7977 ;;		wreg, status,2
  7978 ;; Tracked objects:
  7979 ;;		On entry : 0/0
  7980 ;;		On exit  : 0/0
  7981 ;;		Unchanged: 0/0
  7982 ;; Data sizes:     COMRAM   BANK0   BANK1   BANK2   BANK3   BANK4   BANK5   BANK6   BANK7
  7983 ;;      Params:         0       0       0       0       0       0       0       0       0
  7984 ;;      Locals:         0       0       0       0       0       0       0       0       0
  7985 ;;      Temps:          0       0       0       0       0       0       0       0       0
  7986 ;;      Totals:         0       0       0       0       0       0       0       0       0
  7987 ;;Total ram usage:        0 bytes
  7988 ;; Hardware stack levels used:    1
  7989 ;; This function calls:
  7990 ;;		Nothing
  7991 ;; This function is called by:
  7992 ;;		_Sense_Current
  7993 ;; This function uses a non-reentrant model
  7994 ;;
  7995                           
  7996                           	psect	text48
  7997  0060DA                     __ptext48:
  7998                           	opt callstack 0
  7999  0060DA                     _Draw_CL:
  8000                           	opt callstack 28
  8001                           
  8002                           ;main.c: 718:     PORTB = 0xAA;
  8003                           
  8004                           ;incstack = 0
  8005  0060DA  0EAA               	movlw	170
  8006  0060DC  6E81               	movwf	3969,c	;volatile
  8007                           
  8008                           ;main.c: 719:     PORTCbits.RC7 = 1;
  8009  0060DE  8E82               	bsf	3970,7,c	;volatile
  8010                           
  8011                           ;main.c: 720:     _delay((unsigned long)((5)*(20000000/4000000.0)));
  8012  0060E0  0E08               	movlw	8
  8013  0060E2                     u3137:
  8014  0060E2  2EE8               	decfsz	wreg,f,c
  8015  0060E4  D7FE               	bra	u3137
  8016  0060E6  F000               	nop	
  8017                           
  8018                           ;main.c: 721:     PORTCbits.RC7 = 0;
  8019  0060E8  9E82               	bcf	3970,7,c	;volatile
  8020                           
  8021                           ;main.c: 722:     PORTB = 0xAB;
  8022  0060EA  0EAB               	movlw	171
  8023  0060EC  6E81               	movwf	3969,c	;volatile
  8024                           
  8025                           ;main.c: 723:     PORTCbits.RC6 = 1;
  8026  0060EE  8C82               	bsf	3970,6,c	;volatile
  8027                           
  8028                           ;main.c: 724:     _delay((unsigned long)((5)*(20000000/4000000.0)));
  8029  0060F0  0E08               	movlw	8
  8030  0060F2                     u3147:
  8031  0060F2  2EE8               	decfsz	wreg,f,c
  8032  0060F4  D7FE               	bra	u3147
  8033  0060F6  F000               	nop	
  8034                           
  8035                           ;main.c: 725:     PORTCbits.RC6 = 0;
  8036  0060F8  9C82               	bcf	3970,6,c	;volatile
  8037  0060FA  0012               	return		;funcret
  8038  0060FC                     __end_of_Draw_CL:
  8039                           	opt callstack 0
  8040                           
  8041 ;; *************** function _Clear *****************
  8042 ;; Defined at:
  8043 ;;		line 711 in file "main.c"
  8044 ;; Parameters:    Size  Location     Type
  8045 ;;		None
  8046 ;; Auto vars:     Size  Location     Type
  8047 ;;		None
  8048 ;; Return value:  Size  Location     Type
  8049 ;;                  1    wreg      void 
  8050 ;; Registers used:
  8051 ;;		wreg, status,2
  8052 ;; Tracked objects:
  8053 ;;		On entry : 0/0
  8054 ;;		On exit  : 0/0
  8055 ;;		Unchanged: 0/0
  8056 ;; Data sizes:     COMRAM   BANK0   BANK1   BANK2   BANK3   BANK4   BANK5   BANK6   BANK7
  8057 ;;      Params:         0       0       0       0       0       0       0       0       0
  8058 ;;      Locals:         0       0       0       0       0       0       0       0       0
  8059 ;;      Temps:          0       0       0       0       0       0       0       0       0
  8060 ;;      Totals:         0       0       0       0       0       0       0       0       0
  8061 ;;Total ram usage:        0 bytes
  8062 ;; Hardware stack levels used:    1
  8063 ;; This function calls:
  8064 ;;		Nothing
  8065 ;; This function is called by:
  8066 ;;		_Sense_Current
  8067 ;;		_Recording
  8068 ;; This function uses a non-reentrant model
  8069 ;;
  8070                           
  8071                           	psect	text49
  8072  0060C2                     __ptext49:
  8073                           	opt callstack 0
  8074  0060C2                     _Clear:
  8075                           	opt callstack 28
  8076                           
  8077                           ;main.c: 712:     PORTCbits.RC7 = 0;
  8078                           
  8079                           ;incstack = 0
  8080  0060C2  9E82               	bcf	3970,7,c	;volatile
  8081                           
  8082                           ;main.c: 713:     PORTCbits.RC6 = 0;
  8083  0060C4  9C82               	bcf	3970,6,c	;volatile
  8084                           
  8085                           ;main.c: 714:     PORTB = 0x11;
  8086  0060C6  0E11               	movlw	17
  8087  0060C8  6E81               	movwf	3969,c	;volatile
  8088  0060CA  0012               	return		;funcret
  8089  0060CC                     __end_of_Clear:
  8090                           	opt callstack 0
  8091                           
  8092 ;; *************** function _Analog_Read *****************
  8093 ;; Defined at:
  8094 ;;		line 348 in file "main.c"
  8095 ;; Parameters:    Size  Location     Type
  8096 ;;		None
  8097 ;; Auto vars:     Size  Location     Type
  8098 ;;		None
  8099 ;; Return value:  Size  Location     Type
  8100 ;;                  2    0[COMRAM] int 
  8101 ;; Registers used:
  8102 ;;		wreg, status,2, status,0
  8103 ;; Tracked objects:
  8104 ;;		On entry : 0/0
  8105 ;;		On exit  : 0/0
  8106 ;;		Unchanged: 0/0
  8107 ;; Data sizes:     COMRAM   BANK0   BANK1   BANK2   BANK3   BANK4   BANK5   BANK6   BANK7
  8108 ;;      Params:         2       0       0       0       0       0       0       0       0
  8109 ;;      Locals:         0       0       0       0       0       0       0       0       0
  8110 ;;      Temps:          0       0       0       0       0       0       0       0       0
  8111 ;;      Totals:         2       0       0       0       0       0       0       0       0
  8112 ;;Total ram usage:        2 bytes
  8113 ;; Hardware stack levels used:    1
  8114 ;; This function calls:
  8115 ;;		Nothing
  8116 ;; This function is called by:
  8117 ;;		_Closing
  8118 ;;		_Sense_Current
  8119 ;; This function uses a non-reentrant model
  8120 ;;
  8121                           
  8122                           	psect	text50
  8123  006144                     __ptext50:
  8124                           	opt callstack 0
  8125  006144                     _Analog_Read:
  8126                           	opt callstack 28
  8127                           
  8128                           ;main.c: 349:     ADCON0bits.GO_nDONE = 1;
  8129                           
  8130                           ;incstack = 0
  8131  006144  82C2               	bsf	4034,1,c	;volatile
  8132  006146                     l267:
  8133                           
  8134                           ;main.c: 350:         while(ADCON0bits.GO_nDONE)
  8135  006146  B2C2               	btfsc	4034,1,c	;volatile
  8136  006148  D7FE               	goto	l267
  8137                           
  8138                           ;main.c: 352:             ADC = ADRESH;
  8139  00614A  CFC4 F023          	movff	4036,_ADC	;volatile
  8140  00614E  6A24               	clrf	_ADC+1,c
  8141                           
  8142                           ;main.c: 353:             ADC = ADC << 8;
  8143  006150  5023               	movf	_ADC,w,c
  8144  006152  6E24               	movwf	_ADC+1,c
  8145  006154  6A23               	clrf	_ADC,c
  8146                           
  8147                           ;main.c: 354:             ADC = ADC + ADRESL;
  8148  006156  50C3               	movf	4035,w,c	;volatile
  8149  006158  2423               	addwf	_ADC,w,c
  8150  00615A  6E23               	movwf	_ADC,c
  8151  00615C  0E00               	movlw	0
  8152  00615E  2024               	addwfc	_ADC+1,w,c
  8153  006160  6E24               	movwf	_ADC+1,c
  8154                           
  8155                           ;main.c: 356:     return ADC;
  8156  006162  C023  F037         	movff	_ADC,?_Analog_Read
  8157  006166  C024  F038         	movff	_ADC+1,?_Analog_Read+1
  8158  00616A  0012               	return		;funcret
  8159  00616C                     __end_of_Analog_Read:
  8160                           	opt callstack 0
  8161  0000                     
  8162                           	psect	rparam
  8163  0000                     tosu	equ	0xFFF
  8164                           tosh	equ	0xFFE
  8165                           tosl	equ	0xFFD
  8166                           stkptr	equ	0xFFC
  8167                           pclatu	equ	0xFFB
  8168                           pclath	equ	0xFFA
  8169                           pcl	equ	0xFF9
  8170                           tblptru	equ	0xFF8
  8171                           tblptrh	equ	0xFF7
  8172                           tblptrl	equ	0xFF6
  8173                           tablat	equ	0xFF5
  8174                           prodh	equ	0xFF4
  8175                           prodl	equ	0xFF3
  8176                           indf0	equ	0xFEF
  8177                           postinc0	equ	0xFEE
  8178                           postdec0	equ	0xFED
  8179                           preinc0	equ	0xFEC
  8180                           plusw0	equ	0xFEB
  8181                           fsr0h	equ	0xFEA
  8182                           fsr0l	equ	0xFE9
  8183                           wreg	equ	0xFE8
  8184                           indf1	equ	0xFE7
  8185                           postinc1	equ	0xFE6
  8186                           postdec1	equ	0xFE5
  8187                           preinc1	equ	0xFE4
  8188                           plusw1	equ	0xFE3
  8189                           fsr1h	equ	0xFE2
  8190                           fsr1l	equ	0xFE1
  8191                           bsr	equ	0xFE0
  8192                           indf2	equ	0xFDF
  8193                           postinc2	equ	0xFDE
  8194                           postdec2	equ	0xFDD
  8195                           preinc2	equ	0xFDC
  8196                           plusw2	equ	0xFDB
  8197                           fsr2h	equ	0xFDA
  8198                           fsr2l	equ	0xFD9
  8199                           status	equ	0xFD8


Data Sizes:
    Strings     0
    Constant    0
    Data        7
    BSS         54
    Persistent  7
    Stack       0

Auto Spaces:
    Space          Size  Autos    Used
    COMRAM           95     17      85
    BANK0           160      0       0
    BANK1           256      0       0
    BANK2           256      0       0
    BANK3           256      0       0
    BANK4           256      0       0
    BANK5           256      0       0
    BANK6           256      0       0
    BANK7           256      0       0

Pointer List with Targets:

    None.

Critical Paths under _main in COMRAM

    _main->_Open_Lock
    _Open_Lock->___lmul
    _Menu_In->_Menu
    _Menu->_Menu_P1
    _Menu->_Menu_P2
    _Menu->_Menu_P3
    _Menu->_Menu_P4
    _Menu_P4->_Recording
    _Menu_P4->_eeprom_writex
    _Menu_P3->_Recording
    _Menu_P3->_eeprom_writex
    _Menu_P2->_Recording
    _Menu_P2->_eeprom_writex
    _Menu_P1->_Recording
    _Menu_P1->_eeprom_writex
    _Recording->_Draw_Save_Dot_One
    _Recording->_Draw_Save_Dot_Two
    _Close_Lock->___wmul
    _Closing->_Analog_Read
    _Sense_Current->_Analog_Read

Critical Paths under _main in BANK0

    None.

Critical Paths under _main in BANK1

    None.

Critical Paths under _main in BANK2

    None.

Critical Paths under _main in BANK3

    None.

Critical Paths under _main in BANK4

    None.

Critical Paths under _main in BANK5

    None.

Critical Paths under _main in BANK6

    None.

Critical Paths under _main in BANK7

    None.

Call Graph Tables:

 ---------------------------------------------------------------------------------
 (Depth) Function   	        Calls       Base Space   Used Autos Params    Refs
 ---------------------------------------------------------------------------------
 (0) _main                                                 1     1      0   32949
                                             16 COMRAM     1     1      0
                         _Close_Lock
                          _Indicator
                            _Menu_In
                          _Open_Lock
                       _eeprom_readx
 ---------------------------------------------------------------------------------
 (1) _Open_Lock                                            4     4      0    1410
                                             12 COMRAM     4     4      0
                            _Closing
                      _Sense_Current
                             ___lmul
                             ___wmul
                       _eeprom_readx
 ---------------------------------------------------------------------------------
 (2) ___lmul                                              12     4      8     370
                                              0 COMRAM    12     4      8
 ---------------------------------------------------------------------------------
 (1) _Menu_In                                              2     2      0   29968
                                              7 COMRAM     2     2      0
                               _Menu
 ---------------------------------------------------------------------------------
 (2) _Menu                                                 2     2      0   29968
                                              5 COMRAM     2     2      0
                            _Draw_P1
                            _Draw_P2
                            _Draw_P3
                            _Draw_P4
                     _Exit_Time_Menu
                            _Menu_P1
                            _Menu_P2
                            _Menu_P3
                            _Menu_P4
 ---------------------------------------------------------------------------------
 (3) _Menu_P4                                              2     2      0    7492
                                              3 COMRAM     2     2      0
                             _Draw_0
                             _Draw_1
                            _Draw_10
                            _Draw_11
                            _Draw_12
                            _Draw_13
                            _Draw_14
                            _Draw_15
                             _Draw_2
                             _Draw_3
                             _Draw_4
                             _Draw_5
                             _Draw_6
                             _Draw_7
                             _Draw_8
                             _Draw_9
                     _Exit_Time_Menu
                          _Recording
                      _eeprom_writex
 ---------------------------------------------------------------------------------
 (3) _Menu_P3                                              2     2      0    7492
                                              3 COMRAM     2     2      0
                            _Draw_10
                            _Draw_12
                            _Draw_14
                            _Draw_16
                            _Draw_18
                             _Draw_2
                            _Draw_20
                            _Draw_22
                            _Draw_24
                            _Draw_26
                            _Draw_28
                            _Draw_30
                             _Draw_4
                             _Draw_6
                             _Draw_8
                     _Exit_Time_Menu
                          _Recording
                      _eeprom_writex
 ---------------------------------------------------------------------------------
 (4) _Draw_30                                              1     1      0       0
                                              0 COMRAM     1     1      0
 ---------------------------------------------------------------------------------
 (4) _Draw_28                                              1     1      0       0
                                              0 COMRAM     1     1      0
 ---------------------------------------------------------------------------------
 (4) _Draw_26                                              1     1      0       0
                                              0 COMRAM     1     1      0
 ---------------------------------------------------------------------------------
 (4) _Draw_24                                              1     1      0       0
                                              0 COMRAM     1     1      0
 ---------------------------------------------------------------------------------
 (4) _Draw_22                                              1     1      0       0
                                              0 COMRAM     1     1      0
 ---------------------------------------------------------------------------------
 (4) _Draw_20                                              1     1      0       0
                                              0 COMRAM     1     1      0
 ---------------------------------------------------------------------------------
 (4) _Draw_18                                              1     1      0       0
                                              0 COMRAM     1     1      0
 ---------------------------------------------------------------------------------
 (4) _Draw_16                                              1     1      0       0
                                              0 COMRAM     1     1      0
 ---------------------------------------------------------------------------------
 (3) _Menu_P2                                              2     2      0    7492
                                              3 COMRAM     2     2      0
                             _Draw_0
                             _Draw_1
                            _Draw_10
                            _Draw_11
                            _Draw_12
                            _Draw_13
                            _Draw_14
                            _Draw_15
                             _Draw_2
                             _Draw_3
                             _Draw_4
                             _Draw_5
                             _Draw_6
                             _Draw_7
                             _Draw_8
                             _Draw_9
                     _Exit_Time_Menu
                          _Recording
                      _eeprom_writex
 ---------------------------------------------------------------------------------
 (4) _Draw_9                                               1     1      0       0
                                              0 COMRAM     1     1      0
 ---------------------------------------------------------------------------------
 (4) _Draw_8                                               1     1      0       0
                                              0 COMRAM     1     1      0
 ---------------------------------------------------------------------------------
 (4) _Draw_7                                               1     1      0       0
                                              0 COMRAM     1     1      0
 ---------------------------------------------------------------------------------
 (4) _Draw_6                                               1     1      0       0
                                              0 COMRAM     1     1      0
 ---------------------------------------------------------------------------------
 (4) _Draw_5                                               1     1      0       0
                                              0 COMRAM     1     1      0
 ---------------------------------------------------------------------------------
 (4) _Draw_4                                               1     1      0       0
                                              0 COMRAM     1     1      0
 ---------------------------------------------------------------------------------
 (4) _Draw_3                                               1     1      0       0
                                              0 COMRAM     1     1      0
 ---------------------------------------------------------------------------------
 (4) _Draw_2                                               1     1      0       0
                                              0 COMRAM     1     1      0
 ---------------------------------------------------------------------------------
 (4) _Draw_15                                              1     1      0       0
                                              0 COMRAM     1     1      0
 ---------------------------------------------------------------------------------
 (4) _Draw_14                                              1     1      0       0
                                              0 COMRAM     1     1      0
 ---------------------------------------------------------------------------------
 (4) _Draw_13                                              1     1      0       0
                                              0 COMRAM     1     1      0
 ---------------------------------------------------------------------------------
 (4) _Draw_12                                              1     1      0       0
                                              0 COMRAM     1     1      0
 ---------------------------------------------------------------------------------
 (4) _Draw_11                                              1     1      0       0
                                              0 COMRAM     1     1      0
 ---------------------------------------------------------------------------------
 (4) _Draw_10                                              1     1      0       0
                                              0 COMRAM     1     1      0
 ---------------------------------------------------------------------------------
 (3) _Menu_P1                                              2     2      0    7492
                                              3 COMRAM     2     2      0
                             _Draw_0
                             _Draw_1
                     _Exit_Time_Menu
                          _Recording
                      _eeprom_writex
 ---------------------------------------------------------------------------------
 (4) _eeprom_writex                                        3     0      3    7492
                                              0 COMRAM     3     0      3
 ---------------------------------------------------------------------------------
 (4) _Recording                                            2     2      0       0
                                              1 COMRAM     2     2      0
                              _Clear
                  _Draw_Save_Dot_One
                  _Draw_Save_Dot_Two
 ---------------------------------------------------------------------------------
 (5) _Draw_Save_Dot_Two                                    1     1      0       0
                                              0 COMRAM     1     1      0
 ---------------------------------------------------------------------------------
 (5) _Draw_Save_Dot_One                                    1     1      0       0
                                              0 COMRAM     1     1      0
 ---------------------------------------------------------------------------------
 (4) _Exit_Time_Menu                                       0     0      0       0
 ---------------------------------------------------------------------------------
 (4) _Draw_1                                               1     1      0       0
                                              0 COMRAM     1     1      0
 ---------------------------------------------------------------------------------
 (4) _Draw_0                                               1     1      0       0
                                              0 COMRAM     1     1      0
 ---------------------------------------------------------------------------------
 (3) _Draw_P4                                              1     1      0       0
                                              0 COMRAM     1     1      0
 ---------------------------------------------------------------------------------
 (3) _Draw_P3                                              1     1      0       0
                                              0 COMRAM     1     1      0
 ---------------------------------------------------------------------------------
 (3) _Draw_P2                                              1     1      0       0
                                              0 COMRAM     1     1      0
 ---------------------------------------------------------------------------------
 (3) _Draw_P1                                              1     1      0       0
                                              0 COMRAM     1     1      0
 ---------------------------------------------------------------------------------
 (1) _Indicator                                            0     0      0       0
 ---------------------------------------------------------------------------------
 (1) _Close_Lock                                           2     2      0    1017
                                              6 COMRAM     2     2      0
                            _Closing
                             ___wmul
                       _eeprom_readx
 ---------------------------------------------------------------------------------
 (1) _eeprom_readx                                         2     0      2     554
                                              0 COMRAM     2     0      2
 ---------------------------------------------------------------------------------
 (2) ___wmul                                               6     2      4     463
                                              0 COMRAM     6     2      4
 ---------------------------------------------------------------------------------
 (2) _Closing                                              2     2      0       0
                                              2 COMRAM     2     2      0
                        _Analog_Read
                      _Sense_Current
 ---------------------------------------------------------------------------------
 (2) _Sense_Current                                        0     0      0       0
                        _Analog_Read
                              _Clear
                            _Draw_CL
 ---------------------------------------------------------------------------------
 (3) _Draw_CL                                              0     0      0       0
 ---------------------------------------------------------------------------------
 (3) _Clear                                                0     0      0       0
 ---------------------------------------------------------------------------------
 (3) _Analog_Read                                          2     0      2       0
                                              0 COMRAM     2     0      2
 ---------------------------------------------------------------------------------
 Estimated maximum stack depth 5
 ---------------------------------------------------------------------------------

 Call Graph Graphs:

 _main (ROOT)
   _Close_Lock
     _Closing
       _Analog_Read
       _Sense_Current
         _Analog_Read
         _Clear
         _Draw_CL
     ___wmul
     _eeprom_readx
   _Indicator
   _Menu_In
     _Menu
       _Draw_P1
       _Draw_P2
       _Draw_P3
       _Draw_P4
       _Exit_Time_Menu
       _Menu_P1
         _Draw_0
         _Draw_1
         _Exit_Time_Menu
         _Recording
           _Clear
           _Draw_Save_Dot_One
           _Draw_Save_Dot_Two
         _eeprom_writex
       _Menu_P2
         _Draw_0
         _Draw_1
         _Draw_10
         _Draw_11
         _Draw_12
         _Draw_13
         _Draw_14
         _Draw_15
         _Draw_2
         _Draw_3
         _Draw_4
         _Draw_5
         _Draw_6
         _Draw_7
         _Draw_8
         _Draw_9
         _Exit_Time_Menu
         _Recording
           _Clear
           _Draw_Save_Dot_One
           _Draw_Save_Dot_Two
         _eeprom_writex
       _Menu_P3
         _Draw_10
         _Draw_12
         _Draw_14
         _Draw_16
         _Draw_18
         _Draw_2
         _Draw_20
         _Draw_22
         _Draw_24
         _Draw_26
         _Draw_28
         _Draw_30
         _Draw_4
         _Draw_6
         _Draw_8
         _Exit_Time_Menu
         _Recording
           _Clear
           _Draw_Save_Dot_One
           _Draw_Save_Dot_Two
         _eeprom_writex
       _Menu_P4
         _Draw_0
         _Draw_1
         _Draw_10
         _Draw_11
         _Draw_12
         _Draw_13
         _Draw_14
         _Draw_15
         _Draw_2
         _Draw_3
         _Draw_4
         _Draw_5
         _Draw_6
         _Draw_7
         _Draw_8
         _Draw_9
         _Exit_Time_Menu
         _Recording
           _Clear
           _Draw_Save_Dot_One
           _Draw_Save_Dot_Two
         _eeprom_writex
   _Open_Lock
     _Closing
       _Analog_Read
       _Sense_Current
         _Analog_Read
         _Clear
         _Draw_CL
     _Sense_Current
       _Analog_Read
       _Clear
       _Draw_CL
     ___lmul
     ___wmul
     _eeprom_readx
   _eeprom_readx

 Address spaces:
Name               Size   Autos  Total    Cost      Usage
BIGRAM             7FF      0       0      21        0.0%
EEDATA             100      0       0       0        0.0%
BITBANK7           100      0       0      18        0.0%
BANK7              100      0       0      19        0.0%
BITBANK6           100      0       0      16        0.0%
BANK6              100      0       0      17        0.0%
BITBANK5           100      0       0      14        0.0%
BANK5              100      0       0      15        0.0%
BITBANK4           100      0       0      12        0.0%
BANK4              100      0       0      13        0.0%
BITBANK3           100      0       0      10        0.0%
BANK3              100      0       0      11        0.0%
BITBANK2           100      0       0       8        0.0%
BANK2              100      0       0       9        0.0%
BITBANK1           100      0       0       6        0.0%
BANK1              100      0       0       7        0.0%
BITBANK0            A0      0       0       4        0.0%
BANK0               A0      0       0       5        0.0%
BITCOMRAM           5F      0       0       0        0.0%
COMRAM              5F     11      55       1       89.5%
BITSFR               0      0       0     200        0.0%
SFR                  0      0       0     200        0.0%
STACK                0      0       0       2        0.0%
NULL                 0      0       0       0        0.0%
ABS                  0      0      55      20        0.0%
DATA                 0      0      55       3        0.0%
CODE                 0      0       0       0        0.0%


Microchip Technology PIC18 Macro Assembler V2.05 build -831301201 
Symbol Table                                                                                   Mon Mar 28 14:43:07 2022

       _Last_Inductive_State 0036                           u40 695A                           u50 698E  
        ___wmul@multiplicand 0039                  __CFG_BORV$3 000000                 __CFG_CP0$OFF 000000  
               __CFG_CP1$OFF 000000                 __CFG_CP2$OFF 000000                 __CFG_CP3$OFF 000000  
                        l303 6E02                          l401 70CA                          l316 678C  
                        l326 6B5E                          _ADC 0023                          l267 6146  
                        l357 73B6                          l445 76A2                          l278 6118  
                        l199 7A66                          l576 6884                 __CFG_CPB$OFF 000000  
                        u520 6822                          u530 682E                 __CFG_CPD$OFF 000000  
                        u526 6824                          u560 6858                          u536 6830  
                        u570 686E                          u580 687E                 __CFG_BOR$OFF 000000  
                        wreg 000FE8                 __CFG_FOSC$HS 000000          _Count_Peake_Current 002B  
               __CFG_LVP$OFF 000000                 __CFG_WDT$OFF 000000                         l3000 6A7C  
                       l3002 6A82                         l3010 6AB2                         l3004 6A88  
                       l3030 6B0C                         l3102 71E6                         l3032 6B1C  
                       l3008 6A92                         l3200 6E20                         l3034 6B22  
                       l3042 6B3E                         l3018 6ADE                         l3130 7260  
                       l3122 723C                         l3114 7214                         l3210 6E3E  
                       l3202 6E26                         l1364 696A                         l1356 6936  
                       l3116 7224                         l3060 70E8                         l3300 701C  
                       l3220 6E5C                         l3212 6E44                         l3204 6E2C  
                       l3038 6B34                         l3150 72BA                         l3142 7296  
                       l3134 7272                         l3126 724E                         l3118 722A  
                       l3070 7106                         l3062 70EE                         l3222 6E62  
                       l3214 6E4A                         l3206 6E32                         l3230 6E78  
                       l3080 7124                         l3072 710C                         l3064 70F4  
                       l3056 70DC                         l3312 7052                         l3304 702E  
                       l3240 6F12                         l3224 6E68                         l3216 6E50  
                       l3208 6E38                         l3232 6EE6                         l3400 753A  
                       l4032 6908                         l2370 6844                         l3170 7314  
                       l3162 72F0                         l3154 72CC                         l3146 72A8  
                       l3138 7284                         l3082 712A                         l3074 7112  
                       l3066 70FA                         l3058 70E2                         l3226 6E6E  
                       l3218 6E56                         l3330 73C8                         l4210 7D6A  
                       l3084 7130                         l3076 7118                         l3068 7100  
                       l3092 7146                         l3308 7040                         l3260 6F68  
                       l3252 6F40                         l3316 705C                         l3420 7594  
                       l3412 7570                         l3404 754C                         l3340 73E6  
                       l3332 73CE                         l4220 7D9C                         l4212 7D74  
                       l3174 7326                         l3166 7302                         l3158 72DE  
                       l3182 7342                         l3086 7136                         l3078 711E  
                       l3094 71BA                         l3254 6F50                         l3350 7404  
                       l3342 73EC                         l3334 73D4                         l4230 7DCE  
                       l4222 7DA6                         l4214 7D7E                         l3512 6C44  
                       l3504 6C16                         l2376 685E                         l3088 713C  
                       l3280 6FC2                         l3272 6F9E                         l3264 6F7A  
                       l3256 6F56                         l3440 75EE                         l3432 75CA  
                       l3424 75A6                         l3416 7582                         l3408 755E  
                       l3360 7422                         l3352 740A                         l3344 73F2  
                       l3336 73DA                         l4232 7DD8                         l4224 7DB0  
                       l4216 7D88                         l4208 7D64                         l3178 7338  
                       l3362 7428                         l3354 7410                         l3346 73F8  
                       l3338 73E0                         l3530 6C8A                         l3610 67D4  
                       l4234 7DE2                         l4226 7DBA                         l4218 7D92  
                       l4260 79CA                         l3700 77FC                         l3292 6FF8  
                       l3284 6FD4                         l3276 6FB0                         l3268 6F8C  
                       l3196 6E14                         l3452 7624                         l3444 7600  
                       l3436 75DC                         l3428 75B8                         l3356 7416  
                       l3348 73FE                         l3532 6C90                         l3540 6CCC  
                       l4236 7DEC                         l4228 7DC4                         l4270 79F8  
                       l4262 79D0                         l3710 7874                         l3702 7814  
                       l3198 6E1A                         l3390 7510                         l3358 741C  
                       l3366 7432                         l3534 6C96                         l3526 6C7E  
                       l3614 67E8                         l4238 7DF6                         l3480 6B96  
                       l4280 7A2A                         l4272 7A02                         l4264 79DA  
                       l3712 78A4                         l3704 782C                         l3296 700A  
                       l3288 6FE6                         l3448 7612                         l3392 7516  
                       l3456 762E                         l3376 74D2                         l3368 74A6  
                       l3528 6C84                         l4290 7A5C                         l4282 7A34  
                       l4274 7A0C                         l4266 79E4                         l3714 78D2  
                       l3706 7844                         l3730 7A84                         l3570 6D6E  
                       l3538 6CA0                         l4284 7A3E                         l4276 7A16  
                       l4268 79EE                         l3716 7900                         l3708 785C  
                       l3724 795E                         l3396 7528                         l3388 7500  
                       l3564 6D4A                         l3548 6CF8                         l3660 6A74  
                       l3820 7B36                         l3494 6BD2                         l4286 7A48  
                       l4278 7A20                         l3718 7930                         l3582 6DB6  
                       l3558 6D26                         l3638 6A0A                         l3830 7BAE  
                       l3822 7B4E                         l4288 7A52                         l3576 6D92  
                       l3904 7F70                         l3840 7C3E                         l3832 7BC6  
                       l3824 7B66                         l3690 7784                         l3842 7C6C  
                       l3834 7BDE                         l3826 7B7E                         l3818 7B1E  
                       l3850 7CF8                         l3922 7FFA                         l3692 779C  
                       l3588 6DD6                         l3844 7C9A                         l3836 7BF6  
                       l3828 7B96                         l3852 7DFE                         l3694 77B4  
                       l3918 7FE4                         l3854 7E02                         l3846 7CCA  
                       l3838 7C0E                         l3696 77CC                         l3688 776C  
                       l3698 77E4                         l3882 7EA2                         l2998 618E  
                       l3896 7EF8                         l3888 7ECA               ??_eeprom_readx 0039  
                       u1100 71C2                         u1030 6ABA                         u1200 6F1E  
                       u1130 71F2                         u1106 71C4                         u1060 6AEA  
                       u1036 6ABC                         u1310 6BA0                         u1206 6F20  
                       u2007 7C00                         u1136 71F4                         u1240 74AE  
                       u2017 7C18                         u1330 6BC8                         u1066 6AEC  
                       u1170 6EEE                         u2107 7CEA                         u2027 7C2E  
                       u1316 6BA2                         u1420 6D04                         u2117 7E30  
                       u2037 7C48                         u1270 74DE                         u1246 74B0  
                       u3007 7894                         u2207 6D5C                         u2127 7E78  
                       u2047 7C5E                         u1336 6BCA                         u1176 6EF0  
                       u3017 78AE                         u2217 6D80                         u2137 7E92  
                       u2057 7C76                         u1610 76FE                         u1426 6D06  
                       u1530 6A16                         u3107 6B88                         u3027 78C4  
                       u2307 669E                         u2227 6DA4                         u2147 7FC0  
                       u2067 7C8C                         u1380 6C4A                         u1276 74E0  
                       u3117 6BB4                         u3037 78DC                         u2317 66B6  
                       u2237 6DC8                         u2157 69B6                         u2077 7CA4  
                       u1390 6CD4                         u3127 6C50                         u3047 78F2  
                       u2407 637E                         u2327 666C                         u2247 6734  
                       u2167 69FA                         u2087 7CBA                         u1616 7700  
                       u1536 6A18                         u1480 69AC                         u1800 7EFE  
                       u1720 7E0C                         u3137 60E2                         u3057 790A  
                       u2417 6396                         u2337 6684                         u2257 674C  
                       u2177 6A20                         u2097 7CD4                         u1810 7F20  
                       u1650 7A92                         u3147 60F2                         u3067 7920  
                       u2507 628E                         u2427 634E                         u2347 663A  
                       u2267 6702                         u2187 6A64                         u1580 76BA  
                       u1396 6CD6                         u1820 7F84                         u1740 7E44  
                       u3077 793A                         u2517 62A6                         u2437 6366  
                       u2357 6652                         u2277 671A                         u2197 6D38  
                       u1486 69AE                         u1726 7E0E                         u3087 7950  
                       u2607 6540                         u2527 625E                         u2447 631E  
                       u2367 6608                         u2287 66D0                         u1840 7FAA  
                       u1816 7F22                         u1680 7AD6                         u1656 7A94  
                       u3097 7A72                         u2617 6558                         u2537 6276  
                       u2457 6336                         u2377 6620                         u2297 66E8  
                       u1586 76BC                         u1826 7F86                         u1746 7E46  
                       u2707 6490                         u2627 650E                         u2547 622E  
                       u2467 62EE                         u2387 65D6                         u1907 7AC2  
                       u1860 7FEA                         u2717 6200                         u2637 6526  
                       u2557 6246                         u2477 6306                         u2397 65EE  
                       u1917 7B28                         u1846 7FAC                         u1686 7AD8  
                       u1870 68DC                         u2807 642C                         u2727 6216  
                       u2647 64DC                         u2567 65A4                         u2487 62BE  
                       u1927 7B40                         u1880 68DE                         u2817 63E2  
                       u2737 61CE                         u2657 64F4                         u2577 65BC  
                       u2497 62D6                         u1937 7B58                         u2907 77A6  
                       u2827 63FA                         u2747 61E6                         u2667 64AA  
                       u2587 6572                         u1947 7B70                         u2917 77BE  
                       u2837 63B0                         u2757 619E                         u2677 64C2  
                       u2597 658A                         u1957 7B88                         u2927 77D6  
                       u2847 63C8                         u2767 61B6                         u2687 6928  
                       u1967 7BA0                         u2937 77EE                         u2857 76C8  
                       u2777 6446                         u2697 6478                         u1977 7BB8  
                       u1897 7AA0                         u2947 7806                         u2867 76EA  
                       u2787 645E                         u1987 7BD0                         u2957 781E  
                       u2877 771E                         u2797 6414                         u1997 7BE8  
                       u2967 7836                         u2887 7776                         u2977 784E  
                       u2897 778E                         u2987 7866                         u2997 787E  
                       _Menu 6C7C                         _main 6892                         fsr1l 000FE1  
                       prodh 000FF4                         prodl 000FF3                         start 0000  
              __CFG_IESO$OFF 000000              __end_of_Draw_10 64D0              __end_of_Draw_11 6502  
            __end_of_Draw_12 6534              __end_of_Draw_20 6660              __end_of_Draw_13 6566  
            __end_of_Draw_14 6598              __end_of_Draw_22 6692              __end_of_Draw_30 675A  
            __end_of_Draw_15 65CA              __end_of_Draw_16 65FC              __end_of_Draw_24 66C4  
            __end_of_Draw_18 662E              __end_of_Draw_26 66F6              __end_of_Draw_28 6728  
            __end_of_Draw_P1 63D6              __end_of_Draw_CL 60FC              __end_of_Draw_P2 6408  
            __end_of_Draw_P3 643A              __end_of_Draw_P4 646C                __CFG_MCLRE$ON 000000  
            __end_of_Closing 6C7C                 ___param_bank 000000                   _Flag_Latch 002E  
            __end_of_Menu_P1 6B6E              __end_of_Menu_P2 73C6              __end_of_Menu_P3 70DA  
            __end_of_Menu_P4 76B2              __end_of_Menu_In 6A7A                __CFG_PLLDIV$1 000000  
                      ?_Menu 0037               __CFG_CCP2MX$ON 000000                        ?_main 0037  
                      _EEADR 000FA9        __end_of_Sense_Current 6194                   _Close_Lock 76B2  
                      _PORTB 000F81                __CFG_USBDIV$1 000000                        _TRISB 000F93  
            ??_eeprom_writex 003A                __CFG_PWRT$OFF 000000                        _Clear 60C2  
              __CFG_WRT0$OFF 000000                __CFG_WRT1$OFF 000000                __CFG_WRT2$OFF 000000  
        ___lmul@multiplicand 003B                __CFG_WRT3$OFF 000000                        _Latch 004C  
             __CFG_EBTR0$OFF 000000               __CFG_FCMEN$OFF 000000               __CFG_EBTR1$OFF 000000  
             __CFG_EBTR2$OFF 000000               __CFG_EBTR3$OFF 000000                __CFG_WRTB$OFF 000000  
              __CFG_WRTC$OFF 000000                __CFG_WRTD$OFF 000000               __CFG_EBTRB$OFF 000000  
                _Analog_Read 6144                        tablat 000FF5                        status 000FD8  
    __size_of_Exit_Time_Menu 0034                   _Count_Save 0015               __CFG_PBADEN$ON 000000  
            __initialization 678E                 __end_of_Menu 6E12                 __end_of_main 691A  
                     ??_Menu 003C                       ??_main 0047                __activetblptr 000002  
                     ?_Clear 0037                       _ADCON1 000FC1                       _ADRESH 000FC4  
                     _ADRESL 000FC3                       _EEDATA 000FA8                       _EECON2 000FA7  
         __size_of_Indicator 0078          _End_Stop_Open_State 0034         _End_Stop_Close_State 004D  
                  ??_Draw_10 0037                    ??_Draw_11 0037                    ??_Draw_20 0037  
                  ??_Draw_12 0037                    ??_Draw_13 0037                    ??_Draw_30 0037  
                  ??_Draw_22 0037                    ??_Draw_14 0037                    ??_Draw_15 0037  
                  ??_Draw_24 0037                    ??_Draw_16 0037                    ??_Draw_26 0037  
                  ??_Draw_18 0037                    ??_Draw_28 0037                    ??_Draw_P1 0037  
                  ??_Draw_P2 0037                    ??_Draw_CL 0037                    ??_Draw_P3 0037  
                  ??_Draw_P4 0037                    ??_Closing 0039                    ??_Menu_P1 003A  
                  ??_Menu_P2 003A                    ??_Menu_P3 003A                    ??_Menu_P4 003A  
                  ??_Menu_In 003E                       _Draw_0 6194                       _Draw_1 61C4  
                     _Draw_2 6224                       _Draw_3 6254                       _Draw_4 6284  
                     _Draw_5 62B4                       _Draw_6 62E4                       _Draw_7 6314  
                     _Draw_8 6344                       _Draw_9 6374               __CFG_XINST$OFF 000000  
         __size_of_Recording 008A                       ___lmul 67C4                       ___wmul 611E  
             __CFG_STVREN$ON 000000           __size_of_Open_Lock 0576          eeprom_readx@address 0037  
       __end_of_eeprom_readx 60DA                       clear_0 67B4                  ?_Close_Lock 0037  
               __pdataCOMRAM 004F       _Button_Menu_Down_State 0032                       tblptrh 000FF7  
                     tblptrl 000FF6                       tblptru 000FF8         Open_Lock@Value_Latch 0045  
                 __accesstop 0060      __end_of__initialization 67BA                ___rparam_used 000001  
    _Last_Open_Contact_State 0055                __end_of_Clear 60CC               __pcstackCOMRAM 0037  
          __end_of_Indicator 6892                      ??_Clear 0037            __end_of_Recording 69A4  
          __end_of_Open_Lock 8000            eeprom_writex@data 0039               _Exit_Time_Menu 675A  
  _Last_Button_Menu_Up_State 0054                   __pnvCOMRAM 0048                      ?_Draw_0 0037  
                    ?_Draw_1 0037                      ?_Draw_2 0037                      ?_Draw_3 0037  
                    ?_Draw_4 0037                      ?_Draw_5 0037                      ?_Draw_6 0037  
                    ?_Draw_7 0037                      ?_Draw_8 0037                      ?_Draw_9 0037  
        __size_of_Close_Lock 03D8                      ?___lmul 0037                      ?___wmul 0037  
            _Time_Auto_Close 004F            _Draw_Save_Dot_One 61F4            _Draw_Save_Dot_Two 646C  
             ___lmul@product 003F           ?_Draw_Save_Dot_One 0037           ?_Draw_Save_Dot_Two 0037  
        ??_Draw_Save_Dot_One 0037          ??_Draw_Save_Dot_Two 0037                 ?_Analog_Read 0037  
         _Flag_End_Stop_Open 002D       __end_of_Exit_Time_Menu 678E              __CFG_VREGEN$OFF 000000  
                    _Draw_10 649E                      _Draw_11 64D0                      _Draw_20 662E  
                    _Draw_12 6502                      _Draw_13 6534                      _Draw_30 6728  
                    _Draw_22 6660                      _Draw_14 6566                      _Draw_15 6598  
                    _Draw_24 6692                      _Draw_16 65CA                      _Draw_26 66C4  
                    _Draw_18 65FC                      _Draw_28 66F6                      _Draw_P1 63A4  
                    _Draw_CL 60DA                      _Draw_P2 63D6                      _Draw_P3 6408  
                    _Draw_P4 643A                      _Buffer1 0001                      _Closing 6B6E  
                    _Menu_P1 6A7A                      _Menu_P2 70DA                      _Menu_P3 6E12  
                    _Menu_P4 73C6                      _Menu_In 69A4                      _Current 0029  
            __size_of_Draw_0 0030              __size_of_Draw_1 0030              __size_of_Draw_2 0030  
            __size_of_Draw_3 0030              __size_of_Draw_4 0030              __size_of_Draw_5 0030  
            __size_of_Draw_6 0030              __size_of_Draw_7 0030              __size_of_Draw_8 0030  
            __size_of_Draw_9 0030                      __Hparam 0000                      __Lparam 0000  
      __size_of_eeprom_readx 000E    __end_of_Draw_Save_Dot_One 6224    __end_of_Draw_Save_Dot_Two 649E  
            __size_of___lmul 0056              __size_of___wmul 0026              _Time_Open_State 0048  
                    __pcinit 678E                      __ramtop 0800                      __ptext0 6892  
                    __ptext1 7A8A                      __ptext2 67C4                      __ptext3 69A4  
                    __ptext4 6C7C                      __ptext5 73C6                      __ptext6 6E12  
                    __ptext7 6728                      __ptext8 66F6                      __ptext9 66C4  
            _Inductive_State 004E        __end_of_eeprom_writex 611E              ?_Exit_Time_Menu 0037  
       end_of_initialization 67BA                  _Toggle_Down 0030                 _eeprom_readx 60CC  
              __Lmediumconst 0000            _Count_Push_Button 0027       __size_of_Sense_Current 0028  
                    postdec1 000FE5                      postinc0 000FEE                    _PORTAbits 000F80  
                  _PORTCbits 000F82                 ??_Close_Lock 003D                    _TRISAbits 000F92  
                  _TRISCbits 000F94         eeprom_writex@address 0037           __end_of_Close_Lock 7A8A  
             __end_of_Draw_0 61C4               __end_of_Draw_1 61F4               __end_of_Draw_2 6254  
             __end_of_Draw_3 6284               __end_of_Draw_4 62B4               __end_of_Draw_5 62E4  
             __end_of_Draw_6 6314               __end_of_Draw_7 6344               __end_of_Draw_8 6374  
             __end_of_Draw_9 63A4                    _Flag_Menu 002F   __size_of_Draw_Save_Dot_One 0030  
 __size_of_Draw_Save_Dot_Two 0032           _Open_Contact_State 0035               __end_of___lmul 681A  
             __end_of___wmul 6144                __pidataCOMRAM 60BB                    _Count_Led 0025  
              _Sense_Current 616C                    _Indicator 681A          start_initialization 678E  
       __size_of_Analog_Read 0028                    _Recording 691A                    _Open_Lock 7A8A  
                   ??_Draw_0 0037                     ??_Draw_1 0037                     ??_Draw_2 0037  
                   ??_Draw_3 0037                     ??_Draw_4 0037                     ??_Draw_5 0037  
                   ??_Draw_6 0037                     ??_Draw_7 0037                     ??_Draw_8 0037  
                   ??_Draw_9 0037                     ??___lmul 003F                     ??___wmul 003B  
           _Count_Auto_Close 0019             __CFG_LPT1OSC$OFF 000000                    _Toggle_Up 0031  
             ?_Sense_Current 0037                   ?_Indicator 0037                  __pbssCOMRAM 0001  
                   ?_Draw_10 0037                     ?_Draw_11 0037                     ?_Draw_20 0037  
                   ?_Draw_12 0037                     ?_Draw_13 0037                     ?_Draw_30 0037  
                   ?_Draw_22 0037                     ?_Draw_14 0037                     ?_Draw_15 0037  
                   ?_Draw_24 0037                     ?_Draw_16 0037                     ?_Draw_26 0037  
                   ?_Draw_18 0037                     ?_Draw_28 0037                   ?_Recording 0037  
                   ?_Draw_P1 0037                     ?_Draw_P2 0037                     ?_Draw_CL 0037  
                   ?_Draw_P3 0037                     ?_Draw_P4 0037                     ?_Closing 0037  
                 ?_Open_Lock 0037                     ?_Menu_P1 0037                     ?_Menu_P2 0037  
                   ?_Menu_P3 0037                     ?_Menu_P4 0037                     ?_Menu_In 0037  
                  _data_test 0021             _Count_Time_Close 001D             ??_Exit_Time_Menu 0037  
             __size_of_Clear 000A               ___wmul@product 003B             __CFG_WDTPS$32768 000000  
            ??_Sense_Current 0039                   _ADCON0bits 000FC2                   _ADCON2bits 000FC0  
          ___wmul@multiplier 0037                  ??_Indicator 0037         _Time_Inductive_State 004A  
          ___lmul@multiplier 0037                    copy_data0 67A2                  ??_Recording 0038  
_Last_Button_Menu_Down_State 0053                  ??_Open_Lock 0043             __size_of_Draw_10 0032  
           __size_of_Draw_11 0032             __size_of_Draw_12 0032             __size_of_Draw_20 0032  
           __size_of_Draw_13 0032             __size_of_Draw_14 0032             __size_of_Draw_22 0032  
           __size_of_Draw_30 0032             __size_of_Draw_15 0032             __size_of_Draw_16 0032  
           __size_of_Draw_24 0032             __size_of_Draw_18 0032             __size_of_Draw_26 0032  
           __size_of_Draw_28 0032             __size_of_Draw_P1 0032             __size_of_Draw_CL 0022  
           __size_of_Draw_P2 0032             __size_of_Draw_P3 0032             __size_of_Draw_P4 0032  
                 _EECON1bits 000FA6             __size_of_Closing 010E                     __Hrparam 0000  
           __size_of_Menu_P1 00F4             __size_of_Menu_P2 02EC             __size_of_Menu_P3 02C8  
           __size_of_Menu_P4 02EC             __size_of_Menu_In 00D6                     __Lrparam 0000  
     __size_of_eeprom_writex 0022              _Count_Exit_Menu 0011         _Button_Menu_Up_State 0033  
                   __ptext10 6692                     __ptext11 6660                     __ptext20 62B4  
                   __ptext12 662E                     __ptext21 6284                     __ptext13 65FC  
                   __ptext30 6A7A                     __ptext22 6254                     __ptext14 65CA  
                   __ptext31 60FC                     __ptext23 6224                     __ptext15 70DA  
                   __ptext40 63D6                     __ptext32 691A                     __ptext24 6598  
                   __ptext16 6374                     __ptext41 63A4                     __ptext33 646C  
                   __ptext25 6566                     __ptext17 6344                     __ptext50 6144  
                   __ptext42 681A                     __ptext34 61F4                     __ptext26 6534  
                   __ptext18 6314                     __ptext43 76B2                     __ptext35 675A  
                   __ptext27 6502                     __ptext19 62E4                     __ptext44 60CC  
                   __ptext36 61C4                     __ptext28 64D0                     __ptext45 611E  
                   __ptext37 6194                     __ptext29 649E                     __ptext46 6B6E  
                   __ptext38 643A                     __ptext47 616C                     __ptext39 6408  
                   __ptext48 60DA                     __ptext49 60C2                __size_of_Menu 0196  
              __size_of_main 0088        __CFG_CPUDIV$OSC1_PLL2 000000                   _INTCONbits 000FF2  
              ??_Analog_Read 0039                _eeprom_writex 60FC               ?_eeprom_writex 0037  
              ?_eeprom_readx 0037          __end_of_Analog_Read 616C  
