

Microchip MPLAB XC8 Assembler V2.05 build -831301201 
                                                                                               Sat Aug 08 06:39:17 2020

Microchip MPLAB XC8 C Compiler v2.05 (Free license) build 20181220022703 Og1 
     1                           	processor	18F2550
     2                           	fnconf	rparam,??,?,0
     3                           	opt	pw 120
     4                           	opt	flic
     5                           	psect	idataCOMRAM,global,class=CODE,delta=1,noexec
     6                           	psect	nvCOMRAM,global,class=COMRAM,space=1,delta=1,noexec
     7                           	psect	cinit,global,reloc=2,class=CODE,delta=1
     8                           	psect	bssCOMRAM,global,class=COMRAM,space=1,delta=1,noexec
     9                           	psect	dataCOMRAM,global,class=COMRAM,space=1,delta=1,noexec
    10                           	psect	cstackCOMRAM,global,class=COMRAM,space=1,delta=1,noexec
    11                           	psect	text0,global,reloc=2,class=CODE,delta=1
    12                           	psect	text1,global,reloc=2,class=CODE,delta=1
    13                           	psect	text2,global,reloc=2,class=CODE,delta=1,group=1
    14                           	psect	text3,global,reloc=2,class=CODE,delta=1
    15                           	psect	text4,global,reloc=2,class=CODE,delta=1
    16                           	psect	text5,global,reloc=2,class=CODE,delta=1
    17                           	psect	text6,global,reloc=2,class=CODE,delta=1
    18                           	psect	text7,global,reloc=2,class=CODE,delta=1
    19                           	psect	text8,global,reloc=2,class=CODE,delta=1
    20                           	psect	text9,global,reloc=2,class=CODE,delta=1
    21                           	psect	text10,global,reloc=2,class=CODE,delta=1
    22                           	psect	text11,global,reloc=2,class=CODE,delta=1
    23                           	psect	text12,global,reloc=2,class=CODE,delta=1
    24                           	psect	text13,global,reloc=2,class=CODE,delta=1
    25                           	psect	text14,global,reloc=2,class=CODE,delta=1
    26                           	psect	text15,global,reloc=2,class=CODE,delta=1
    27                           	psect	text16,global,reloc=2,class=CODE,delta=1
    28                           	psect	text17,global,reloc=2,class=CODE,delta=1
    29                           	psect	text18,global,reloc=2,class=CODE,delta=1
    30                           	psect	text19,global,reloc=2,class=CODE,delta=1
    31                           	psect	text20,global,reloc=2,class=CODE,delta=1
    32                           	psect	text21,global,reloc=2,class=CODE,delta=1
    33                           	psect	text22,global,reloc=2,class=CODE,delta=1
    34                           	psect	text23,global,reloc=2,class=CODE,delta=1
    35                           	psect	text24,global,reloc=2,class=CODE,delta=1
    36                           	psect	text25,global,reloc=2,class=CODE,delta=1
    37                           	psect	text26,global,reloc=2,class=CODE,delta=1
    38                           	psect	text27,global,reloc=2,class=CODE,delta=1
    39                           	psect	text28,global,reloc=2,class=CODE,delta=1
    40                           	psect	text29,global,reloc=2,class=CODE,delta=1
    41                           	psect	text30,global,reloc=2,class=CODE,delta=1
    42                           	psect	text31,global,reloc=2,class=CODE,delta=1
    43                           	psect	text32,global,reloc=2,class=CODE,delta=1
    44                           	psect	text33,global,reloc=2,class=CODE,delta=1
    45                           	psect	text34,global,reloc=2,class=CODE,delta=1
    46                           	psect	text35,global,reloc=2,class=CODE,delta=1
    47                           	psect	text36,global,reloc=2,class=CODE,delta=1
    48                           	psect	text37,global,reloc=2,class=CODE,delta=1
    49                           	psect	text38,global,reloc=2,class=CODE,delta=1
    50                           	psect	text39,global,reloc=2,class=CODE,delta=1
    51                           	psect	text40,global,reloc=2,class=CODE,delta=1
    52                           	psect	text41,global,reloc=2,class=CODE,delta=1
    53                           	psect	text42,global,reloc=2,class=CODE,delta=1
    54                           	psect	text43,global,reloc=2,class=CODE,delta=1
    55                           	psect	text44,global,reloc=2,class=CODE,delta=1
    56                           	psect	text45,global,reloc=2,class=CODE,delta=1,group=1
    57                           	psect	text46,global,reloc=2,class=CODE,delta=1
    58                           	psect	text47,global,reloc=2,class=CODE,delta=1
    59                           	psect	text48,global,reloc=2,class=CODE,delta=1
    60                           	psect	text49,global,reloc=2,class=CODE,delta=1
    61                           	psect	text50,global,reloc=2,class=CODE,delta=1
    62                           	psect	intsave_regs,global,class=BIGRAM,space=1,delta=1,noexec
    63                           	psect	rparam,global,class=COMRAM,space=1,delta=1,noexec
    64  0000                     
    65                           ; Version 2.05
    66                           ; Generated 20/12/2018 GMT
    67                           ; 
    68                           ; Copyright © 2018, Microchip Technology Inc. and its subsidiaries ("Microchip")
    69                           ; All rights reserved.
    70                           ; 
    71                           ; This software is developed by Microchip Technology Inc. and its subsidiaries ("Microch
      +                          ip").
    72                           ; 
    73                           ; Redistribution and use in source and binary forms, with or without modification, are
    74                           ; permitted provided that the following conditions are met:
    75                           ; 
    76                           ;     1. Redistributions of source code must retain the above copyright notice, this lis
      +                          t of
    77                           ;        conditions and the following disclaimer.
    78                           ; 
    79                           ;     2. Redistributions in binary form must reproduce the above copyright notice, this 
      +                          list
    80                           ;        of conditions and the following disclaimer in the documentation and/or other
    81                           ;        materials provided with the distribution.
    82                           ; 
    83                           ;     3. Microchip's name may not be used to endorse or promote products derived from th
      +                          is
    84                           ;        software without specific prior written permission.
    85                           ; 
    86                           ; THIS SOFTWARE IS PROVIDED BY MICROCHIP "AS IS" AND ANY EXPRESS OR IMPLIED WARRANTIES,
    87                           ; INCLUDING, BUT NOT LIMITED TO, THE IMPLIED WARRANTIES OF MERCHANTABILITY AND FITNESS F
      +                          OR
    88                           ; PURPOSE ARE DISCLAIMED.  IN NO EVENT SHALL MICROCHIP BE LIABLE FOR ANY DIRECT, INDIREC
      +                          T,
    89                           ; INCIDENTAL, SPECIAL, EXEMPLARY, OR CONSEQUENTIAL DAMAGES (INCLUDING BUT NOT LIMITED TO
    90                           ; PROCUREMENT OF SUBSTITUTE GOODS OR SERVICES; LOSS OF USE, DATA OR PROFITS; OR BUSINESS
    91                           ; INTERRUPTION) HOWSOEVER CAUSED AND ON ANY THEORY OF LIABILITY, WHETHER IN CONTRACT, ST
      +                          RICT
    92                           ; LIABILITY, OR TORT (INCLUDING NEGLIGENCE OR OTHERWISE) ARISING IN ANY WAY OUT OF THE U
      +                          SE OF
    93                           ; THIS SOFTWARE, EVEN IF ADVISED OF THE POSSIBILITY OF SUCH DAMAGE.
    94                           ; 
    95                           ; 
    96                           ; Code-generator required, PIC18F2550 Definitions
    97                           ; 
    98                           ; SFR Addresses
    99  0000                     
   100                           	psect	idataCOMRAM
   101  00611F                     __pidataCOMRAM:
   102                           	opt callstack 0
   103                           
   104                           ;initializer for _Time_Auto_Close
   105  00611F  0001               	dw	1
   106  006121  0000               	dw	0
   107                           
   108                           ;initializer for _Last_Button_Menu_Down_State
   109  006123  01                 	db	1
   110                           
   111                           ;initializer for _Last_Button_Menu_Up_State
   112  006124  01                 	db	1
   113                           
   114                           ;initializer for _Last_Open_Contact_State
   115  006125  01                 	db	1
   116                           
   117                           	psect	nvCOMRAM
   118  000048                     __pnvCOMRAM:
   119                           	opt callstack 0
   120  000048                     _Time_Open_State:
   121                           	opt callstack 0
   122  000048                     	ds	2
   123  00004A                     _Time_Inductive_State:
   124                           	opt callstack 0
   125  00004A                     	ds	2
   126  00004C                     _Latch:
   127                           	opt callstack 0
   128  00004C                     	ds	1
   129  00004D                     _End_Stop_Close_State:
   130                           	opt callstack 0
   131  00004D                     	ds	1
   132  00004E                     _Inductive_State:
   133                           	opt callstack 0
   134  00004E                     	ds	1
   135  0000                     _EECON2	set	4007
   136  0000                     _INTCONbits	set	4082
   137  0000                     _EECON1bits	set	4006
   138  0000                     _EEDATA	set	4008
   139  0000                     _EEADR	set	4009
   140  0000                     _ADRESL	set	4035
   141  0000                     _ADRESH	set	4036
   142  0000                     _PORTAbits	set	3968
   143  0000                     _PORTCbits	set	3970
   144  0000                     _PORTB	set	3969
   145  0000                     _TRISB	set	3987
   146  0000                     _ADCON2bits	set	4032
   147  0000                     _ADCON0bits	set	4034
   148  0000                     _TRISCbits	set	3988
   149  0000                     _TRISAbits	set	3986
   150  0000                     _ADCON1	set	4033
   151                           
   152                           ; #config settings
   153  0000                     
   154                           	psect	cinit
   155  0067F2                     __pcinit:
   156                           	opt callstack 0
   157  0067F2                     start_initialization:
   158                           	opt callstack 0
   159  0067F2                     __initialization:
   160                           	opt callstack 0
   161                           
   162                           ; Initialize objects allocated to COMRAM (7 bytes)
   163                           ; load TBLPTR registers with __pidataCOMRAM
   164  0067F2  0E1F               	movlw	low __pidataCOMRAM
   165  0067F4  6EF6               	movwf	tblptrl,c
   166  0067F6  0E61               	movlw	high __pidataCOMRAM
   167  0067F8  6EF7               	movwf	tblptrh,c
   168  0067FA  0E00               	movlw	low (__pidataCOMRAM shr (0+16))
   169  0067FC  6EF8               	movwf	tblptru,c
   170  0067FE  EE00  F04F         	lfsr	0,__pdataCOMRAM
   171  006802  EE10 F007          	lfsr	1,7
   172  006806                     copy_data0:
   173  006806  0009               	tblrd		*+
   174  006808  CFF5 FFEE          	movff	tablat,postinc0
   175  00680C  50E5               	movf	postdec1,w,c
   176  00680E  50E1               	movf	fsr1l,w,c
   177  006810  E1FA               	bnz	copy_data0
   178                           
   179                           ; Clear objects allocated to COMRAM (54 bytes)
   180  006812  EE00  F001         	lfsr	0,__pbssCOMRAM
   181  006816  0E36               	movlw	54
   182  006818                     clear_0:
   183  006818  6AEE               	clrf	postinc0,c
   184  00681A  06E8               	decf	wreg,f,c
   185  00681C  E1FD               	bnz	clear_0
   186  00681E                     end_of_initialization:
   187                           	opt callstack 0
   188  00681E                     __end_of__initialization:
   189                           	opt callstack 0
   190  00681E  0E00               	movlw	low (__Lmediumconst shr (0+16))
   191  006820  6EF8               	movwf	tblptru,c
   192  006822  0100               	movlb	0
   193  006824  EF7B  F034         	goto	_main	;jump to C main() function
   194                           
   195                           	psect	bssCOMRAM
   196  000001                     __pbssCOMRAM:
   197                           	opt callstack 0
   198  000001                     _Buffer1:
   199                           	opt callstack 0
   200  000001                     	ds	16
   201  000011                     _Count_Exit_Menu:
   202                           	opt callstack 0
   203  000011                     	ds	4
   204  000015                     _Count_Save:
   205                           	opt callstack 0
   206  000015                     	ds	4
   207  000019                     _Count_Auto_Close:
   208                           	opt callstack 0
   209  000019                     	ds	4
   210  00001D                     _Count_Time_Close:
   211                           	opt callstack 0
   212  00001D                     	ds	4
   213  000021                     _data_test:
   214                           	opt callstack 0
   215  000021                     	ds	2
   216  000023                     _ADC:
   217                           	opt callstack 0
   218  000023                     	ds	2
   219  000025                     _Count_Led:
   220                           	opt callstack 0
   221  000025                     	ds	2
   222  000027                     _Count_Push_Button:
   223                           	opt callstack 0
   224  000027                     	ds	2
   225  000029                     _Current:
   226                           	opt callstack 0
   227  000029                     	ds	2
   228  00002B                     _Count_Peake_Current:
   229                           	opt callstack 0
   230  00002B                     	ds	2
   231  00002D                     _Flag_End_Stop_Open:
   232                           	opt callstack 0
   233  00002D                     	ds	1
   234  00002E                     _Flag_Latch:
   235                           	opt callstack 0
   236  00002E                     	ds	1
   237  00002F                     _Flag_Menu:
   238                           	opt callstack 0
   239  00002F                     	ds	1
   240  000030                     _Toggle_Down:
   241                           	opt callstack 0
   242  000030                     	ds	1
   243  000031                     _Toggle_Up:
   244                           	opt callstack 0
   245  000031                     	ds	1
   246  000032                     _Button_Menu_Down_State:
   247                           	opt callstack 0
   248  000032                     	ds	1
   249  000033                     _Button_Menu_Up_State:
   250                           	opt callstack 0
   251  000033                     	ds	1
   252  000034                     _End_Stop_Open_State:
   253                           	opt callstack 0
   254  000034                     	ds	1
   255  000035                     _Open_Contact_State:
   256                           	opt callstack 0
   257  000035                     	ds	1
   258  000036                     _Last_Inductive_State:
   259                           	opt callstack 0
   260  000036                     	ds	1
   261                           
   262                           	psect	dataCOMRAM
   263  00004F                     __pdataCOMRAM:
   264                           	opt callstack 0
   265  00004F                     _Time_Auto_Close:
   266                           	opt callstack 0
   267  00004F                     	ds	4
   268  000053                     _Last_Button_Menu_Down_State:
   269                           	opt callstack 0
   270  000053                     	ds	1
   271  000054                     _Last_Button_Menu_Up_State:
   272                           	opt callstack 0
   273  000054                     	ds	1
   274  000055                     _Last_Open_Contact_State:
   275                           	opt callstack 0
   276  000055                     	ds	1
   277                           
   278                           	psect	cstackCOMRAM
   279  000037                     __pcstackCOMRAM:
   280                           	opt callstack 0
   281  000037                     ??_Draw_P1:
   282  000037                     ??_Draw_P2:
   283  000037                     ??_Draw_P3:
   284  000037                     ??_Draw_P4:
   285  000037                     ??_Draw_0:
   286  000037                     ??_Draw_1:
   287  000037                     ??_Draw_2:
   288  000037                     ??_Draw_3:
   289  000037                     ??_Draw_4:
   290  000037                     ??_Draw_5:
   291  000037                     ??_Draw_6:
   292  000037                     ??_Draw_7:
   293  000037                     ??_Draw_8:
   294  000037                     ??_Draw_9:
   295  000037                     ??_Draw_10:
   296  000037                     ??_Draw_11:
   297  000037                     ??_Draw_12:
   298  000037                     ??_Draw_13:
   299  000037                     ??_Draw_14:
   300  000037                     ??_Draw_15:
   301  000037                     ??_Draw_16:
   302  000037                     ??_Draw_18:
   303  000037                     ??_Draw_20:
   304  000037                     ??_Draw_22:
   305  000037                     ??_Draw_24:
   306  000037                     ??_Draw_26:
   307  000037                     ??_Draw_28:
   308  000037                     ??_Draw_30:
   309  000037                     ??_Draw_Save_Dot_One:
   310  000037                     ??_Draw_Save_Dot_Two:
   311  000037                     ?_Analog_Read:
   312                           	opt callstack 0
   313  000037                     ?___wmul:
   314                           	opt callstack 0
   315  000037                     ?___lmul:
   316                           	opt callstack 0
   317  000037                     eeprom_writex@address:
   318                           	opt callstack 0
   319  000037                     eeprom_readx@address:
   320                           	opt callstack 0
   321  000037                     ___wmul@multiplier:
   322                           	opt callstack 0
   323  000037                     ___lmul@multiplier:
   324                           	opt callstack 0
   325                           
   326                           ; 4 bytes @ 0x0
   327  000037                     	ds	1
   328  000038                     ??_Recording:
   329                           
   330                           ; 1 bytes @ 0x1
   331  000038                     	ds	1
   332  000039                     ??_Closing:
   333  000039                     eeprom_writex@data:
   334                           	opt callstack 0
   335  000039                     ___wmul@multiplicand:
   336                           	opt callstack 0
   337                           
   338                           ; 2 bytes @ 0x2
   339  000039                     	ds	1
   340  00003A                     ??_Menu_P1:
   341  00003A                     ??_Menu_P2:
   342  00003A                     ??_Menu_P3:
   343  00003A                     ??_Menu_P4:
   344  00003A                     
   345                           ; 1 bytes @ 0x3
   346  00003A                     	ds	1
   347  00003B                     ___wmul@product:
   348                           	opt callstack 0
   349  00003B                     ___lmul@multiplicand:
   350                           	opt callstack 0
   351                           
   352                           ; 4 bytes @ 0x4
   353  00003B                     	ds	1
   354  00003C                     ??_Menu:
   355                           
   356                           ; 1 bytes @ 0x5
   357  00003C                     	ds	1
   358  00003D                     ??_Close_Lock:
   359                           
   360                           ; 1 bytes @ 0x6
   361  00003D                     	ds	1
   362  00003E                     ??_Menu_In:
   363                           
   364                           ; 1 bytes @ 0x7
   365  00003E                     	ds	1
   366  00003F                     ___lmul@product:
   367                           	opt callstack 0
   368                           
   369                           ; 4 bytes @ 0x8
   370  00003F                     	ds	4
   371  000043                     ??_Open_Lock:
   372                           
   373                           ; 1 bytes @ 0xC
   374  000043                     	ds	2
   375  000045                     Open_Lock@Value_Latch:
   376                           	opt callstack 0
   377                           
   378                           ; 2 bytes @ 0xE
   379  000045                     	ds	2
   380  000047                     ??_main:
   381                           
   382                           ; 1 bytes @ 0x10
   383  000047                     	ds	1
   384                           
   385 ;;
   386 ;;Main: autosize = 0, tempsize = 1, incstack = 0, save=0
   387 ;;
   388 ;; *************** function _main *****************
   389 ;; Defined at:
   390 ;;		line 130 in file "main.c"
   391 ;; Parameters:    Size  Location     Type
   392 ;;		None
   393 ;; Auto vars:     Size  Location     Type
   394 ;;		None
   395 ;; Return value:  Size  Location     Type
   396 ;;                  1    wreg      void 
   397 ;; Registers used:
   398 ;;		wreg, status,2, status,0, prodl, prodh, cstack
   399 ;; Tracked objects:
   400 ;;		On entry : 0/0
   401 ;;		On exit  : 0/0
   402 ;;		Unchanged: 0/0
   403 ;; Data sizes:     COMRAM   BANK0   BANK1   BANK2   BANK3   BANK4   BANK5   BANK6   BANK7
   404 ;;      Params:         0       0       0       0       0       0       0       0       0
   405 ;;      Locals:         0       0       0       0       0       0       0       0       0
   406 ;;      Temps:          1       0       0       0       0       0       0       0       0
   407 ;;      Totals:         1       0       0       0       0       0       0       0       0
   408 ;;Total ram usage:        1 bytes
   409 ;; Hardware stack levels required when called:    5
   410 ;; This function calls:
   411 ;;		_Close_Lock
   412 ;;		_Indicator
   413 ;;		_Menu_In
   414 ;;		_Open_Lock
   415 ;;		_eeprom_readx
   416 ;; This function is called by:
   417 ;;		Startup code after reset
   418 ;; This function uses a non-reentrant model
   419 ;;
   420                           
   421                           	psect	text0
   422  0068F6                     __ptext0:
   423                           	opt callstack 0
   424  0068F6                     _main:
   425                           	opt callstack 26
   426                           
   427                           ;main.c: 131:     ADCON1 = 0X0E;
   428                           
   429                           ;incstack = 0
   430  0068F6  0E0E               	movlw	14
   431  0068F8  6EC1               	movwf	4033,c	;volatile
   432                           
   433                           ;main.c: 133:     TRISAbits.RA0 = 1;
   434  0068FA  8092               	bsf	3986,0,c	;volatile
   435                           
   436                           ;main.c: 134:     TRISAbits.RA3 = 1;
   437  0068FC  8692               	bsf	3986,3,c	;volatile
   438                           
   439                           ;main.c: 135:     TRISCbits.RC0 = 1;
   440  0068FE  8094               	bsf	3988,0,c	;volatile
   441                           
   442                           ;main.c: 136:     TRISCbits.RC1 = 0;
   443  006900  9294               	bcf	3988,1,c	;volatile
   444                           
   445                           ;main.c: 137:     TRISCbits.RC2 = 0;
   446  006902  9494               	bcf	3988,2,c	;volatile
   447                           
   448                           ;main.c: 138:     TRISCbits.RC6 = 0;
   449  006904  9C94               	bcf	3988,6,c	;volatile
   450                           
   451                           ;main.c: 139:     TRISCbits.RC7 = 0;
   452  006906  9E94               	bcf	3988,7,c	;volatile
   453                           
   454                           ;main.c: 140:     TRISAbits.RA4 = 1;
   455  006908  8892               	bsf	3986,4,c	;volatile
   456                           
   457                           ;main.c: 141:     TRISAbits.RA5 = 1;
   458  00690A  8A92               	bsf	3986,5,c	;volatile
   459                           
   460                           ;main.c: 142:     TRISAbits.RA1 = 1;
   461  00690C  8292               	bsf	3986,1,c	;volatile
   462                           
   463                           ;main.c: 143:     TRISAbits.RA2 = 1;
   464  00690E  8492               	bsf	3986,2,c	;volatile
   465                           
   466                           ;main.c: 146:     ADCON0bits.CHS = 0;
   467  006910  0EC3               	movlw	-61
   468  006912  16C2               	andwf	4034,f,c	;volatile
   469                           
   470                           ;main.c: 149:     ADCON2bits.ADCS = 0b000;
   471  006914  0EF8               	movlw	-8
   472  006916  16C0               	andwf	4032,f,c	;volatile
   473                           
   474                           ;main.c: 150:     ADCON2bits.ADFM = 1;
   475  006918  8EC0               	bsf	4032,7,c	;volatile
   476                           
   477                           ;main.c: 151:     ADCON0bits.ADON = 1;
   478  00691A  80C2               	bsf	4034,0,c	;volatile
   479                           
   480                           ;main.c: 153:     TRISB = 0x00;
   481  00691C  0E00               	movlw	0
   482  00691E  6E93               	movwf	3987,c	;volatile
   483                           
   484                           ;main.c: 154:     PORTB = 0xFF;
   485  006920  6881               	setf	3969,c	;volatile
   486                           
   487                           ;main.c: 156:     PORTCbits.RC7 = 0;
   488  006922  9E82               	bcf	3970,7,c	;volatile
   489                           
   490                           ;main.c: 157:     PORTCbits.RC6 = 0;
   491  006924  9C82               	bcf	3970,6,c	;volatile
   492                           
   493                           ;main.c: 158:     PORTCbits.RC1 = 0;
   494  006926  9282               	bcf	3970,1,c	;volatile
   495                           
   496                           ;main.c: 159:     PORTCbits.RC2 = 0;
   497  006928  9482               	bcf	3970,2,c	;volatile
   498                           
   499                           ;main.c: 161:     Latch = eeprom_readx(0x01);
   500  00692A  0E00               	movlw	0
   501  00692C  6E38               	movwf	eeprom_readx@address+1,c
   502  00692E  0E01               	movlw	1
   503  006930  6E37               	movwf	eeprom_readx@address,c
   504  006932  EC98  F030         	call	_eeprom_readx	;wreg free
   505  006936  0900               	iorlw	0
   506  006938  B4D8               	btfsc	status,2,c
   507  00693A  D002               	goto	u1770
   508  00693C  0E01               	movlw	1
   509  00693E  D001               	goto	u1780
   510  006940                     u1770:
   511  006940  0E00               	movlw	0
   512  006942                     u1780:
   513  006942  6E4C               	movwf	_Latch,c
   514                           
   515                           ;main.c: 162:     Time_Inductive_State = eeprom_readx(0x02);
   516  006944  0E00               	movlw	0
   517  006946  6E38               	movwf	eeprom_readx@address+1,c
   518  006948  0E02               	movlw	2
   519  00694A  6E37               	movwf	eeprom_readx@address,c
   520  00694C  EC98  F030         	call	_eeprom_readx	;wreg free
   521  006950  6E47               	movwf	??_main& (0+255),c
   522  006952  5047               	movf	??_main,w,c
   523  006954  6E4A               	movwf	_Time_Inductive_State,c
   524  006956  6A4B               	clrf	_Time_Inductive_State+1,c
   525                           
   526                           ;main.c: 163:     Time_Open_State = eeprom_readx(0x04);
   527  006958  0E00               	movlw	0
   528  00695A  6E38               	movwf	eeprom_readx@address+1,c
   529  00695C  0E04               	movlw	4
   530  00695E  6E37               	movwf	eeprom_readx@address,c
   531  006960  EC98  F030         	call	_eeprom_readx	;wreg free
   532  006964  6E47               	movwf	??_main& (0+255),c
   533  006966  5047               	movf	??_main,w,c
   534  006968  6E48               	movwf	_Time_Open_State,c
   535  00696A  6A49               	clrf	_Time_Open_State+1,c
   536  00696C                     l3981:
   537                           
   538                           ;main.c: 166:         Indicator();
   539  00696C  EC3F  F034         	call	_Indicator	;wreg free
   540                           
   541                           ;main.c: 167:         Menu_In();
   542  006970  EC6D  F035         	call	_Menu_In	;wreg free
   543                           
   544                           ;main.c: 168:         Close_Lock();
   545  006974  EC6D  F03B         	call	_Close_Lock	;wreg free
   546                           
   547                           ;main.c: 169:         Open_Lock();
   548  006978  EC59  F03D         	call	_Open_Lock	;wreg free
   549  00697C  D7F7               	goto	l3981
   550  00697E                     __end_of_main:
   551                           	opt callstack 0
   552                           
   553 ;; *************** function _Open_Lock *****************
   554 ;; Defined at:
   555 ;;		line 221 in file "main.c"
   556 ;; Parameters:    Size  Location     Type
   557 ;;		None
   558 ;; Auto vars:     Size  Location     Type
   559 ;;  Value_Latch     2   14[COMRAM] int 
   560 ;; Return value:  Size  Location     Type
   561 ;;                  1    wreg      void 
   562 ;; Registers used:
   563 ;;		wreg, status,2, status,0, prodl, prodh, cstack
   564 ;; Tracked objects:
   565 ;;		On entry : 0/0
   566 ;;		On exit  : 0/0
   567 ;;		Unchanged: 0/0
   568 ;; Data sizes:     COMRAM   BANK0   BANK1   BANK2   BANK3   BANK4   BANK5   BANK6   BANK7
   569 ;;      Params:         0       0       0       0       0       0       0       0       0
   570 ;;      Locals:         2       0       0       0       0       0       0       0       0
   571 ;;      Temps:          2       0       0       0       0       0       0       0       0
   572 ;;      Totals:         4       0       0       0       0       0       0       0       0
   573 ;;Total ram usage:        4 bytes
   574 ;; Hardware stack levels used:    1
   575 ;; Hardware stack levels required when called:    3
   576 ;; This function calls:
   577 ;;		_Closing
   578 ;;		_Sense_Current
   579 ;;		___lmul
   580 ;;		___wmul
   581 ;;		_eeprom_readx
   582 ;; This function is called by:
   583 ;;		_main
   584 ;; This function uses a non-reentrant model
   585 ;;
   586                           
   587                           	psect	text1
   588  007AB2                     __ptext1:
   589                           	opt callstack 0
   590  007AB2                     _Open_Lock:
   591                           	opt callstack 27
   592                           
   593                           ;main.c: 222:     Open_Contact_State = PORTCbits.RC0;
   594                           
   595                           ;incstack = 0
   596  007AB2  A082               	btfss	3970,0,c	;volatile
   597  007AB4  D002               	goto	u1570
   598  007AB6  0E01               	movlw	1
   599  007AB8  D001               	goto	u1576
   600  007ABA                     u1570:
   601  007ABA  0E00               	movlw	0
   602  007ABC                     u1576:
   603  007ABC  6E35               	movwf	_Open_Contact_State,c
   604                           
   605                           ;main.c: 223:     _delay((unsigned long)((50)*(20000000/4000.0)));
   606  007ABE  0E02               	movlw	2
   607  007AC0  6E44               	movwf	(??_Open_Lock+1)& (0+255),c
   608  007AC2  0E45               	movlw	69
   609  007AC4  6E43               	movwf	??_Open_Lock& (0+255),c
   610  007AC6  0EAA               	movlw	170
   611  007AC8                     u1797:
   612  007AC8  2EE8               	decfsz	wreg,f,c
   613  007ACA  D7FE               	bra	u1797
   614  007ACC  2E43               	decfsz	??_Open_Lock& (0+255),f,c
   615  007ACE  D7FC               	bra	u1797
   616  007AD0  2E44               	decfsz	(??_Open_Lock+1)& (0+255),f,c
   617  007AD2  D7FA               	bra	u1797
   618                           
   619                           ;main.c: 224:     if(Open_Contact_State == 0 && Last_Open_Contact_State == 1) {
   620  007AD4  5035               	movf	_Open_Contact_State,w,c
   621  007AD6  A4D8               	btfss	status,2,c
   622  007AD8  D290               	goto	l3871
   623  007ADA  0455               	decf	_Last_Open_Contact_State,w,c
   624  007ADC  A4D8               	btfss	status,2,c
   625  007ADE  D28D               	goto	l3871
   626                           
   627                           ;main.c: 225:         _delay((unsigned long)((50)*(20000000/4000.0)));
   628  007AE0  0E02               	movlw	2
   629  007AE2  6E44               	movwf	(??_Open_Lock+1)& (0+255),c
   630  007AE4  0E45               	movlw	69
   631  007AE6  6E43               	movwf	??_Open_Lock& (0+255),c
   632  007AE8  0EAA               	movlw	170
   633  007AEA                     u1807:
   634  007AEA  2EE8               	decfsz	wreg,f,c
   635  007AEC  D7FE               	bra	u1807
   636  007AEE  2E43               	decfsz	??_Open_Lock& (0+255),f,c
   637  007AF0  D7FC               	bra	u1807
   638  007AF2  2E44               	decfsz	(??_Open_Lock+1)& (0+255),f,c
   639  007AF4  D7FA               	bra	u1807
   640                           
   641                           ;main.c: 226:         End_Stop_Open_State = PORTAbits.RA4;
   642  007AF6  A880               	btfss	3968,4,c	;volatile
   643  007AF8  D002               	goto	u1600
   644  007AFA  0E01               	movlw	1
   645  007AFC  D001               	goto	u1606
   646  007AFE                     u1600:
   647  007AFE  0E00               	movlw	0
   648  007B00                     u1606:
   649  007B00  6E34               	movwf	_End_Stop_Open_State,c
   650                           
   651                           ;main.c: 227:         if(Open_Contact_State == 0 && Last_Open_Contact_State == 1 && End_
      +                          Stop_Open_State == 1) {
   652  007B02  5035               	movf	_Open_Contact_State,w,c
   653  007B04  A4D8               	btfss	status,2,c
   654  007B06  D279               	goto	l3871
   655  007B08  0455               	decf	_Last_Open_Contact_State,w,c
   656  007B0A  A4D8               	btfss	status,2,c
   657  007B0C  D276               	goto	l3871
   658  007B0E  0434               	decf	_End_Stop_Open_State,w,c
   659  007B10  A4D8               	btfss	status,2,c
   660  007B12  D273               	goto	l3871
   661                           
   662                           ;main.c: 228:             Time_Open_State = eeprom_readx(0x04);
   663  007B14  0E00               	movlw	0
   664  007B16  6E38               	movwf	eeprom_readx@address+1,c
   665  007B18  0E04               	movlw	4
   666  007B1A  6E37               	movwf	eeprom_readx@address,c
   667  007B1C  EC98  F030         	call	_eeprom_readx	;wreg free
   668  007B20  6E43               	movwf	??_Open_Lock& (0+255),c
   669  007B22  5043               	movf	??_Open_Lock,w,c
   670  007B24  6E48               	movwf	_Time_Open_State,c
   671  007B26  6A49               	clrf	_Time_Open_State+1,c
   672                           
   673                           ;main.c: 229:             Time_Open_State = Time_Open_State * 1000;
   674  007B28  C048  F037         	movff	_Time_Open_State,___wmul@multiplier
   675  007B2C  C049  F038         	movff	_Time_Open_State+1,___wmul@multiplier+1
   676  007B30  0E03               	movlw	3
   677  007B32  6E3A               	movwf	___wmul@multiplicand+1,c
   678  007B34  0EE8               	movlw	232
   679  007B36  6E39               	movwf	___wmul@multiplicand,c
   680  007B38  ECC1  F030         	call	___wmul	;wreg free
   681  007B3C  C037  F048         	movff	?___wmul,_Time_Open_State
   682  007B40  C038  F049         	movff	?___wmul+1,_Time_Open_State+1
   683                           
   684                           ;main.c: 230:             switch (Time_Open_State)
   685  007B44  D0ED               	goto	l3805
   686  007B46                     l3773:
   687  007B46  0E1A               	movlw	26
   688  007B48  6E44               	movwf	(??_Open_Lock+1)& (0+255),c
   689  007B4A  0E5E               	movlw	94
   690  007B4C  6E43               	movwf	??_Open_Lock& (0+255),c
   691  007B4E  0E6E               	movlw	110
   692  007B50                     u1817:
   693  007B50  2EE8               	decfsz	wreg,f,c
   694  007B52  D7FE               	bra	u1817
   695  007B54  2E43               	decfsz	??_Open_Lock& (0+255),f,c
   696  007B56  D7FC               	bra	u1817
   697  007B58  2E44               	decfsz	(??_Open_Lock+1)& (0+255),f,c
   698  007B5A  D7FA               	bra	u1817
   699  007B5C  D082               	goto	L5
   700  007B5E                     l3775:
   701  007B5E  0E33               	movlw	51
   702  007B60  6E44               	movwf	(??_Open_Lock+1)& (0+255),c
   703  007B62  0EBB               	movlw	187
   704  007B64  6E43               	movwf	??_Open_Lock& (0+255),c
   705  007B66  0EE0               	movlw	224
   706  007B68                     u1827:
   707  007B68  2EE8               	decfsz	wreg,f,c
   708  007B6A  D7FE               	bra	u1827
   709  007B6C  2E43               	decfsz	??_Open_Lock& (0+255),f,c
   710  007B6E  D7FC               	bra	u1827
   711  007B70  2E44               	decfsz	(??_Open_Lock+1)& (0+255),f,c
   712  007B72  D7FA               	bra	u1827
   713  007B74  D158               	goto	l3807
   714  007B76                     l3777:
   715  007B76  0E4D               	movlw	77
   716  007B78  6E44               	movwf	(??_Open_Lock+1)& (0+255),c
   717  007B7A  0E19               	movlw	25
   718  007B7C  6E43               	movwf	??_Open_Lock& (0+255),c
   719  007B7E  0E50               	movlw	80
   720  007B80                     u1837:
   721  007B80  2EE8               	decfsz	wreg,f,c
   722  007B82  D7FE               	bra	u1837
   723  007B84  2E43               	decfsz	??_Open_Lock& (0+255),f,c
   724  007B86  D7FC               	bra	u1837
   725  007B88  2E44               	decfsz	(??_Open_Lock+1)& (0+255),f,c
   726  007B8A  D7FA               	bra	u1837
   727  007B8C  D14C               	goto	l3807
   728  007B8E                     l3779:
   729  007B8E  0E66               	movlw	102
   730  007B90  6E44               	movwf	(??_Open_Lock+1)& (0+255),c
   731  007B92  0E76               	movlw	118
   732  007B94  6E43               	movwf	??_Open_Lock& (0+255),c
   733  007B96  0EC1               	movlw	193
   734  007B98                     u1847:
   735  007B98  2EE8               	decfsz	wreg,f,c
   736  007B9A  D7FE               	bra	u1847
   737  007B9C  2E43               	decfsz	??_Open_Lock& (0+255),f,c
   738  007B9E  D7FC               	bra	u1847
   739  007BA0  2E44               	decfsz	(??_Open_Lock+1)& (0+255),f,c
   740  007BA2  D7FA               	bra	u1847
   741  007BA4  D0A4               	goto	L6
   742  007BA6                     l3781:
   743  007BA6  0E7F               	movlw	127
   744  007BA8  6E44               	movwf	(??_Open_Lock+1)& (0+255),c
   745  007BAA  0ED4               	movlw	212
   746  007BAC  6E43               	movwf	??_Open_Lock& (0+255),c
   747  007BAE  0E32               	movlw	50
   748  007BB0                     u1857:
   749  007BB0  2EE8               	decfsz	wreg,f,c
   750  007BB2  D7FE               	bra	u1857
   751  007BB4  2E43               	decfsz	??_Open_Lock& (0+255),f,c
   752  007BB6  D7FC               	bra	u1857
   753  007BB8  2E44               	decfsz	(??_Open_Lock+1)& (0+255),f,c
   754  007BBA  D7FA               	bra	u1857
   755  007BBC  D134               	goto	l3807
   756  007BBE                     l3783:
   757  007BBE  0E99               	movlw	153
   758  007BC0  6E44               	movwf	(??_Open_Lock+1)& (0+255),c
   759  007BC2  0E31               	movlw	49
   760  007BC4  6E43               	movwf	??_Open_Lock& (0+255),c
   761  007BC6  0EA2               	movlw	162
   762  007BC8                     u1867:
   763  007BC8  2EE8               	decfsz	wreg,f,c
   764  007BCA  D7FE               	bra	u1867
   765  007BCC  2E43               	decfsz	??_Open_Lock& (0+255),f,c
   766  007BCE  D7FC               	bra	u1867
   767  007BD0  2E44               	decfsz	(??_Open_Lock+1)& (0+255),f,c
   768  007BD2  D7FA               	bra	u1867
   769  007BD4  D046               	goto	L5
   770  007BD6                     l3785:
   771  007BD6  0EB2               	movlw	178
   772  007BD8  6E44               	movwf	(??_Open_Lock+1)& (0+255),c
   773  007BDA  0E8F               	movlw	143
   774  007BDC  6E43               	movwf	??_Open_Lock& (0+255),c
   775  007BDE  0E13               	movlw	19
   776  007BE0                     u1877:
   777  007BE0  2EE8               	decfsz	wreg,f,c
   778  007BE2  D7FE               	bra	u1877
   779  007BE4  2E43               	decfsz	??_Open_Lock& (0+255),f,c
   780  007BE6  D7FC               	bra	u1877
   781  007BE8  2E44               	decfsz	(??_Open_Lock+1)& (0+255),f,c
   782  007BEA  D7FA               	bra	u1877
   783  007BEC  D080               	goto	L6
   784  007BEE                     l3787:
   785  007BEE  0ECB               	movlw	203
   786  007BF0  6E44               	movwf	(??_Open_Lock+1)& (0+255),c
   787  007BF2  0EEC               	movlw	236
   788  007BF4  6E43               	movwf	??_Open_Lock& (0+255),c
   789  007BF6  0E84               	movlw	132
   790  007BF8                     u1887:
   791  007BF8  2EE8               	decfsz	wreg,f,c
   792  007BFA  D7FE               	bra	u1887
   793  007BFC  2E43               	decfsz	??_Open_Lock& (0+255),f,c
   794  007BFE  D7FC               	bra	u1887
   795  007C00  2E44               	decfsz	(??_Open_Lock+1)& (0+255),f,c
   796  007C02  D7FA               	bra	u1887
   797  007C04  D02E               	goto	L5
   798  007C06                     l3789:
   799  007C06  0EE5               	movlw	229
   800  007C08  6E44               	movwf	(??_Open_Lock+1)& (0+255),c
   801  007C0A  0E49               	movlw	73
   802  007C0C  6E43               	movwf	??_Open_Lock& (0+255),c
   803  007C0E  0EF5               	movlw	245
   804  007C10                     u1897:
   805  007C10  2EE8               	decfsz	wreg,f,c
   806  007C12  D7FE               	bra	u1897
   807  007C14  2E43               	decfsz	??_Open_Lock& (0+255),f,c
   808  007C16  D7FC               	bra	u1897
   809  007C18  2E44               	decfsz	(??_Open_Lock+1)& (0+255),f,c
   810  007C1A  D7FA               	bra	u1897
   811  007C1C  D068               	goto	L6
   812  007C1E                     l3791:
   813  007C1E  0EFE               	movlw	254
   814  007C20  6E44               	movwf	(??_Open_Lock+1)& (0+255),c
   815  007C22  0EA7               	movlw	167
   816  007C24  6E43               	movwf	??_Open_Lock& (0+255),c
   817  007C26  0E66               	movlw	102
   818  007C28                     u1907:
   819  007C28  2EE8               	decfsz	wreg,f,c
   820  007C2A  D7FE               	bra	u1907
   821  007C2C  2E43               	decfsz	??_Open_Lock& (0+255),f,c
   822  007C2E  D7FC               	bra	u1907
   823  007C30  2E44               	decfsz	(??_Open_Lock+1)& (0+255),f,c
   824  007C32  D7FA               	bra	u1907
   825  007C34  D0F8               	goto	l3807
   826  007C36                     l3793:
   827  007C36  0EFE               	movlw	254
   828  007C38  6E44               	movwf	(??_Open_Lock+1)& (0+255),c
   829  007C3A  0EA7               	movlw	167
   830  007C3C  6E43               	movwf	??_Open_Lock& (0+255),c
   831  007C3E  0E66               	movlw	102
   832  007C40                     u1917:
   833  007C40  2EE8               	decfsz	wreg,f,c
   834  007C42  D7FE               	bra	u1917
   835  007C44  2E43               	decfsz	??_Open_Lock& (0+255),f,c
   836  007C46  D7FC               	bra	u1917
   837  007C48  2E44               	decfsz	(??_Open_Lock+1)& (0+255),f,c
   838  007C4A  D7FA               	bra	u1917
   839  007C4C  0E1A               	movlw	26
   840  007C4E  6E44               	movwf	(??_Open_Lock+1)& (0+255),c
   841  007C50  0E5E               	movlw	94
   842  007C52  6E43               	movwf	??_Open_Lock& (0+255),c
   843  007C54  0E6E               	movlw	110
   844  007C56                     u1927:
   845  007C56  2EE8               	decfsz	wreg,f,c
   846  007C58  D7FE               	bra	u1927
   847  007C5A  2E43               	decfsz	??_Open_Lock& (0+255),f,c
   848  007C5C  D7FC               	bra	u1927
   849  007C5E  2E44               	decfsz	(??_Open_Lock+1)& (0+255),f,c
   850  007C60  D7FA               	bra	u1927
   851  007C62                     L5:
   852  007C62  D000               	nop2	
   853  007C64  D0E0               	goto	l3807
   854  007C66                     l3795:
   855  007C66  0EFE               	movlw	254
   856  007C68  6E44               	movwf	(??_Open_Lock+1)& (0+255),c
   857  007C6A  0EA7               	movlw	167
   858  007C6C  6E43               	movwf	??_Open_Lock& (0+255),c
   859  007C6E  0E66               	movlw	102
   860  007C70                     u1937:
   861  007C70  2EE8               	decfsz	wreg,f,c
   862  007C72  D7FE               	bra	u1937
   863  007C74  2E43               	decfsz	??_Open_Lock& (0+255),f,c
   864  007C76  D7FC               	bra	u1937
   865  007C78  2E44               	decfsz	(??_Open_Lock+1)& (0+255),f,c
   866  007C7A  D7FA               	bra	u1937
   867  007C7C  0E33               	movlw	51
   868  007C7E  6E44               	movwf	(??_Open_Lock+1)& (0+255),c
   869  007C80  0EBB               	movlw	187
   870  007C82  6E43               	movwf	??_Open_Lock& (0+255),c
   871  007C84  0EE0               	movlw	224
   872  007C86                     u1947:
   873  007C86  2EE8               	decfsz	wreg,f,c
   874  007C88  D7FE               	bra	u1947
   875  007C8A  2E43               	decfsz	??_Open_Lock& (0+255),f,c
   876  007C8C  D7FC               	bra	u1947
   877  007C8E  2E44               	decfsz	(??_Open_Lock+1)& (0+255),f,c
   878  007C90  D7FA               	bra	u1947
   879  007C92  D0C9               	goto	l3807
   880  007C94                     l3797:
   881  007C94  0EFE               	movlw	254
   882  007C96  6E44               	movwf	(??_Open_Lock+1)& (0+255),c
   883  007C98  0EA7               	movlw	167
   884  007C9A  6E43               	movwf	??_Open_Lock& (0+255),c
   885  007C9C  0E66               	movlw	102
   886  007C9E                     u1957:
   887  007C9E  2EE8               	decfsz	wreg,f,c
   888  007CA0  D7FE               	bra	u1957
   889  007CA2  2E43               	decfsz	??_Open_Lock& (0+255),f,c
   890  007CA4  D7FC               	bra	u1957
   891  007CA6  2E44               	decfsz	(??_Open_Lock+1)& (0+255),f,c
   892  007CA8  D7FA               	bra	u1957
   893  007CAA  0E4D               	movlw	77
   894  007CAC  6E44               	movwf	(??_Open_Lock+1)& (0+255),c
   895  007CAE  0E19               	movlw	25
   896  007CB0  6E43               	movwf	??_Open_Lock& (0+255),c
   897  007CB2  0E50               	movlw	80
   898  007CB4                     u1967:
   899  007CB4  2EE8               	decfsz	wreg,f,c
   900  007CB6  D7FE               	bra	u1967
   901  007CB8  2E43               	decfsz	??_Open_Lock& (0+255),f,c
   902  007CBA  D7FC               	bra	u1967
   903  007CBC  2E44               	decfsz	(??_Open_Lock+1)& (0+255),f,c
   904  007CBE  D7FA               	bra	u1967
   905  007CC0  D0B2               	goto	l3807
   906  007CC2                     l3799:
   907  007CC2  0EFE               	movlw	254
   908  007CC4  6E44               	movwf	(??_Open_Lock+1)& (0+255),c
   909  007CC6  0EA7               	movlw	167
   910  007CC8  6E43               	movwf	??_Open_Lock& (0+255),c
   911  007CCA  0E66               	movlw	102
   912  007CCC                     u1977:
   913  007CCC  2EE8               	decfsz	wreg,f,c
   914  007CCE  D7FE               	bra	u1977
   915  007CD0  2E43               	decfsz	??_Open_Lock& (0+255),f,c
   916  007CD2  D7FC               	bra	u1977
   917  007CD4  2E44               	decfsz	(??_Open_Lock+1)& (0+255),f,c
   918  007CD6  D7FA               	bra	u1977
   919  007CD8  0E66               	movlw	102
   920  007CDA  6E44               	movwf	(??_Open_Lock+1)& (0+255),c
   921  007CDC  0E76               	movlw	118
   922  007CDE  6E43               	movwf	??_Open_Lock& (0+255),c
   923  007CE0  0EC1               	movlw	193
   924  007CE2                     u1987:
   925  007CE2  2EE8               	decfsz	wreg,f,c
   926  007CE4  D7FE               	bra	u1987
   927  007CE6  2E43               	decfsz	??_Open_Lock& (0+255),f,c
   928  007CE8  D7FC               	bra	u1987
   929  007CEA  2E44               	decfsz	(??_Open_Lock+1)& (0+255),f,c
   930  007CEC  D7FA               	bra	u1987
   931  007CEE                     L6:
   932  007CEE  F000               	nop	
   933  007CF0  D09A               	goto	l3807
   934  007CF2                     l3801:
   935  007CF2  0EFE               	movlw	254
   936  007CF4  6E44               	movwf	(??_Open_Lock+1)& (0+255),c
   937  007CF6  0EA7               	movlw	167
   938  007CF8  6E43               	movwf	??_Open_Lock& (0+255),c
   939  007CFA  0E66               	movlw	102
   940  007CFC                     u1997:
   941  007CFC  2EE8               	decfsz	wreg,f,c
   942  007CFE  D7FE               	bra	u1997
   943  007D00  2E43               	decfsz	??_Open_Lock& (0+255),f,c
   944  007D02  D7FC               	bra	u1997
   945  007D04  2E44               	decfsz	(??_Open_Lock+1)& (0+255),f,c
   946  007D06  D7FA               	bra	u1997
   947  007D08  0E7F               	movlw	127
   948  007D0A  6E44               	movwf	(??_Open_Lock+1)& (0+255),c
   949  007D0C  0ED4               	movlw	212
   950  007D0E  6E43               	movwf	??_Open_Lock& (0+255),c
   951  007D10  0E32               	movlw	50
   952  007D12                     u2007:
   953  007D12  2EE8               	decfsz	wreg,f,c
   954  007D14  D7FE               	bra	u2007
   955  007D16  2E43               	decfsz	??_Open_Lock& (0+255),f,c
   956  007D18  D7FC               	bra	u2007
   957  007D1A  2E44               	decfsz	(??_Open_Lock+1)& (0+255),f,c
   958  007D1C  D7FA               	bra	u2007
   959  007D1E  D083               	goto	l3807
   960  007D20                     l3805:
   961  007D20  C048  F043         	movff	_Time_Open_State,??_Open_Lock
   962  007D24  C049  F044         	movff	_Time_Open_State+1,??_Open_Lock+1
   963                           
   964                           ; Switch on 2 bytes has been partitioned into a top level switch of size 1, and 16 sub-s
      +                          witches
   965                           ; Switch size 1, requested type "simple"
   966                           ; Number of cases is 16, Range of values is 0 to 58
   967                           ; switch strategies available:
   968                           ; Name         Instructions Cycles
   969                           ; simple_byte           49    25 (average)
   970                           ;	Chosen strategy is simple_byte
   971  007D28  5044               	movf	??_Open_Lock+1,w,c
   972  007D2A  0A00               	xorlw	0	; case 0
   973  007D2C  B4D8               	btfsc	status,2,c
   974  007D2E  D02E               	goto	l4157
   975  007D30  0A03               	xorlw	3	; case 3
   976  007D32  B4D8               	btfsc	status,2,c
   977  007D34  D02E               	goto	l4159
   978  007D36  0A04               	xorlw	4	; case 7
   979  007D38  B4D8               	btfsc	status,2,c
   980  007D3A  D030               	goto	l4161
   981  007D3C  0A0C               	xorlw	12	; case 11
   982  007D3E  B4D8               	btfsc	status,2,c
   983  007D40  D032               	goto	l4163
   984  007D42  0A04               	xorlw	4	; case 15
   985  007D44  B4D8               	btfsc	status,2,c
   986  007D46  D034               	goto	l4165
   987  007D48  0A1C               	xorlw	28	; case 19
   988  007D4A  B4D8               	btfsc	status,2,c
   989  007D4C  D036               	goto	l4167
   990  007D4E  0A04               	xorlw	4	; case 23
   991  007D50  B4D8               	btfsc	status,2,c
   992  007D52  D038               	goto	l4169
   993  007D54  0A0C               	xorlw	12	; case 27
   994  007D56  B4D8               	btfsc	status,2,c
   995  007D58  D03A               	goto	l4171
   996  007D5A  0A04               	xorlw	4	; case 31
   997  007D5C  B4D8               	btfsc	status,2,c
   998  007D5E  D03C               	goto	l4173
   999  007D60  0A3C               	xorlw	60	; case 35
  1000  007D62  B4D8               	btfsc	status,2,c
  1001  007D64  D03E               	goto	l4175
  1002  007D66  0A04               	xorlw	4	; case 39
  1003  007D68  B4D8               	btfsc	status,2,c
  1004  007D6A  D040               	goto	l4177
  1005  007D6C  0A0D               	xorlw	13	; case 42
  1006  007D6E  B4D8               	btfsc	status,2,c
  1007  007D70  D042               	goto	l4179
  1008  007D72  0A04               	xorlw	4	; case 46
  1009  007D74  B4D8               	btfsc	status,2,c
  1010  007D76  D044               	goto	l4181
  1011  007D78  0A1C               	xorlw	28	; case 50
  1012  007D7A  B4D8               	btfsc	status,2,c
  1013  007D7C  D046               	goto	l4183
  1014  007D7E  0A04               	xorlw	4	; case 54
  1015  007D80  B4D8               	btfsc	status,2,c
  1016  007D82  D048               	goto	l4185
  1017  007D84  0A0C               	xorlw	12	; case 58
  1018  007D86  B4D8               	btfsc	status,2,c
  1019  007D88  D04A               	goto	l4187
  1020  007D8A  D04D               	goto	l3807
  1021  007D8C                     l4157:
  1022                           
  1023                           ; Switch size 1, requested type "simple"
  1024                           ; Number of cases is 1, Range of values is 0 to 0
  1025                           ; switch strategies available:
  1026                           ; Name         Instructions Cycles
  1027                           ; simple_byte            4     3 (average)
  1028                           ;	Chosen strategy is simple_byte
  1029  007D8C  5043               	movf	??_Open_Lock,w,c
  1030  007D8E  0A00               	xorlw	0	; case 0
  1031  007D90  D04A               	goto	l3807
  1032  007D92                     l4159:
  1033                           
  1034                           ; Switch size 1, requested type "simple"
  1035                           ; Number of cases is 1, Range of values is 232 to 232
  1036                           ; switch strategies available:
  1037                           ; Name         Instructions Cycles
  1038                           ; simple_byte            4     3 (average)
  1039                           ;	Chosen strategy is simple_byte
  1040  007D92  5043               	movf	??_Open_Lock,w,c
  1041  007D94  0AE8               	xorlw	232	; case 232
  1042  007D96  B4D8               	btfsc	status,2,c
  1043  007D98  D6D6               	goto	l3773
  1044  007D9A  D045               	goto	l3807
  1045  007D9C                     l4161:
  1046                           
  1047                           ; Switch size 1, requested type "simple"
  1048                           ; Number of cases is 1, Range of values is 208 to 208
  1049                           ; switch strategies available:
  1050                           ; Name         Instructions Cycles
  1051                           ; simple_byte            4     3 (average)
  1052                           ;	Chosen strategy is simple_byte
  1053  007D9C  5043               	movf	??_Open_Lock,w,c
  1054  007D9E  0AD0               	xorlw	208	; case 208
  1055  007DA0  B4D8               	btfsc	status,2,c
  1056  007DA2  D6DD               	goto	l3775
  1057  007DA4  D040               	goto	l3807
  1058  007DA6                     l4163:
  1059                           
  1060                           ; Switch size 1, requested type "simple"
  1061                           ; Number of cases is 1, Range of values is 184 to 184
  1062                           ; switch strategies available:
  1063                           ; Name         Instructions Cycles
  1064                           ; simple_byte            4     3 (average)
  1065                           ;	Chosen strategy is simple_byte
  1066  007DA6  5043               	movf	??_Open_Lock,w,c
  1067  007DA8  0AB8               	xorlw	184	; case 184
  1068  007DAA  B4D8               	btfsc	status,2,c
  1069  007DAC  D6E4               	goto	l3777
  1070  007DAE  D03B               	goto	l3807
  1071  007DB0                     l4165:
  1072                           
  1073                           ; Switch size 1, requested type "simple"
  1074                           ; Number of cases is 1, Range of values is 160 to 160
  1075                           ; switch strategies available:
  1076                           ; Name         Instructions Cycles
  1077                           ; simple_byte            4     3 (average)
  1078                           ;	Chosen strategy is simple_byte
  1079  007DB0  5043               	movf	??_Open_Lock,w,c
  1080  007DB2  0AA0               	xorlw	160	; case 160
  1081  007DB4  B4D8               	btfsc	status,2,c
  1082  007DB6  D6EB               	goto	l3779
  1083  007DB8  D036               	goto	l3807
  1084  007DBA                     l4167:
  1085                           
  1086                           ; Switch size 1, requested type "simple"
  1087                           ; Number of cases is 1, Range of values is 136 to 136
  1088                           ; switch strategies available:
  1089                           ; Name         Instructions Cycles
  1090                           ; simple_byte            4     3 (average)
  1091                           ;	Chosen strategy is simple_byte
  1092  007DBA  5043               	movf	??_Open_Lock,w,c
  1093  007DBC  0A88               	xorlw	136	; case 136
  1094  007DBE  B4D8               	btfsc	status,2,c
  1095  007DC0  D6F2               	goto	l3781
  1096  007DC2  D031               	goto	l3807
  1097  007DC4                     l4169:
  1098                           
  1099                           ; Switch size 1, requested type "simple"
  1100                           ; Number of cases is 1, Range of values is 112 to 112
  1101                           ; switch strategies available:
  1102                           ; Name         Instructions Cycles
  1103                           ; simple_byte            4     3 (average)
  1104                           ;	Chosen strategy is simple_byte
  1105  007DC4  5043               	movf	??_Open_Lock,w,c
  1106  007DC6  0A70               	xorlw	112	; case 112
  1107  007DC8  B4D8               	btfsc	status,2,c
  1108  007DCA  D6F9               	goto	l3783
  1109  007DCC  D02C               	goto	l3807
  1110  007DCE                     l4171:
  1111                           
  1112                           ; Switch size 1, requested type "simple"
  1113                           ; Number of cases is 1, Range of values is 88 to 88
  1114                           ; switch strategies available:
  1115                           ; Name         Instructions Cycles
  1116                           ; simple_byte            4     3 (average)
  1117                           ;	Chosen strategy is simple_byte
  1118  007DCE  5043               	movf	??_Open_Lock,w,c
  1119  007DD0  0A58               	xorlw	88	; case 88
  1120  007DD2  B4D8               	btfsc	status,2,c
  1121  007DD4  D700               	goto	l3785
  1122  007DD6  D027               	goto	l3807
  1123  007DD8                     l4173:
  1124                           
  1125                           ; Switch size 1, requested type "simple"
  1126                           ; Number of cases is 1, Range of values is 64 to 64
  1127                           ; switch strategies available:
  1128                           ; Name         Instructions Cycles
  1129                           ; simple_byte            4     3 (average)
  1130                           ;	Chosen strategy is simple_byte
  1131  007DD8  5043               	movf	??_Open_Lock,w,c
  1132  007DDA  0A40               	xorlw	64	; case 64
  1133  007DDC  B4D8               	btfsc	status,2,c
  1134  007DDE  D707               	goto	l3787
  1135  007DE0  D022               	goto	l3807
  1136  007DE2                     l4175:
  1137                           
  1138                           ; Switch size 1, requested type "simple"
  1139                           ; Number of cases is 1, Range of values is 40 to 40
  1140                           ; switch strategies available:
  1141                           ; Name         Instructions Cycles
  1142                           ; simple_byte            4     3 (average)
  1143                           ;	Chosen strategy is simple_byte
  1144  007DE2  5043               	movf	??_Open_Lock,w,c
  1145  007DE4  0A28               	xorlw	40	; case 40
  1146  007DE6  B4D8               	btfsc	status,2,c
  1147  007DE8  D70E               	goto	l3789
  1148  007DEA  D01D               	goto	l3807
  1149  007DEC                     l4177:
  1150                           
  1151                           ; Switch size 1, requested type "simple"
  1152                           ; Number of cases is 1, Range of values is 16 to 16
  1153                           ; switch strategies available:
  1154                           ; Name         Instructions Cycles
  1155                           ; simple_byte            4     3 (average)
  1156                           ;	Chosen strategy is simple_byte
  1157  007DEC  5043               	movf	??_Open_Lock,w,c
  1158  007DEE  0A10               	xorlw	16	; case 16
  1159  007DF0  B4D8               	btfsc	status,2,c
  1160  007DF2  D715               	goto	l3791
  1161  007DF4  D018               	goto	l3807
  1162  007DF6                     l4179:
  1163                           
  1164                           ; Switch size 1, requested type "simple"
  1165                           ; Number of cases is 1, Range of values is 248 to 248
  1166                           ; switch strategies available:
  1167                           ; Name         Instructions Cycles
  1168                           ; simple_byte            4     3 (average)
  1169                           ;	Chosen strategy is simple_byte
  1170  007DF6  5043               	movf	??_Open_Lock,w,c
  1171  007DF8  0AF8               	xorlw	248	; case 248
  1172  007DFA  B4D8               	btfsc	status,2,c
  1173  007DFC  D71C               	goto	l3793
  1174  007DFE  D013               	goto	l3807
  1175  007E00                     l4181:
  1176                           
  1177                           ; Switch size 1, requested type "simple"
  1178                           ; Number of cases is 1, Range of values is 224 to 224
  1179                           ; switch strategies available:
  1180                           ; Name         Instructions Cycles
  1181                           ; simple_byte            4     3 (average)
  1182                           ;	Chosen strategy is simple_byte
  1183  007E00  5043               	movf	??_Open_Lock,w,c
  1184  007E02  0AE0               	xorlw	224	; case 224
  1185  007E04  B4D8               	btfsc	status,2,c
  1186  007E06  D72F               	goto	l3795
  1187  007E08  D00E               	goto	l3807
  1188  007E0A                     l4183:
  1189                           
  1190                           ; Switch size 1, requested type "simple"
  1191                           ; Number of cases is 1, Range of values is 200 to 200
  1192                           ; switch strategies available:
  1193                           ; Name         Instructions Cycles
  1194                           ; simple_byte            4     3 (average)
  1195                           ;	Chosen strategy is simple_byte
  1196  007E0A  5043               	movf	??_Open_Lock,w,c
  1197  007E0C  0AC8               	xorlw	200	; case 200
  1198  007E0E  B4D8               	btfsc	status,2,c
  1199  007E10  D741               	goto	l3797
  1200  007E12  D009               	goto	l3807
  1201  007E14                     l4185:
  1202                           
  1203                           ; Switch size 1, requested type "simple"
  1204                           ; Number of cases is 1, Range of values is 176 to 176
  1205                           ; switch strategies available:
  1206                           ; Name         Instructions Cycles
  1207                           ; simple_byte            4     3 (average)
  1208                           ;	Chosen strategy is simple_byte
  1209  007E14  5043               	movf	??_Open_Lock,w,c
  1210  007E16  0AB0               	xorlw	176	; case 176
  1211  007E18  B4D8               	btfsc	status,2,c
  1212  007E1A  D753               	goto	l3799
  1213  007E1C  D004               	goto	l3807
  1214  007E1E                     l4187:
  1215                           
  1216                           ; Switch size 1, requested type "simple"
  1217                           ; Number of cases is 1, Range of values is 152 to 152
  1218                           ; switch strategies available:
  1219                           ; Name         Instructions Cycles
  1220                           ; simple_byte            4     3 (average)
  1221                           ;	Chosen strategy is simple_byte
  1222  007E1E  5043               	movf	??_Open_Lock,w,c
  1223  007E20  0A98               	xorlw	152	; case 152
  1224  007E22  B4D8               	btfsc	status,2,c
  1225  007E24  D766               	goto	l3801
  1226  007E26                     l3807:
  1227                           
  1228                           ;main.c: 250:             Flag_End_Stop_Open = 1;
  1229  007E26  0E01               	movlw	1
  1230  007E28  6E2D               	movwf	_Flag_End_Stop_Open,c
  1231  007E2A                     l3809:
  1232                           
  1233                           ;main.c: 252:                 PORTCbits.RC2 = 1;
  1234  007E2A  8482               	bsf	3970,2,c	;volatile
  1235                           
  1236                           ;main.c: 253:                 End_Stop_Open_State = PORTAbits.RA4;
  1237  007E2C  A880               	btfss	3968,4,c	;volatile
  1238  007E2E  D002               	goto	u1640
  1239  007E30  0E01               	movlw	1
  1240  007E32  D001               	goto	u1646
  1241  007E34                     u1640:
  1242  007E34  0E00               	movlw	0
  1243  007E36                     u1646:
  1244  007E36  6E34               	movwf	_End_Stop_Open_State,c
  1245                           
  1246                           ;main.c: 254:                 Count_Time_Close++;
  1247  007E38  0E01               	movlw	1
  1248  007E3A  261D               	addwf	_Count_Time_Close,f,c
  1249  007E3C  0E00               	movlw	0
  1250  007E3E  221E               	addwfc	_Count_Time_Close+1,f,c
  1251  007E40  221F               	addwfc	_Count_Time_Close+2,f,c
  1252  007E42  2220               	addwfc	_Count_Time_Close+3,f,c
  1253                           
  1254                           ;main.c: 255:                 Sense_Current();
  1255  007E44  ECE8  F030         	call	_Sense_Current	;wreg free
  1256                           
  1257                           ;main.c: 256:                 if (End_Stop_Open_State == 0) {
  1258  007E48  5034               	movf	_End_Stop_Open_State,w,c
  1259  007E4A  A4D8               	btfss	status,2,c
  1260  007E4C  D02A               	goto	l3831
  1261                           
  1262                           ;main.c: 257:                     Flag_End_Stop_Open = 0;
  1263  007E4E  0E00               	movlw	0
  1264  007E50  6E2D               	movwf	_Flag_End_Stop_Open,c
  1265                           
  1266                           ;main.c: 258:                     int Value_Latch = eeprom_readx(0x01);
  1267  007E52  0E00               	movlw	0
  1268  007E54  6E38               	movwf	eeprom_readx@address+1,c
  1269  007E56  0E01               	movlw	1
  1270  007E58  6E37               	movwf	eeprom_readx@address,c
  1271  007E5A  EC98  F030         	call	_eeprom_readx	;wreg free
  1272  007E5E  6E43               	movwf	??_Open_Lock& (0+255),c
  1273  007E60  5043               	movf	??_Open_Lock,w,c
  1274  007E62  6E45               	movwf	Open_Lock@Value_Latch,c
  1275  007E64  6A46               	clrf	Open_Lock@Value_Latch+1,c
  1276                           
  1277                           ;main.c: 259:                     if (Value_Latch == 1) {
  1278  007E66  0445               	decf	Open_Lock@Value_Latch,w,c
  1279  007E68  1046               	iorwf	Open_Lock@Value_Latch+1,w,c
  1280  007E6A  A4D8               	btfss	status,2,c
  1281  007E6C  D01A               	goto	l3831
  1282                           
  1283                           ;main.c: 260:                         _delay((unsigned long)((3000)*(20000000/4000.0)));
  1284  007E6E  0E4D               	movlw	77
  1285  007E70  6E44               	movwf	(??_Open_Lock+1)& (0+255),c
  1286  007E72  0E19               	movlw	25
  1287  007E74  6E43               	movwf	??_Open_Lock& (0+255),c
  1288  007E76  0E50               	movlw	80
  1289  007E78                     u2017:
  1290  007E78  2EE8               	decfsz	wreg,f,c
  1291  007E7A  D7FE               	bra	u2017
  1292  007E7C  2E43               	decfsz	??_Open_Lock& (0+255),f,c
  1293  007E7E  D7FC               	bra	u2017
  1294  007E80  2E44               	decfsz	(??_Open_Lock+1)& (0+255),f,c
  1295  007E82  D7FA               	bra	u2017
  1296                           
  1297                           ;main.c: 261:                         PORTCbits.RC2 = 0;
  1298  007E84  9482               	bcf	3970,2,c	;volatile
  1299                           
  1300                           ;main.c: 262:                         PORTCbits.RC1 = 1;
  1301  007E86  8282               	bsf	3970,1,c	;volatile
  1302                           
  1303                           ;main.c: 263:                         _delay((unsigned long)((500)*(20000000/4000.0)));
  1304  007E88  0E0D               	movlw	13
  1305  007E8A  6E44               	movwf	(??_Open_Lock+1)& (0+255),c
  1306  007E8C  0EAF               	movlw	175
  1307  007E8E  6E43               	movwf	??_Open_Lock& (0+255),c
  1308  007E90  0EB6               	movlw	182
  1309  007E92                     u2027:
  1310  007E92  2EE8               	decfsz	wreg,f,c
  1311  007E94  D7FE               	bra	u2027
  1312  007E96  2E43               	decfsz	??_Open_Lock& (0+255),f,c
  1313  007E98  D7FC               	bra	u2027
  1314  007E9A  2E44               	decfsz	(??_Open_Lock+1)& (0+255),f,c
  1315  007E9C  D7FA               	bra	u2027
  1316  007E9E  D000               	nop2	
  1317                           
  1318                           ;main.c: 264:                         PORTCbits.RC1 = 0;
  1319  007EA0  9282               	bcf	3970,1,c	;volatile
  1320  007EA2                     l3831:
  1321                           
  1322                           ;main.c: 267:                 if(Count_Time_Close == 250000) {
  1323  007EA2  0E90               	movlw	144
  1324  007EA4  181D               	xorwf	_Count_Time_Close,w,c
  1325  007EA6  E111               	bnz	l3837
  1326  007EA8  0ED0               	movlw	208
  1327  007EAA  181E               	xorwf	_Count_Time_Close+1,w,c
  1328  007EAC  E10E               	bnz	l3837
  1329  007EAE  0E03               	movlw	3
  1330  007EB0  181F               	xorwf	_Count_Time_Close+2,w,c
  1331  007EB2  1020               	iorwf	_Count_Time_Close+3,w,c
  1332  007EB4  A4D8               	btfss	status,2,c
  1333  007EB6  D009               	goto	l3837
  1334                           
  1335                           ;main.c: 268:                     Count_Time_Close = 0;
  1336  007EB8  0E00               	movlw	0
  1337  007EBA  6E1D               	movwf	_Count_Time_Close,c
  1338  007EBC  0E00               	movlw	0
  1339  007EBE  6E1E               	movwf	_Count_Time_Close+1,c
  1340  007EC0  0E00               	movlw	0
  1341  007EC2  6E1F               	movwf	_Count_Time_Close+2,c
  1342  007EC4  0E00               	movlw	0
  1343  007EC6  6E20               	movwf	_Count_Time_Close+3,c
  1344                           
  1345                           ;main.c: 269:                     break;
  1346  007EC8  D01A               	goto	u1700
  1347  007ECA                     l3837:
  1348  007ECA  BE2A               	btfsc	_Current+1,7,c
  1349  007ECC  D015               	goto	l3845
  1350  007ECE  0E21               	movlw	33
  1351  007ED0  5C29               	subwf	_Current,w,c
  1352  007ED2  0E02               	movlw	2
  1353  007ED4  582A               	subwfb	_Current+1,w,c
  1354  007ED6  A0D8               	btfss	status,0,c
  1355  007ED8  D00F               	goto	l3845
  1356                           
  1357                           ;main.c: 271:                     Count_Peake_Current++;
  1358  007EDA  4A2B               	infsnz	_Count_Peake_Current,f,c
  1359  007EDC  2A2C               	incf	_Count_Peake_Current+1,f,c
  1360                           
  1361                           ;main.c: 272:                     if (Count_Peake_Current > 2000) {
  1362  007EDE  BE2C               	btfsc	_Count_Peake_Current+1,7,c
  1363  007EE0  D00B               	goto	l3845
  1364  007EE2  0ED1               	movlw	209
  1365  007EE4  5C2B               	subwf	_Count_Peake_Current,w,c
  1366  007EE6  0E07               	movlw	7
  1367  007EE8  582C               	subwfb	_Count_Peake_Current+1,w,c
  1368  007EEA  A0D8               	btfss	status,0,c
  1369  007EEC  D005               	goto	l3845
  1370                           
  1371                           ;main.c: 273:                         Count_Peake_Current = 0;
  1372  007EEE  0E00               	movlw	0
  1373  007EF0  6E2C               	movwf	_Count_Peake_Current+1,c
  1374  007EF2  0E00               	movlw	0
  1375  007EF4  6E2B               	movwf	_Count_Peake_Current,c
  1376                           
  1377                           ;main.c: 274:                         break;
  1378  007EF6  D003               	goto	u1700
  1379  007EF8                     l3845:
  1380                           
  1381                           ;main.c: 278:             } while(Flag_End_Stop_Open == 1);
  1382  007EF8  042D               	decf	_Flag_End_Stop_Open,w,c
  1383  007EFA  B4D8               	btfsc	status,2,c
  1384  007EFC  D796               	goto	l3809
  1385  007EFE                     u1700:
  1386                           
  1387                           ;main.c: 279:             PORTCbits.RC2 = 0;
  1388  007EFE  9482               	bcf	3970,2,c	;volatile
  1389                           
  1390                           ;main.c: 280:             Count_Time_Close = 0;
  1391  007F00  0E00               	movlw	0
  1392  007F02  6E1D               	movwf	_Count_Time_Close,c
  1393  007F04  0E00               	movlw	0
  1394  007F06  6E1E               	movwf	_Count_Time_Close+1,c
  1395  007F08  0E00               	movlw	0
  1396  007F0A  6E1F               	movwf	_Count_Time_Close+2,c
  1397  007F0C  0E00               	movlw	0
  1398  007F0E  6E20               	movwf	_Count_Time_Close+3,c
  1399                           
  1400                           ;main.c: 281:             Count_Peake_Current = 0;
  1401  007F10  0E00               	movlw	0
  1402  007F12  6E2C               	movwf	_Count_Peake_Current+1,c
  1403  007F14  0E00               	movlw	0
  1404  007F16  6E2B               	movwf	_Count_Peake_Current,c
  1405                           
  1406                           ;main.c: 282:             Inductive_State = PORTAbits.RA3;
  1407  007F18  A680               	btfss	3968,3,c	;volatile
  1408  007F1A  D002               	goto	u1710
  1409  007F1C  0E01               	movlw	1
  1410  007F1E  D001               	goto	u1716
  1411  007F20                     u1710:
  1412  007F20  0E00               	movlw	0
  1413  007F22                     u1716:
  1414  007F22  6E4E               	movwf	_Inductive_State,c
  1415                           
  1416                           ;main.c: 283:             Time_Auto_Close = eeprom_readx(0x03);
  1417  007F24  0E00               	movlw	0
  1418  007F26  6E38               	movwf	eeprom_readx@address+1,c
  1419  007F28  0E03               	movlw	3
  1420  007F2A  6E37               	movwf	eeprom_readx@address,c
  1421  007F2C  EC98  F030         	call	_eeprom_readx	;wreg free
  1422  007F30  6E43               	movwf	??_Open_Lock& (0+255),c
  1423  007F32  5043               	movf	??_Open_Lock,w,c
  1424  007F34  6E4F               	movwf	_Time_Auto_Close,c
  1425  007F36  6A50               	clrf	_Time_Auto_Close+1,c
  1426  007F38  6A51               	clrf	_Time_Auto_Close+2,c
  1427  007F3A  6A52               	clrf	_Time_Auto_Close+3,c
  1428                           
  1429                           ;main.c: 284:             Time_Auto_Close = Time_Auto_Close * 500000;
  1430  007F3C  C04F  F037         	movff	_Time_Auto_Close,___lmul@multiplier
  1431  007F40  C050  F038         	movff	_Time_Auto_Close+1,___lmul@multiplier+1
  1432  007F44  C051  F039         	movff	_Time_Auto_Close+2,___lmul@multiplier+2
  1433  007F48  C052  F03A         	movff	_Time_Auto_Close+3,___lmul@multiplier+3
  1434  007F4C  0E20               	movlw	32
  1435  007F4E  6E3B               	movwf	___lmul@multiplicand,c
  1436  007F50  0EA1               	movlw	161
  1437  007F52  6E3C               	movwf	___lmul@multiplicand+1,c
  1438  007F54  0E07               	movlw	7
  1439  007F56  6E3D               	movwf	___lmul@multiplicand+2,c
  1440  007F58  0E00               	movlw	0
  1441  007F5A  6E3E               	movwf	___lmul@multiplicand+3,c
  1442  007F5C  EC14  F034         	call	___lmul	;wreg free
  1443  007F60  C037  F04F         	movff	?___lmul,_Time_Auto_Close
  1444  007F64  C038  F050         	movff	?___lmul+1,_Time_Auto_Close+1
  1445  007F68  C039  F051         	movff	?___lmul+2,_Time_Auto_Close+2
  1446  007F6C  C03A  F052         	movff	?___lmul+3,_Time_Auto_Close+3
  1447  007F70                     l3853:
  1448                           
  1449                           ;main.c: 286:                 Count_Auto_Close++;
  1450  007F70  0E01               	movlw	1
  1451  007F72  2619               	addwf	_Count_Auto_Close,f,c
  1452  007F74  0E00               	movlw	0
  1453  007F76  221A               	addwfc	_Count_Auto_Close+1,f,c
  1454  007F78  221B               	addwfc	_Count_Auto_Close+2,f,c
  1455  007F7A  221C               	addwfc	_Count_Auto_Close+3,f,c
  1456                           
  1457                           ;main.c: 287:                 Inductive_State = PORTAbits.RA3;
  1458  007F7C  A680               	btfss	3968,3,c	;volatile
  1459  007F7E  D002               	goto	u1720
  1460  007F80  0E01               	movlw	1
  1461  007F82  D001               	goto	u1726
  1462  007F84                     u1720:
  1463  007F84  0E00               	movlw	0
  1464  007F86                     u1726:
  1465  007F86  6E4E               	movwf	_Inductive_State,c
  1466                           
  1467                           ;main.c: 288:                 if(Count_Auto_Close == Time_Auto_Close) {
  1468  007F88  504F               	movf	_Time_Auto_Close,w,c
  1469  007F8A  1819               	xorwf	_Count_Auto_Close,w,c
  1470  007F8C  E12B               	bnz	l3867
  1471  007F8E  5050               	movf	_Time_Auto_Close+1,w,c
  1472  007F90  181A               	xorwf	_Count_Auto_Close+1,w,c
  1473  007F92  E128               	bnz	l3867
  1474  007F94  5051               	movf	_Time_Auto_Close+2,w,c
  1475  007F96  181B               	xorwf	_Count_Auto_Close+2,w,c
  1476  007F98  E125               	bnz	l3867
  1477  007F9A  5052               	movf	_Time_Auto_Close+3,w,c
  1478  007F9C  181C               	xorwf	_Count_Auto_Close+3,w,c
  1479  007F9E  A4D8               	btfss	status,2,c
  1480  007FA0  D021               	goto	l3867
  1481                           
  1482                           ;main.c: 289:                     End_Stop_Open_State = PORTAbits.RA4;
  1483  007FA2  A880               	btfss	3968,4,c	;volatile
  1484  007FA4  D002               	goto	u1740
  1485  007FA6  0E01               	movlw	1
  1486  007FA8  D001               	goto	u1746
  1487  007FAA                     u1740:
  1488  007FAA  0E00               	movlw	0
  1489  007FAC                     u1746:
  1490  007FAC  6E34               	movwf	_End_Stop_Open_State,c
  1491                           
  1492                           ;main.c: 290:                     if(End_Stop_Open_State == 0) {
  1493  007FAE  5034               	movf	_End_Stop_Open_State,w,c
  1494  007FB0  A4D8               	btfss	status,2,c
  1495  007FB2  D01B               	goto	u1760
  1496                           
  1497                           ;main.c: 291:                         PORTCbits.RC1 = 1;
  1498  007FB4  8282               	bsf	3970,1,c	;volatile
  1499                           
  1500                           ;main.c: 292:                         _delay((unsigned long)((500)*(20000000/4000.0)));
  1501  007FB6  0E0D               	movlw	13
  1502  007FB8  6E44               	movwf	(??_Open_Lock+1)& (0+255),c
  1503  007FBA  0EAF               	movlw	175
  1504  007FBC  6E43               	movwf	??_Open_Lock& (0+255),c
  1505  007FBE  0EB6               	movlw	182
  1506  007FC0                     u2037:
  1507  007FC0  2EE8               	decfsz	wreg,f,c
  1508  007FC2  D7FE               	bra	u2037
  1509  007FC4  2E43               	decfsz	??_Open_Lock& (0+255),f,c
  1510  007FC6  D7FC               	bra	u2037
  1511  007FC8  2E44               	decfsz	(??_Open_Lock+1)& (0+255),f,c
  1512  007FCA  D7FA               	bra	u2037
  1513  007FCC  D000               	nop2	
  1514                           
  1515                           ;main.c: 293:                         Closing();
  1516  007FCE  EC04  F035         	call	_Closing	;wreg free
  1517                           
  1518                           ;main.c: 294:                         Count_Auto_Close = 0;
  1519  007FD2  0E00               	movlw	0
  1520  007FD4  6E19               	movwf	_Count_Auto_Close,c
  1521  007FD6  0E00               	movlw	0
  1522  007FD8  6E1A               	movwf	_Count_Auto_Close+1,c
  1523  007FDA  0E00               	movlw	0
  1524  007FDC  6E1B               	movwf	_Count_Auto_Close+2,c
  1525  007FDE  0E00               	movlw	0
  1526  007FE0  6E1C               	movwf	_Count_Auto_Close+3,c
  1527  007FE2  D003               	goto	u1760
  1528  007FE4                     l3867:
  1529                           
  1530                           ;main.c: 298:             } while(Inductive_State == 1);
  1531  007FE4  044E               	decf	_Inductive_State,w,c
  1532  007FE6  B4D8               	btfsc	status,2,c
  1533  007FE8  D7C3               	goto	l3853
  1534  007FEA                     u1760:
  1535                           
  1536                           ;main.c: 299:             Count_Auto_Close = 0;
  1537  007FEA  0E00               	movlw	0
  1538  007FEC  6E19               	movwf	_Count_Auto_Close,c
  1539  007FEE  0E00               	movlw	0
  1540  007FF0  6E1A               	movwf	_Count_Auto_Close+1,c
  1541  007FF2  0E00               	movlw	0
  1542  007FF4  6E1B               	movwf	_Count_Auto_Close+2,c
  1543  007FF6  0E00               	movlw	0
  1544  007FF8  6E1C               	movwf	_Count_Auto_Close+3,c
  1545  007FFA                     l3871:
  1546                           
  1547                           ;main.c: 302:     Last_Open_Contact_State = Open_Contact_State;
  1548  007FFA  C035  F055         	movff	_Open_Contact_State,_Last_Open_Contact_State
  1549  007FFE  0012               	return		;funcret
  1550  008000                     __end_of_Open_Lock:
  1551                           	opt callstack 0
  1552                           
  1553 ;; *************** function ___lmul *****************
  1554 ;; Defined at:
  1555 ;;		line 15 in file "C:\Program Files (x86)\Microchip\xc8\v2.05\pic\sources\c99\common\Umul32.c"
  1556 ;; Parameters:    Size  Location     Type
  1557 ;;  multiplier      4    0[COMRAM] unsigned long 
  1558 ;;  multiplicand    4    4[COMRAM] unsigned long 
  1559 ;; Auto vars:     Size  Location     Type
  1560 ;;  product         4    8[COMRAM] unsigned long 
  1561 ;; Return value:  Size  Location     Type
  1562 ;;                  4    0[COMRAM] unsigned long 
  1563 ;; Registers used:
  1564 ;;		wreg, status,2, status,0
  1565 ;; Tracked objects:
  1566 ;;		On entry : 0/0
  1567 ;;		On exit  : 0/0
  1568 ;;		Unchanged: 0/0
  1569 ;; Data sizes:     COMRAM   BANK0   BANK1   BANK2   BANK3   BANK4   BANK5   BANK6   BANK7
  1570 ;;      Params:         8       0       0       0       0       0       0       0       0
  1571 ;;      Locals:         4       0       0       0       0       0       0       0       0
  1572 ;;      Temps:          0       0       0       0       0       0       0       0       0
  1573 ;;      Totals:        12       0       0       0       0       0       0       0       0
  1574 ;;Total ram usage:       12 bytes
  1575 ;; Hardware stack levels used:    1
  1576 ;; This function calls:
  1577 ;;		Nothing
  1578 ;; This function is called by:
  1579 ;;		_Open_Lock
  1580 ;; This function uses a non-reentrant model
  1581 ;;
  1582                           
  1583                           	psect	text2
  1584  006828                     __ptext2:
  1585                           	opt callstack 0
  1586  006828                     ___lmul:
  1587                           	opt callstack 29
  1588                           
  1589                           ;incstack = 0
  1590  006828  0E00               	movlw	0
  1591  00682A  6E3F               	movwf	___lmul@product,c
  1592  00682C  0E00               	movlw	0
  1593  00682E  6E40               	movwf	___lmul@product+1,c
  1594  006830  0E00               	movlw	0
  1595  006832  6E41               	movwf	___lmul@product+2,c
  1596  006834  0E00               	movlw	0
  1597  006836  6E42               	movwf	___lmul@product+3,c
  1598  006838                     l3565:
  1599  006838  A037               	btfss	___lmul@multiplier,0,c
  1600  00683A  D008               	goto	l3569
  1601  00683C  503B               	movf	___lmul@multiplicand,w,c
  1602  00683E  263F               	addwf	___lmul@product,f,c
  1603  006840  503C               	movf	___lmul@multiplicand+1,w,c
  1604  006842  2240               	addwfc	___lmul@product+1,f,c
  1605  006844  503D               	movf	___lmul@multiplicand+2,w,c
  1606  006846  2241               	addwfc	___lmul@product+2,f,c
  1607  006848  503E               	movf	___lmul@multiplicand+3,w,c
  1608  00684A  2242               	addwfc	___lmul@product+3,f,c
  1609  00684C                     l3569:
  1610  00684C  90D8               	bcf	status,0,c
  1611  00684E  363B               	rlcf	___lmul@multiplicand,f,c
  1612  006850  363C               	rlcf	___lmul@multiplicand+1,f,c
  1613  006852  363D               	rlcf	___lmul@multiplicand+2,f,c
  1614  006854  363E               	rlcf	___lmul@multiplicand+3,f,c
  1615  006856  90D8               	bcf	status,0,c
  1616  006858  323A               	rrcf	___lmul@multiplier+3,f,c
  1617  00685A  3239               	rrcf	___lmul@multiplier+2,f,c
  1618  00685C  3238               	rrcf	___lmul@multiplier+1,f,c
  1619  00685E  3237               	rrcf	___lmul@multiplier,f,c
  1620  006860  5037               	movf	___lmul@multiplier,w,c
  1621  006862  1038               	iorwf	___lmul@multiplier+1,w,c
  1622  006864  1039               	iorwf	___lmul@multiplier+2,w,c
  1623  006866  103A               	iorwf	___lmul@multiplier+3,w,c
  1624  006868  A4D8               	btfss	status,2,c
  1625  00686A  D7E6               	goto	l3565
  1626  00686C  C03F  F037         	movff	___lmul@product,?___lmul
  1627  006870  C040  F038         	movff	___lmul@product+1,?___lmul+1
  1628  006874  C041  F039         	movff	___lmul@product+2,?___lmul+2
  1629  006878  C042  F03A         	movff	___lmul@product+3,?___lmul+3
  1630  00687C  0012               	return		;funcret
  1631  00687E                     __end_of___lmul:
  1632                           	opt callstack 0
  1633                           
  1634 ;; *************** function _Menu_In *****************
  1635 ;; Defined at:
  1636 ;;		line 388 in file "main.c"
  1637 ;; Parameters:    Size  Location     Type
  1638 ;;		None
  1639 ;; Auto vars:     Size  Location     Type
  1640 ;;		None
  1641 ;; Return value:  Size  Location     Type
  1642 ;;                  1    wreg      void 
  1643 ;; Registers used:
  1644 ;;		wreg, status,2, status,0, cstack
  1645 ;; Tracked objects:
  1646 ;;		On entry : 0/0
  1647 ;;		On exit  : 0/0
  1648 ;;		Unchanged: 0/0
  1649 ;; Data sizes:     COMRAM   BANK0   BANK1   BANK2   BANK3   BANK4   BANK5   BANK6   BANK7
  1650 ;;      Params:         0       0       0       0       0       0       0       0       0
  1651 ;;      Locals:         0       0       0       0       0       0       0       0       0
  1652 ;;      Temps:          2       0       0       0       0       0       0       0       0
  1653 ;;      Totals:         2       0       0       0       0       0       0       0       0
  1654 ;;Total ram usage:        2 bytes
  1655 ;; Hardware stack levels used:    1
  1656 ;; Hardware stack levels required when called:    4
  1657 ;; This function calls:
  1658 ;;		_Menu
  1659 ;; This function is called by:
  1660 ;;		_main
  1661 ;; This function uses a non-reentrant model
  1662 ;;
  1663                           
  1664                           	psect	text3
  1665  006ADA                     __ptext3:
  1666                           	opt callstack 0
  1667  006ADA                     _Menu_In:
  1668                           	opt callstack 26
  1669                           
  1670                           ;main.c: 389:     Button_Menu_Up_State = PORTAbits.RA1;
  1671                           
  1672                           ;incstack = 0
  1673  006ADA  A280               	btfss	3968,1,c	;volatile
  1674  006ADC  D002               	goto	u1400
  1675  006ADE  0E01               	movlw	1
  1676  006AE0  D001               	goto	u1406
  1677  006AE2                     u1400:
  1678  006AE2  0E00               	movlw	0
  1679  006AE4                     u1406:
  1680  006AE4  6E33               	movwf	_Button_Menu_Up_State,c
  1681                           
  1682                           ;main.c: 390:     _delay((unsigned long)((1)*(20000000/4000.0)));
  1683  006AE6  0E07               	movlw	7
  1684  006AE8  6E3E               	movwf	??_Menu_In& (0+255),c
  1685  006AEA  0E7D               	movlw	125
  1686  006AEC                     u2047:
  1687  006AEC  2EE8               	decfsz	wreg,f,c
  1688  006AEE  D7FE               	bra	u2047
  1689  006AF0  2E3E               	decfsz	??_Menu_In& (0+255),f,c
  1690  006AF2  D7FC               	bra	u2047
  1691  006AF4  F000               	nop	
  1692                           
  1693                           ;main.c: 391:     if (Button_Menu_Up_State == 0 && Last_Button_Menu_Up_State == 1) {
  1694  006AF6  5033               	movf	_Button_Menu_Up_State,w,c
  1695  006AF8  A4D8               	btfss	status,2,c
  1696  006AFA  D022               	goto	l3593
  1697  006AFC  0454               	decf	_Last_Button_Menu_Up_State,w,c
  1698  006AFE  A4D8               	btfss	status,2,c
  1699  006B00  D01F               	goto	l3593
  1700                           
  1701                           ;main.c: 392:         Toggle_Up = 1;
  1702  006B02  0E01               	movlw	1
  1703  006B04  6E31               	movwf	_Toggle_Up,c
  1704                           
  1705                           ;main.c: 393:         if (Toggle_Up == 1 && Toggle_Down == 1) {
  1706  006B06  0431               	decf	_Toggle_Up,w,c
  1707  006B08  A4D8               	btfss	status,2,c
  1708  006B0A  D01A               	goto	l3593
  1709  006B0C  0430               	decf	_Toggle_Down,w,c
  1710  006B0E  A4D8               	btfss	status,2,c
  1711  006B10  D017               	goto	l3593
  1712                           
  1713                           ;main.c: 394:             Flag_Menu = 1;
  1714  006B12  0E01               	movlw	1
  1715  006B14  6E2F               	movwf	_Flag_Menu,c
  1716                           
  1717                           ;main.c: 395:             Toggle_Up = 0;
  1718  006B16  0E00               	movlw	0
  1719  006B18  6E31               	movwf	_Toggle_Up,c
  1720                           
  1721                           ;main.c: 396:             Toggle_Down = 0;
  1722  006B1A  0E00               	movlw	0
  1723  006B1C  6E30               	movwf	_Toggle_Down,c
  1724                           
  1725                           ;main.c: 397:             Count_Push_Button = 0;
  1726  006B1E  0E00               	movlw	0
  1727  006B20  6E28               	movwf	_Count_Push_Button+1,c
  1728  006B22  0E00               	movlw	0
  1729  006B24  6E27               	movwf	_Count_Push_Button,c
  1730                           
  1731                           ;main.c: 398:             _delay((unsigned long)((300)*(20000000/4000.0)));
  1732  006B26  0E08               	movlw	8
  1733  006B28  6E3F               	movwf	(??_Menu_In+1)& (0+255),c
  1734  006B2A  0E9D               	movlw	157
  1735  006B2C  6E3E               	movwf	??_Menu_In& (0+255),c
  1736  006B2E  0E06               	movlw	6
  1737  006B30                     u2057:
  1738  006B30  2EE8               	decfsz	wreg,f,c
  1739  006B32  D7FE               	bra	u2057
  1740  006B34  2E3E               	decfsz	??_Menu_In& (0+255),f,c
  1741  006B36  D7FC               	bra	u2057
  1742  006B38  2E3F               	decfsz	(??_Menu_In+1)& (0+255),f,c
  1743  006B3A  D7FA               	bra	u2057
  1744                           
  1745                           ;main.c: 399:             Menu();
  1746  006B3C  EC52  F036         	call	_Menu	;wreg free
  1747  006B40                     l3593:
  1748                           
  1749                           ;main.c: 402:     Last_Button_Menu_Up_State = Button_Menu_Up_State;
  1750  006B40  C033  F054         	movff	_Button_Menu_Up_State,_Last_Button_Menu_Up_State
  1751                           
  1752                           ;main.c: 404:     Button_Menu_Down_State = PORTAbits.RA2;
  1753  006B44  A480               	btfss	3968,2,c	;volatile
  1754  006B46  D002               	goto	u1450
  1755  006B48  0E01               	movlw	1
  1756  006B4A  D001               	goto	u1456
  1757  006B4C                     u1450:
  1758  006B4C  0E00               	movlw	0
  1759  006B4E                     u1456:
  1760  006B4E  6E32               	movwf	_Button_Menu_Down_State,c
  1761                           
  1762                           ;main.c: 405:     _delay((unsigned long)((1)*(20000000/4000.0)));
  1763  006B50  0E07               	movlw	7
  1764  006B52  6E3E               	movwf	??_Menu_In& (0+255),c
  1765  006B54  0E7D               	movlw	125
  1766  006B56                     u2067:
  1767  006B56  2EE8               	decfsz	wreg,f,c
  1768  006B58  D7FE               	bra	u2067
  1769  006B5A  2E3E               	decfsz	??_Menu_In& (0+255),f,c
  1770  006B5C  D7FC               	bra	u2067
  1771  006B5E  F000               	nop	
  1772                           
  1773                           ;main.c: 406:     if (Button_Menu_Down_State == 0 && Last_Button_Menu_Down_State == 1) {
  1774  006B60  5032               	movf	_Button_Menu_Down_State,w,c
  1775  006B62  A4D8               	btfss	status,2,c
  1776  006B64  D022               	goto	l3615
  1777  006B66  0453               	decf	_Last_Button_Menu_Down_State,w,c
  1778  006B68  A4D8               	btfss	status,2,c
  1779  006B6A  D01F               	goto	l3615
  1780                           
  1781                           ;main.c: 407:         Toggle_Down = 1;
  1782  006B6C  0E01               	movlw	1
  1783  006B6E  6E30               	movwf	_Toggle_Down,c
  1784                           
  1785                           ;main.c: 408:         if (Toggle_Down == 1 && Toggle_Up == 1) {
  1786  006B70  0430               	decf	_Toggle_Down,w,c
  1787  006B72  A4D8               	btfss	status,2,c
  1788  006B74  D01A               	goto	l3615
  1789  006B76  0431               	decf	_Toggle_Up,w,c
  1790  006B78  A4D8               	btfss	status,2,c
  1791  006B7A  D017               	goto	l3615
  1792                           
  1793                           ;main.c: 409:             Flag_Menu = 1;
  1794  006B7C  0E01               	movlw	1
  1795  006B7E  6E2F               	movwf	_Flag_Menu,c
  1796                           
  1797                           ;main.c: 410:             Toggle_Down = 0;
  1798  006B80  0E00               	movlw	0
  1799  006B82  6E30               	movwf	_Toggle_Down,c
  1800                           
  1801                           ;main.c: 411:             Toggle_Up = 0;
  1802  006B84  0E00               	movlw	0
  1803  006B86  6E31               	movwf	_Toggle_Up,c
  1804                           
  1805                           ;main.c: 412:             Count_Push_Button = 0;
  1806  006B88  0E00               	movlw	0
  1807  006B8A  6E28               	movwf	_Count_Push_Button+1,c
  1808  006B8C  0E00               	movlw	0
  1809  006B8E  6E27               	movwf	_Count_Push_Button,c
  1810                           
  1811                           ;main.c: 413:             _delay((unsigned long)((300)*(20000000/4000.0)));
  1812  006B90  0E08               	movlw	8
  1813  006B92  6E3F               	movwf	(??_Menu_In+1)& (0+255),c
  1814  006B94  0E9D               	movlw	157
  1815  006B96  6E3E               	movwf	??_Menu_In& (0+255),c
  1816  006B98  0E06               	movlw	6
  1817  006B9A                     u2077:
  1818  006B9A  2EE8               	decfsz	wreg,f,c
  1819  006B9C  D7FE               	bra	u2077
  1820  006B9E  2E3E               	decfsz	??_Menu_In& (0+255),f,c
  1821  006BA0  D7FC               	bra	u2077
  1822  006BA2  2E3F               	decfsz	(??_Menu_In+1)& (0+255),f,c
  1823  006BA4  D7FA               	bra	u2077
  1824                           
  1825                           ;main.c: 414:             Menu();
  1826  006BA6  EC52  F036         	call	_Menu	;wreg free
  1827  006BAA                     l3615:
  1828                           
  1829                           ;main.c: 417:     Last_Button_Menu_Down_State = Button_Menu_Down_State;
  1830  006BAA  C032  F053         	movff	_Button_Menu_Down_State,_Last_Button_Menu_Down_State
  1831  006BAE  0012               	return		;funcret
  1832  006BB0                     __end_of_Menu_In:
  1833                           	opt callstack 0
  1834                           
  1835 ;; *************** function _Menu *****************
  1836 ;; Defined at:
  1837 ;;		line 420 in file "main.c"
  1838 ;; Parameters:    Size  Location     Type
  1839 ;;		None
  1840 ;; Auto vars:     Size  Location     Type
  1841 ;;		None
  1842 ;; Return value:  Size  Location     Type
  1843 ;;                  1    wreg      void 
  1844 ;; Registers used:
  1845 ;;		wreg, status,2, status,0, cstack
  1846 ;; Tracked objects:
  1847 ;;		On entry : 0/0
  1848 ;;		On exit  : 0/0
  1849 ;;		Unchanged: 0/0
  1850 ;; Data sizes:     COMRAM   BANK0   BANK1   BANK2   BANK3   BANK4   BANK5   BANK6   BANK7
  1851 ;;      Params:         0       0       0       0       0       0       0       0       0
  1852 ;;      Locals:         0       0       0       0       0       0       0       0       0
  1853 ;;      Temps:          2       0       0       0       0       0       0       0       0
  1854 ;;      Totals:         2       0       0       0       0       0       0       0       0
  1855 ;;Total ram usage:        2 bytes
  1856 ;; Hardware stack levels used:    1
  1857 ;; Hardware stack levels required when called:    3
  1858 ;; This function calls:
  1859 ;;		_Draw_P1
  1860 ;;		_Draw_P2
  1861 ;;		_Draw_P3
  1862 ;;		_Draw_P4
  1863 ;;		_Exit_Time_Menu
  1864 ;;		_Menu_P1
  1865 ;;		_Menu_P2
  1866 ;;		_Menu_P3
  1867 ;;		_Menu_P4
  1868 ;; This function is called by:
  1869 ;;		_Menu_In
  1870 ;; This function uses a non-reentrant model
  1871 ;;
  1872                           
  1873                           	psect	text4
  1874  006CA4                     __ptext4:
  1875                           	opt callstack 0
  1876  006CA4                     _Menu:
  1877                           	opt callstack 26
  1878                           
  1879                           ;main.c: 422:         switch (Count_Push_Button)
  1880                           
  1881                           ;incstack = 0
  1882                           ;main.c: 421:     do {
  1883  006CA4  D011               	goto	l3493
  1884  006CA6                     l3481:
  1885  006CA6  EC04  F032         	call	_Draw_P1	;wreg free
  1886  006CAA  D024               	goto	l3495
  1887  006CAC                     l3483:
  1888  006CAC  EC1D  F032         	call	_Draw_P2	;wreg free
  1889  006CB0  D021               	goto	l3495
  1890  006CB2                     l3485:
  1891  006CB2  EC36  F032         	call	_Draw_P3	;wreg free
  1892  006CB6  D01E               	goto	l3495
  1893  006CB8                     l3487:
  1894  006CB8  EC4F  F032         	call	_Draw_P4	;wreg free
  1895  006CBC  D01B               	goto	l3495
  1896  006CBE                     l3489:
  1897  006CBE  0E00               	movlw	0
  1898  006CC0  6E28               	movwf	_Count_Push_Button+1,c
  1899  006CC2  0E00               	movlw	0
  1900  006CC4  6E27               	movwf	_Count_Push_Button,c
  1901  006CC6  D016               	goto	l3495
  1902  006CC8                     l3493:
  1903  006CC8  C027  F03C         	movff	_Count_Push_Button,??_Menu
  1904  006CCC  C028  F03D         	movff	_Count_Push_Button+1,??_Menu+1
  1905                           
  1906                           ; Switch on 2 bytes has been partitioned into a top level switch of size 1, and 1 sub-sw
      +                          itches
  1907                           ; Switch size 1, requested type "simple"
  1908                           ; Number of cases is 1, Range of values is 0 to 0
  1909                           ; switch strategies available:
  1910                           ; Name         Instructions Cycles
  1911                           ; simple_byte            4     3 (average)
  1912                           ;	Chosen strategy is simple_byte
  1913  006CD0  503D               	movf	??_Menu+1,w,c
  1914  006CD2  0A00               	xorlw	0	; case 0
  1915  006CD4  A4D8               	btfss	status,2,c
  1916  006CD6  D7F3               	goto	l3489
  1917                           
  1918                           ; Switch size 1, requested type "simple"
  1919                           ; Number of cases is 4, Range of values is 0 to 3
  1920                           ; switch strategies available:
  1921                           ; Name         Instructions Cycles
  1922                           ; simple_byte           13     7 (average)
  1923                           ;	Chosen strategy is simple_byte
  1924  006CD8  503C               	movf	??_Menu,w,c
  1925  006CDA  0A00               	xorlw	0	; case 0
  1926  006CDC  B4D8               	btfsc	status,2,c
  1927  006CDE  D7E3               	goto	l3481
  1928  006CE0  0A01               	xorlw	1	; case 1
  1929  006CE2  B4D8               	btfsc	status,2,c
  1930  006CE4  D7E3               	goto	l3483
  1931  006CE6  0A03               	xorlw	3	; case 2
  1932  006CE8  B4D8               	btfsc	status,2,c
  1933  006CEA  D7E3               	goto	l3485
  1934  006CEC  0A01               	xorlw	1	; case 3
  1935  006CEE  B4D8               	btfsc	status,2,c
  1936  006CF0  D7E3               	goto	l3487
  1937  006CF2  D7E5               	goto	l3489
  1938  006CF4                     l3495:
  1939                           
  1940                           ;main.c: 431:         Button_Menu_Down_State = PORTAbits.RA2;
  1941  006CF4  A480               	btfss	3968,2,c	;volatile
  1942  006CF6  D002               	goto	u1310
  1943  006CF8  0E01               	movlw	1
  1944  006CFA  D001               	goto	u1316
  1945  006CFC                     u1310:
  1946  006CFC  0E00               	movlw	0
  1947  006CFE                     u1316:
  1948  006CFE  6E32               	movwf	_Button_Menu_Down_State,c
  1949                           
  1950                           ;main.c: 432:         if (Button_Menu_Down_State == 0 && Last_Button_Menu_Down_State == 
      +                          1) {
  1951  006D00  5032               	movf	_Button_Menu_Down_State,w,c
  1952  006D02  A4D8               	btfss	status,2,c
  1953  006D04  D00D               	goto	l3503
  1954  006D06  0453               	decf	_Last_Button_Menu_Down_State,w,c
  1955  006D08  A4D8               	btfss	status,2,c
  1956  006D0A  D00A               	goto	l3503
  1957                           
  1958                           ;main.c: 433:             Count_Push_Button++;
  1959  006D0C  4A27               	infsnz	_Count_Push_Button,f,c
  1960  006D0E  2A28               	incf	_Count_Push_Button+1,f,c
  1961                           
  1962                           ;main.c: 434:             Count_Exit_Menu = 0;
  1963  006D10  0E00               	movlw	0
  1964  006D12  6E11               	movwf	_Count_Exit_Menu,c
  1965  006D14  0E00               	movlw	0
  1966  006D16  6E12               	movwf	_Count_Exit_Menu+1,c
  1967  006D18  0E00               	movlw	0
  1968  006D1A  6E13               	movwf	_Count_Exit_Menu+2,c
  1969  006D1C  0E00               	movlw	0
  1970  006D1E  6E14               	movwf	_Count_Exit_Menu+3,c
  1971  006D20                     l3503:
  1972                           
  1973                           ;main.c: 436:         Last_Button_Menu_Down_State = Button_Menu_Down_State;
  1974  006D20  C032  F053         	movff	_Button_Menu_Down_State,_Last_Button_Menu_Down_State
  1975                           
  1976                           ;main.c: 439:         Button_Menu_Up_State = PORTAbits.RA1;
  1977  006D24  A280               	btfss	3968,1,c	;volatile
  1978  006D26  D002               	goto	u1340
  1979  006D28  0E01               	movlw	1
  1980  006D2A  D001               	goto	u1346
  1981  006D2C                     u1340:
  1982  006D2C  0E00               	movlw	0
  1983  006D2E                     u1346:
  1984  006D2E  6E33               	movwf	_Button_Menu_Up_State,c
  1985                           
  1986                           ;main.c: 440:         if (Button_Menu_Up_State == 0 && Last_Button_Menu_Up_State == 1) {
  1987  006D30  5033               	movf	_Button_Menu_Up_State,w,c
  1988  006D32  A4D8               	btfss	status,2,c
  1989  006D34  D07A               	goto	l300
  1990  006D36  0454               	decf	_Last_Button_Menu_Up_State,w,c
  1991  006D38  A4D8               	btfss	status,2,c
  1992  006D3A  D077               	goto	l300
  1993                           
  1994                           ;main.c: 441:             Count_Exit_Menu = 0;
  1995  006D3C  0E00               	movlw	0
  1996  006D3E  6E11               	movwf	_Count_Exit_Menu,c
  1997  006D40  0E00               	movlw	0
  1998  006D42  6E12               	movwf	_Count_Exit_Menu+1,c
  1999  006D44  0E00               	movlw	0
  2000  006D46  6E13               	movwf	_Count_Exit_Menu+2,c
  2001  006D48  0E00               	movlw	0
  2002  006D4A  6E14               	movwf	_Count_Exit_Menu+3,c
  2003                           
  2004                           ;main.c: 442:             switch (Count_Push_Button)
  2005  006D4C  D058               	goto	l3543
  2006  006D4E                     l3513:
  2007                           
  2008                           ;main.c: 445:                 Count_Push_Button = 0;
  2009  006D4E  0E00               	movlw	0
  2010  006D50  6E28               	movwf	_Count_Push_Button+1,c
  2011  006D52  0E00               	movlw	0
  2012  006D54  6E27               	movwf	_Count_Push_Button,c
  2013                           
  2014                           ;main.c: 446:                 _delay((unsigned long)((300)*(20000000/4000.0)));
  2015  006D56  0E08               	movlw	8
  2016  006D58  6E3D               	movwf	(??_Menu+1)& (0+255),c
  2017  006D5A  0E9D               	movlw	157
  2018  006D5C  6E3C               	movwf	??_Menu& (0+255),c
  2019  006D5E  0E06               	movlw	6
  2020  006D60                     u2087:
  2021  006D60  2EE8               	decfsz	wreg,f,c
  2022  006D62  D7FE               	bra	u2087
  2023  006D64  2E3C               	decfsz	??_Menu& (0+255),f,c
  2024  006D66  D7FC               	bra	u2087
  2025  006D68  2E3D               	decfsz	(??_Menu+1)& (0+255),f,c
  2026  006D6A  D7FA               	bra	u2087
  2027                           
  2028                           ;main.c: 447:                 Menu_P1();
  2029  006D6C  ECD8  F035         	call	_Menu_P1	;wreg free
  2030                           
  2031                           ;main.c: 448:                 break;
  2032  006D70  D05C               	goto	l300
  2033  006D72                     l3519:
  2034                           
  2035                           ;main.c: 450:                 Count_Push_Button = 0;
  2036  006D72  0E00               	movlw	0
  2037  006D74  6E28               	movwf	_Count_Push_Button+1,c
  2038  006D76  0E00               	movlw	0
  2039  006D78  6E27               	movwf	_Count_Push_Button,c
  2040                           
  2041                           ;main.c: 451:                 _delay((unsigned long)((300)*(20000000/4000.0)));
  2042  006D7A  0E08               	movlw	8
  2043  006D7C  6E3D               	movwf	(??_Menu+1)& (0+255),c
  2044  006D7E  0E9D               	movlw	157
  2045  006D80  6E3C               	movwf	??_Menu& (0+255),c
  2046  006D82  0E06               	movlw	6
  2047  006D84                     u2097:
  2048  006D84  2EE8               	decfsz	wreg,f,c
  2049  006D86  D7FE               	bra	u2097
  2050  006D88  2E3C               	decfsz	??_Menu& (0+255),f,c
  2051  006D8A  D7FC               	bra	u2097
  2052  006D8C  2E3D               	decfsz	(??_Menu+1)& (0+255),f,c
  2053  006D8E  D7FA               	bra	u2097
  2054                           
  2055                           ;main.c: 452:                 Menu_P2();
  2056  006D90  EC81  F038         	call	_Menu_P2	;wreg free
  2057                           
  2058                           ;main.c: 453:                 break;
  2059  006D94  D04A               	goto	l300
  2060  006D96                     l3525:
  2061                           
  2062                           ;main.c: 455:                 Count_Push_Button = 1;
  2063  006D96  0E00               	movlw	0
  2064  006D98  6E28               	movwf	_Count_Push_Button+1,c
  2065  006D9A  0E01               	movlw	1
  2066  006D9C  6E27               	movwf	_Count_Push_Button,c
  2067                           
  2068                           ;main.c: 456:                 _delay((unsigned long)((300)*(20000000/4000.0)));
  2069  006D9E  0E08               	movlw	8
  2070  006DA0  6E3D               	movwf	(??_Menu+1)& (0+255),c
  2071  006DA2  0E9D               	movlw	157
  2072  006DA4  6E3C               	movwf	??_Menu& (0+255),c
  2073  006DA6  0E06               	movlw	6
  2074  006DA8                     u2107:
  2075  006DA8  2EE8               	decfsz	wreg,f,c
  2076  006DAA  D7FE               	bra	u2107
  2077  006DAC  2E3C               	decfsz	??_Menu& (0+255),f,c
  2078  006DAE  D7FC               	bra	u2107
  2079  006DB0  2E3D               	decfsz	(??_Menu+1)& (0+255),f,c
  2080  006DB2  D7FA               	bra	u2107
  2081                           
  2082                           ;main.c: 457:                 Menu_P3();
  2083  006DB4  EC1D  F037         	call	_Menu_P3	;wreg free
  2084                           
  2085                           ;main.c: 458:                 break;
  2086  006DB8  D038               	goto	l300
  2087  006DBA                     l3531:
  2088                           
  2089                           ;main.c: 460:                 Count_Push_Button = 0;
  2090  006DBA  0E00               	movlw	0
  2091  006DBC  6E28               	movwf	_Count_Push_Button+1,c
  2092  006DBE  0E00               	movlw	0
  2093  006DC0  6E27               	movwf	_Count_Push_Button,c
  2094                           
  2095                           ;main.c: 461:                 _delay((unsigned long)((300)*(20000000/4000.0)));
  2096  006DC2  0E08               	movlw	8
  2097  006DC4  6E3D               	movwf	(??_Menu+1)& (0+255),c
  2098  006DC6  0E9D               	movlw	157
  2099  006DC8  6E3C               	movwf	??_Menu& (0+255),c
  2100  006DCA  0E06               	movlw	6
  2101  006DCC                     u2117:
  2102  006DCC  2EE8               	decfsz	wreg,f,c
  2103  006DCE  D7FE               	bra	u2117
  2104  006DD0  2E3C               	decfsz	??_Menu& (0+255),f,c
  2105  006DD2  D7FC               	bra	u2117
  2106  006DD4  2E3D               	decfsz	(??_Menu+1)& (0+255),f,c
  2107  006DD6  D7FA               	bra	u2117
  2108                           
  2109                           ;main.c: 462:                 Menu_P4();
  2110  006DD8  ECF7  F039         	call	_Menu_P4	;wreg free
  2111                           
  2112                           ;main.c: 463:                 break;
  2113  006DDC  D026               	goto	l300
  2114  006DDE                     l3537:
  2115                           
  2116                           ;main.c: 465:                 Count_Push_Button = 0;
  2117  006DDE  0E00               	movlw	0
  2118  006DE0  6E28               	movwf	_Count_Push_Button+1,c
  2119  006DE2  0E00               	movlw	0
  2120  006DE4  6E27               	movwf	_Count_Push_Button,c
  2121                           
  2122                           ;main.c: 466:                 _delay((unsigned long)((300)*(20000000/4000.0)));
  2123  006DE6  0E08               	movlw	8
  2124  006DE8  6E3D               	movwf	(??_Menu+1)& (0+255),c
  2125  006DEA  0E9D               	movlw	157
  2126  006DEC  6E3C               	movwf	??_Menu& (0+255),c
  2127  006DEE  0E06               	movlw	6
  2128  006DF0                     u2127:
  2129  006DF0  2EE8               	decfsz	wreg,f,c
  2130  006DF2  D7FE               	bra	u2127
  2131  006DF4  2E3C               	decfsz	??_Menu& (0+255),f,c
  2132  006DF6  D7FC               	bra	u2127
  2133  006DF8  2E3D               	decfsz	(??_Menu+1)& (0+255),f,c
  2134  006DFA  D7FA               	bra	u2127
  2135                           
  2136                           ;main.c: 467:                 break;
  2137  006DFC  D016               	goto	l300
  2138  006DFE                     l3543:
  2139  006DFE  C027  F03C         	movff	_Count_Push_Button,??_Menu
  2140  006E02  C028  F03D         	movff	_Count_Push_Button+1,??_Menu+1
  2141                           
  2142                           ; Switch on 2 bytes has been partitioned into a top level switch of size 1, and 1 sub-sw
      +                          itches
  2143                           ; Switch size 1, requested type "simple"
  2144                           ; Number of cases is 1, Range of values is 0 to 0
  2145                           ; switch strategies available:
  2146                           ; Name         Instructions Cycles
  2147                           ; simple_byte            4     3 (average)
  2148                           ;	Chosen strategy is simple_byte
  2149  006E06  503D               	movf	??_Menu+1,w,c
  2150  006E08  0A00               	xorlw	0	; case 0
  2151  006E0A  A4D8               	btfss	status,2,c
  2152  006E0C  D7E8               	goto	l3537
  2153                           
  2154                           ; Switch size 1, requested type "simple"
  2155                           ; Number of cases is 4, Range of values is 0 to 3
  2156                           ; switch strategies available:
  2157                           ; Name         Instructions Cycles
  2158                           ; simple_byte           13     7 (average)
  2159                           ;	Chosen strategy is simple_byte
  2160  006E0E  503C               	movf	??_Menu,w,c
  2161  006E10  0A00               	xorlw	0	; case 0
  2162  006E12  B4D8               	btfsc	status,2,c
  2163  006E14  D79C               	goto	l3513
  2164  006E16  0A01               	xorlw	1	; case 1
  2165  006E18  B4D8               	btfsc	status,2,c
  2166  006E1A  D7AB               	goto	l3519
  2167  006E1C  0A03               	xorlw	3	; case 2
  2168  006E1E  B4D8               	btfsc	status,2,c
  2169  006E20  D7BA               	goto	l3525
  2170  006E22  0A01               	xorlw	1	; case 3
  2171  006E24  B4D8               	btfsc	status,2,c
  2172  006E26  D7C9               	goto	l3531
  2173  006E28  D7DA               	goto	l3537
  2174  006E2A                     l300:
  2175                           
  2176                           ;main.c: 470:         Last_Button_Menu_Up_State = Button_Menu_Up_State;
  2177  006E2A  C033  F054         	movff	_Button_Menu_Up_State,_Last_Button_Menu_Up_State
  2178                           
  2179                           ;main.c: 471:         Exit_Time_Menu();
  2180  006E2E  ECDF  F033         	call	_Exit_Time_Menu	;wreg free
  2181                           
  2182                           ;main.c: 472:     } while(Flag_Menu == 1);
  2183  006E32  042F               	decf	_Flag_Menu,w,c
  2184  006E34  A4D8               	btfss	status,2,c
  2185  006E36  0012               	return	
  2186  006E38  D747               	goto	l3493
  2187  006E3A                     __end_of_Menu:
  2188                           	opt callstack 0
  2189                           
  2190 ;; *************** function _Menu_P4 *****************
  2191 ;; Defined at:
  2192 ;;		line 635 in file "main.c"
  2193 ;; Parameters:    Size  Location     Type
  2194 ;;		None
  2195 ;; Auto vars:     Size  Location     Type
  2196 ;;		None
  2197 ;; Return value:  Size  Location     Type
  2198 ;;                  1    wreg      void 
  2199 ;; Registers used:
  2200 ;;		wreg, status,2, status,0, cstack
  2201 ;; Tracked objects:
  2202 ;;		On entry : 0/0
  2203 ;;		On exit  : 0/0
  2204 ;;		Unchanged: 0/0
  2205 ;; Data sizes:     COMRAM   BANK0   BANK1   BANK2   BANK3   BANK4   BANK5   BANK6   BANK7
  2206 ;;      Params:         0       0       0       0       0       0       0       0       0
  2207 ;;      Locals:         0       0       0       0       0       0       0       0       0
  2208 ;;      Temps:          2       0       0       0       0       0       0       0       0
  2209 ;;      Totals:         2       0       0       0       0       0       0       0       0
  2210 ;;Total ram usage:        2 bytes
  2211 ;; Hardware stack levels used:    1
  2212 ;; Hardware stack levels required when called:    2
  2213 ;; This function calls:
  2214 ;;		_Draw_0
  2215 ;;		_Draw_1
  2216 ;;		_Draw_10
  2217 ;;		_Draw_11
  2218 ;;		_Draw_12
  2219 ;;		_Draw_13
  2220 ;;		_Draw_14
  2221 ;;		_Draw_15
  2222 ;;		_Draw_2
  2223 ;;		_Draw_3
  2224 ;;		_Draw_4
  2225 ;;		_Draw_5
  2226 ;;		_Draw_6
  2227 ;;		_Draw_7
  2228 ;;		_Draw_8
  2229 ;;		_Draw_9
  2230 ;;		_Exit_Time_Menu
  2231 ;;		_Recording
  2232 ;;		_eeprom_writex
  2233 ;; This function is called by:
  2234 ;;		_Menu
  2235 ;; This function uses a non-reentrant model
  2236 ;;
  2237                           
  2238                           	psect	text5
  2239  0073EE                     __ptext5:
  2240                           	opt callstack 0
  2241  0073EE                     _Menu_P4:
  2242                           	opt callstack 26
  2243                           
  2244                           ;main.c: 637:         switch (Count_Push_Button)
  2245                           
  2246                           ;incstack = 0
  2247                           ;main.c: 636:     do {
  2248  0073EE  D035               	goto	l3339
  2249  0073F0                     l3303:
  2250  0073F0  ECFC  F030         	call	_Draw_0	;wreg free
  2251  0073F4  D06C               	goto	l3341
  2252  0073F6                     l3305:
  2253  0073F6  EC14  F031         	call	_Draw_1	;wreg free
  2254  0073FA  D069               	goto	l3341
  2255  0073FC                     l3307:
  2256  0073FC  EC44  F031         	call	_Draw_2	;wreg free
  2257  007400  D066               	goto	l3341
  2258  007402                     l3309:
  2259  007402  EC5C  F031         	call	_Draw_3	;wreg free
  2260  007406  D063               	goto	l3341
  2261  007408                     l3311:
  2262  007408  EC74  F031         	call	_Draw_4	;wreg free
  2263  00740C  D060               	goto	l3341
  2264  00740E                     l3313:
  2265  00740E  EC8C  F031         	call	_Draw_5	;wreg free
  2266  007412  D05D               	goto	l3341
  2267  007414                     l3315:
  2268  007414  ECA4  F031         	call	_Draw_6	;wreg free
  2269  007418  D05A               	goto	l3341
  2270  00741A                     l3317:
  2271  00741A  ECBC  F031         	call	_Draw_7	;wreg free
  2272  00741E  D057               	goto	l3341
  2273  007420                     l3319:
  2274  007420  ECD4  F031         	call	_Draw_8	;wreg free
  2275  007424  D054               	goto	l3341
  2276  007426                     l3321:
  2277  007426  ECEC  F031         	call	_Draw_9	;wreg free
  2278  00742A  D051               	goto	l3341
  2279  00742C                     l3323:
  2280  00742C  EC81  F032         	call	_Draw_10	;wreg free
  2281  007430  D04E               	goto	l3341
  2282  007432                     l3325:
  2283  007432  EC9A  F032         	call	_Draw_11	;wreg free
  2284  007436  D04B               	goto	l3341
  2285  007438                     l3327:
  2286  007438  ECB3  F032         	call	_Draw_12	;wreg free
  2287  00743C  D048               	goto	l3341
  2288  00743E                     l3329:
  2289  00743E  ECCC  F032         	call	_Draw_13	;wreg free
  2290  007442  D045               	goto	l3341
  2291  007444                     l3331:
  2292  007444  ECE5  F032         	call	_Draw_14	;wreg free
  2293  007448  D042               	goto	l3341
  2294  00744A                     l3333:
  2295  00744A  ECFE  F032         	call	_Draw_15	;wreg free
  2296  00744E  D03F               	goto	l3341
  2297  007450                     l3335:
  2298  007450  0E00               	movlw	0
  2299  007452  6E28               	movwf	_Count_Push_Button+1,c
  2300  007454  0E00               	movlw	0
  2301  007456  6E27               	movwf	_Count_Push_Button,c
  2302  007458  D03A               	goto	l3341
  2303  00745A                     l3339:
  2304  00745A  C027  F03A         	movff	_Count_Push_Button,??_Menu_P4
  2305  00745E  C028  F03B         	movff	_Count_Push_Button+1,??_Menu_P4+1
  2306                           
  2307                           ; Switch on 2 bytes has been partitioned into a top level switch of size 1, and 1 sub-sw
      +                          itches
  2308                           ; Switch size 1, requested type "simple"
  2309                           ; Number of cases is 1, Range of values is 0 to 0
  2310                           ; switch strategies available:
  2311                           ; Name         Instructions Cycles
  2312                           ; simple_byte            4     3 (average)
  2313                           ;	Chosen strategy is simple_byte
  2314  007462  503B               	movf	??_Menu_P4+1,w,c
  2315  007464  0A00               	xorlw	0	; case 0
  2316  007466  A4D8               	btfss	status,2,c
  2317  007468  D7F3               	goto	l3335
  2318                           
  2319                           ; Switch size 1, requested type "simple"
  2320                           ; Number of cases is 16, Range of values is 0 to 15
  2321                           ; switch strategies available:
  2322                           ; Name         Instructions Cycles
  2323                           ; simple_byte           49    25 (average)
  2324                           ;	Chosen strategy is simple_byte
  2325  00746A  503A               	movf	??_Menu_P4,w,c
  2326  00746C  0A00               	xorlw	0	; case 0
  2327  00746E  B4D8               	btfsc	status,2,c
  2328  007470  D7BF               	goto	l3303
  2329  007472  0A01               	xorlw	1	; case 1
  2330  007474  B4D8               	btfsc	status,2,c
  2331  007476  D7BF               	goto	l3305
  2332  007478  0A03               	xorlw	3	; case 2
  2333  00747A  B4D8               	btfsc	status,2,c
  2334  00747C  D7BF               	goto	l3307
  2335  00747E  0A01               	xorlw	1	; case 3
  2336  007480  B4D8               	btfsc	status,2,c
  2337  007482  D7BF               	goto	l3309
  2338  007484  0A07               	xorlw	7	; case 4
  2339  007486  B4D8               	btfsc	status,2,c
  2340  007488  D7BF               	goto	l3311
  2341  00748A  0A01               	xorlw	1	; case 5
  2342  00748C  B4D8               	btfsc	status,2,c
  2343  00748E  D7BF               	goto	l3313
  2344  007490  0A03               	xorlw	3	; case 6
  2345  007492  B4D8               	btfsc	status,2,c
  2346  007494  D7BF               	goto	l3315
  2347  007496  0A01               	xorlw	1	; case 7
  2348  007498  B4D8               	btfsc	status,2,c
  2349  00749A  D7BF               	goto	l3317
  2350  00749C  0A0F               	xorlw	15	; case 8
  2351  00749E  B4D8               	btfsc	status,2,c
  2352  0074A0  D7BF               	goto	l3319
  2353  0074A2  0A01               	xorlw	1	; case 9
  2354  0074A4  B4D8               	btfsc	status,2,c
  2355  0074A6  D7BF               	goto	l3321
  2356  0074A8  0A03               	xorlw	3	; case 10
  2357  0074AA  B4D8               	btfsc	status,2,c
  2358  0074AC  D7BF               	goto	l3323
  2359  0074AE  0A01               	xorlw	1	; case 11
  2360  0074B0  B4D8               	btfsc	status,2,c
  2361  0074B2  D7BF               	goto	l3325
  2362  0074B4  0A07               	xorlw	7	; case 12
  2363  0074B6  B4D8               	btfsc	status,2,c
  2364  0074B8  D7BF               	goto	l3327
  2365  0074BA  0A01               	xorlw	1	; case 13
  2366  0074BC  B4D8               	btfsc	status,2,c
  2367  0074BE  D7BF               	goto	l3329
  2368  0074C0  0A03               	xorlw	3	; case 14
  2369  0074C2  B4D8               	btfsc	status,2,c
  2370  0074C4  D7BF               	goto	l3331
  2371  0074C6  0A01               	xorlw	1	; case 15
  2372  0074C8  B4D8               	btfsc	status,2,c
  2373  0074CA  D7BF               	goto	l3333
  2374  0074CC  D7C1               	goto	l3335
  2375  0074CE                     l3341:
  2376                           
  2377                           ;main.c: 658:         Button_Menu_Down_State = PORTAbits.RA2;
  2378  0074CE  A480               	btfss	3968,2,c	;volatile
  2379  0074D0  D002               	goto	u1190
  2380  0074D2  0E01               	movlw	1
  2381  0074D4  D001               	goto	u1196
  2382  0074D6                     u1190:
  2383  0074D6  0E00               	movlw	0
  2384  0074D8                     u1196:
  2385  0074D8  6E32               	movwf	_Button_Menu_Down_State,c
  2386                           
  2387                           ;main.c: 659:         if (Button_Menu_Down_State == 0 && Last_Button_Menu_Down_State == 
      +                          1) {
  2388  0074DA  5032               	movf	_Button_Menu_Down_State,w,c
  2389  0074DC  A4D8               	btfss	status,2,c
  2390  0074DE  D00D               	goto	l3349
  2391  0074E0  0453               	decf	_Last_Button_Menu_Down_State,w,c
  2392  0074E2  A4D8               	btfss	status,2,c
  2393  0074E4  D00A               	goto	l3349
  2394                           
  2395                           ;main.c: 660:             Count_Push_Button++;
  2396  0074E6  4A27               	infsnz	_Count_Push_Button,f,c
  2397  0074E8  2A28               	incf	_Count_Push_Button+1,f,c
  2398                           
  2399                           ;main.c: 661:             Count_Exit_Menu = 0;
  2400  0074EA  0E00               	movlw	0
  2401  0074EC  6E11               	movwf	_Count_Exit_Menu,c
  2402  0074EE  0E00               	movlw	0
  2403  0074F0  6E12               	movwf	_Count_Exit_Menu+1,c
  2404  0074F2  0E00               	movlw	0
  2405  0074F4  6E13               	movwf	_Count_Exit_Menu+2,c
  2406  0074F6  0E00               	movlw	0
  2407  0074F8  6E14               	movwf	_Count_Exit_Menu+3,c
  2408  0074FA                     l3349:
  2409                           
  2410                           ;main.c: 663:         Last_Button_Menu_Down_State = Button_Menu_Down_State;
  2411  0074FA  C032  F053         	movff	_Button_Menu_Down_State,_Last_Button_Menu_Down_State
  2412                           
  2413                           ;main.c: 666:         Button_Menu_Up_State = PORTAbits.RA1;
  2414  0074FE  A280               	btfss	3968,1,c	;volatile
  2415  007500  D002               	goto	u1220
  2416  007502  0E01               	movlw	1
  2417  007504  D001               	goto	u1226
  2418  007506                     u1220:
  2419  007506  0E00               	movlw	0
  2420  007508                     u1226:
  2421  007508  6E33               	movwf	_Button_Menu_Up_State,c
  2422                           
  2423                           ;main.c: 667:         Count_Exit_Menu = 0;
  2424  00750A  0E00               	movlw	0
  2425  00750C  6E11               	movwf	_Count_Exit_Menu,c
  2426  00750E  0E00               	movlw	0
  2427  007510  6E12               	movwf	_Count_Exit_Menu+1,c
  2428  007512  0E00               	movlw	0
  2429  007514  6E13               	movwf	_Count_Exit_Menu+2,c
  2430  007516  0E00               	movlw	0
  2431  007518  6E14               	movwf	_Count_Exit_Menu+3,c
  2432                           
  2433                           ;main.c: 668:         if (Button_Menu_Up_State == 0 && Last_Button_Menu_Up_State == 1) {
  2434  00751A  5033               	movf	_Button_Menu_Up_State,w,c
  2435  00751C  A4D8               	btfss	status,2,c
  2436  00751E  D0D5               	goto	l442
  2437  007520  0454               	decf	_Last_Button_Menu_Up_State,w,c
  2438  007522  B4D8               	btfsc	status,2,c
  2439  007524  D098               	goto	l3429
  2440  007526  D0D1               	goto	l442
  2441  007528                     l3361:
  2442  007528  0E00               	movlw	0
  2443  00752A  6E38               	movwf	eeprom_writex@address+1,c
  2444  00752C  0E04               	movlw	4
  2445  00752E  6E37               	movwf	eeprom_writex@address,c
  2446  007530  0E00               	movlw	0
  2447  007532  6E39               	movwf	eeprom_writex@data,c
  2448  007534  ECB0  F030         	call	_eeprom_writex	;wreg free
  2449  007538                     l3363:
  2450  007538  ECBF  F034         	call	_Recording	;wreg free
  2451  00753C  D0C6               	goto	l442
  2452  00753E                     l3365:
  2453  00753E  0E00               	movlw	0
  2454  007540  6E38               	movwf	eeprom_writex@address+1,c
  2455  007542  0E04               	movlw	4
  2456  007544  6E37               	movwf	eeprom_writex@address,c
  2457  007546  0E01               	movlw	1
  2458  007548  6E39               	movwf	eeprom_writex@data,c
  2459  00754A  ECB0  F030         	call	_eeprom_writex	;wreg free
  2460  00754E  D7F4               	goto	l3363
  2461  007550                     l3369:
  2462  007550  0E00               	movlw	0
  2463  007552  6E38               	movwf	eeprom_writex@address+1,c
  2464  007554  0E04               	movlw	4
  2465  007556  6E37               	movwf	eeprom_writex@address,c
  2466  007558  0E02               	movlw	2
  2467  00755A  6E39               	movwf	eeprom_writex@data,c
  2468  00755C  ECB0  F030         	call	_eeprom_writex	;wreg free
  2469  007560  D7EB               	goto	l3363
  2470  007562                     l3373:
  2471  007562  0E00               	movlw	0
  2472  007564  6E38               	movwf	eeprom_writex@address+1,c
  2473  007566  0E04               	movlw	4
  2474  007568  6E37               	movwf	eeprom_writex@address,c
  2475  00756A  0E03               	movlw	3
  2476  00756C  6E39               	movwf	eeprom_writex@data,c
  2477  00756E  ECB0  F030         	call	_eeprom_writex	;wreg free
  2478  007572  D7E2               	goto	l3363
  2479  007574                     l3377:
  2480  007574  0E00               	movlw	0
  2481  007576  6E38               	movwf	eeprom_writex@address+1,c
  2482  007578  0E04               	movlw	4
  2483  00757A  6E37               	movwf	eeprom_writex@address,c
  2484  00757C  0E04               	movlw	4
  2485  00757E  6E39               	movwf	eeprom_writex@data,c
  2486  007580  ECB0  F030         	call	_eeprom_writex	;wreg free
  2487  007584  D7D9               	goto	l3363
  2488  007586                     l3381:
  2489  007586  0E00               	movlw	0
  2490  007588  6E38               	movwf	eeprom_writex@address+1,c
  2491  00758A  0E04               	movlw	4
  2492  00758C  6E37               	movwf	eeprom_writex@address,c
  2493  00758E  0E05               	movlw	5
  2494  007590  6E39               	movwf	eeprom_writex@data,c
  2495  007592  ECB0  F030         	call	_eeprom_writex	;wreg free
  2496  007596  D7D0               	goto	l3363
  2497  007598                     l3385:
  2498  007598  0E00               	movlw	0
  2499  00759A  6E38               	movwf	eeprom_writex@address+1,c
  2500  00759C  0E04               	movlw	4
  2501  00759E  6E37               	movwf	eeprom_writex@address,c
  2502  0075A0  0E06               	movlw	6
  2503  0075A2  6E39               	movwf	eeprom_writex@data,c
  2504  0075A4  ECB0  F030         	call	_eeprom_writex	;wreg free
  2505  0075A8  D7C7               	goto	l3363
  2506  0075AA                     l3389:
  2507  0075AA  0E00               	movlw	0
  2508  0075AC  6E38               	movwf	eeprom_writex@address+1,c
  2509  0075AE  0E04               	movlw	4
  2510  0075B0  6E37               	movwf	eeprom_writex@address,c
  2511  0075B2  0E07               	movlw	7
  2512  0075B4  6E39               	movwf	eeprom_writex@data,c
  2513  0075B6  ECB0  F030         	call	_eeprom_writex	;wreg free
  2514  0075BA  D7BE               	goto	l3363
  2515  0075BC                     l3393:
  2516  0075BC  0E00               	movlw	0
  2517  0075BE  6E38               	movwf	eeprom_writex@address+1,c
  2518  0075C0  0E04               	movlw	4
  2519  0075C2  6E37               	movwf	eeprom_writex@address,c
  2520  0075C4  0E08               	movlw	8
  2521  0075C6  6E39               	movwf	eeprom_writex@data,c
  2522  0075C8  ECB0  F030         	call	_eeprom_writex	;wreg free
  2523  0075CC  D7B5               	goto	l3363
  2524  0075CE                     l3397:
  2525  0075CE  0E00               	movlw	0
  2526  0075D0  6E38               	movwf	eeprom_writex@address+1,c
  2527  0075D2  0E04               	movlw	4
  2528  0075D4  6E37               	movwf	eeprom_writex@address,c
  2529  0075D6  0E09               	movlw	9
  2530  0075D8  6E39               	movwf	eeprom_writex@data,c
  2531  0075DA  ECB0  F030         	call	_eeprom_writex	;wreg free
  2532  0075DE  D7AC               	goto	l3363
  2533  0075E0                     l3401:
  2534  0075E0  0E00               	movlw	0
  2535  0075E2  6E38               	movwf	eeprom_writex@address+1,c
  2536  0075E4  0E04               	movlw	4
  2537  0075E6  6E37               	movwf	eeprom_writex@address,c
  2538  0075E8  0E0A               	movlw	10
  2539  0075EA  6E39               	movwf	eeprom_writex@data,c
  2540  0075EC  ECB0  F030         	call	_eeprom_writex	;wreg free
  2541  0075F0  D7A3               	goto	l3363
  2542  0075F2                     l3405:
  2543  0075F2  0E00               	movlw	0
  2544  0075F4  6E38               	movwf	eeprom_writex@address+1,c
  2545  0075F6  0E04               	movlw	4
  2546  0075F8  6E37               	movwf	eeprom_writex@address,c
  2547  0075FA  0E0B               	movlw	11
  2548  0075FC  6E39               	movwf	eeprom_writex@data,c
  2549  0075FE  ECB0  F030         	call	_eeprom_writex	;wreg free
  2550  007602  D79A               	goto	l3363
  2551  007604                     l3409:
  2552  007604  0E00               	movlw	0
  2553  007606  6E38               	movwf	eeprom_writex@address+1,c
  2554  007608  0E04               	movlw	4
  2555  00760A  6E37               	movwf	eeprom_writex@address,c
  2556  00760C  0E0C               	movlw	12
  2557  00760E  6E39               	movwf	eeprom_writex@data,c
  2558  007610  ECB0  F030         	call	_eeprom_writex	;wreg free
  2559  007614  D791               	goto	l3363
  2560  007616                     l3413:
  2561  007616  0E00               	movlw	0
  2562  007618  6E38               	movwf	eeprom_writex@address+1,c
  2563  00761A  0E04               	movlw	4
  2564  00761C  6E37               	movwf	eeprom_writex@address,c
  2565  00761E  0E0D               	movlw	13
  2566  007620  6E39               	movwf	eeprom_writex@data,c
  2567  007622  ECB0  F030         	call	_eeprom_writex	;wreg free
  2568  007626  D788               	goto	l3363
  2569  007628                     l3417:
  2570  007628  0E00               	movlw	0
  2571  00762A  6E38               	movwf	eeprom_writex@address+1,c
  2572  00762C  0E04               	movlw	4
  2573  00762E  6E37               	movwf	eeprom_writex@address,c
  2574  007630  0E0E               	movlw	14
  2575  007632  6E39               	movwf	eeprom_writex@data,c
  2576  007634  ECB0  F030         	call	_eeprom_writex	;wreg free
  2577  007638  D77F               	goto	l3363
  2578  00763A                     l3421:
  2579  00763A  0E00               	movlw	0
  2580  00763C  6E38               	movwf	eeprom_writex@address+1,c
  2581  00763E  0E04               	movlw	4
  2582  007640  6E37               	movwf	eeprom_writex@address,c
  2583  007642  0E0F               	movlw	15
  2584  007644  6E39               	movwf	eeprom_writex@data,c
  2585  007646  ECB0  F030         	call	_eeprom_writex	;wreg free
  2586  00764A  D776               	goto	l3363
  2587  00764C                     l3425:
  2588  00764C  0E00               	movlw	0
  2589  00764E  6E28               	movwf	_Count_Push_Button+1,c
  2590  007650  0E00               	movlw	0
  2591  007652  6E27               	movwf	_Count_Push_Button,c
  2592  007654  D03A               	goto	l442
  2593  007656                     l3429:
  2594  007656  C027  F03A         	movff	_Count_Push_Button,??_Menu_P4
  2595  00765A  C028  F03B         	movff	_Count_Push_Button+1,??_Menu_P4+1
  2596                           
  2597                           ; Switch on 2 bytes has been partitioned into a top level switch of size 1, and 1 sub-sw
      +                          itches
  2598                           ; Switch size 1, requested type "simple"
  2599                           ; Number of cases is 1, Range of values is 0 to 0
  2600                           ; switch strategies available:
  2601                           ; Name         Instructions Cycles
  2602                           ; simple_byte            4     3 (average)
  2603                           ;	Chosen strategy is simple_byte
  2604  00765E  503B               	movf	??_Menu_P4+1,w,c
  2605  007660  0A00               	xorlw	0	; case 0
  2606  007662  A4D8               	btfss	status,2,c
  2607  007664  D7F3               	goto	l3425
  2608                           
  2609                           ; Switch size 1, requested type "simple"
  2610                           ; Number of cases is 16, Range of values is 0 to 15
  2611                           ; switch strategies available:
  2612                           ; Name         Instructions Cycles
  2613                           ; simple_byte           49    25 (average)
  2614                           ;	Chosen strategy is simple_byte
  2615  007666  503A               	movf	??_Menu_P4,w,c
  2616  007668  0A00               	xorlw	0	; case 0
  2617  00766A  B4D8               	btfsc	status,2,c
  2618  00766C  D75D               	goto	l3361
  2619  00766E  0A01               	xorlw	1	; case 1
  2620  007670  B4D8               	btfsc	status,2,c
  2621  007672  D765               	goto	l3365
  2622  007674  0A03               	xorlw	3	; case 2
  2623  007676  B4D8               	btfsc	status,2,c
  2624  007678  D76B               	goto	l3369
  2625  00767A  0A01               	xorlw	1	; case 3
  2626  00767C  B4D8               	btfsc	status,2,c
  2627  00767E  D771               	goto	l3373
  2628  007680  0A07               	xorlw	7	; case 4
  2629  007682  B4D8               	btfsc	status,2,c
  2630  007684  D777               	goto	l3377
  2631  007686  0A01               	xorlw	1	; case 5
  2632  007688  B4D8               	btfsc	status,2,c
  2633  00768A  D77D               	goto	l3381
  2634  00768C  0A03               	xorlw	3	; case 6
  2635  00768E  B4D8               	btfsc	status,2,c
  2636  007690  D783               	goto	l3385
  2637  007692  0A01               	xorlw	1	; case 7
  2638  007694  B4D8               	btfsc	status,2,c
  2639  007696  D789               	goto	l3389
  2640  007698  0A0F               	xorlw	15	; case 8
  2641  00769A  B4D8               	btfsc	status,2,c
  2642  00769C  D78F               	goto	l3393
  2643  00769E  0A01               	xorlw	1	; case 9
  2644  0076A0  B4D8               	btfsc	status,2,c
  2645  0076A2  D795               	goto	l3397
  2646  0076A4  0A03               	xorlw	3	; case 10
  2647  0076A6  B4D8               	btfsc	status,2,c
  2648  0076A8  D79B               	goto	l3401
  2649  0076AA  0A01               	xorlw	1	; case 11
  2650  0076AC  B4D8               	btfsc	status,2,c
  2651  0076AE  D7A1               	goto	l3405
  2652  0076B0  0A07               	xorlw	7	; case 12
  2653  0076B2  B4D8               	btfsc	status,2,c
  2654  0076B4  D7A7               	goto	l3409
  2655  0076B6  0A01               	xorlw	1	; case 13
  2656  0076B8  B4D8               	btfsc	status,2,c
  2657  0076BA  D7AD               	goto	l3413
  2658  0076BC  0A03               	xorlw	3	; case 14
  2659  0076BE  B4D8               	btfsc	status,2,c
  2660  0076C0  D7B3               	goto	l3417
  2661  0076C2  0A01               	xorlw	1	; case 15
  2662  0076C4  B4D8               	btfsc	status,2,c
  2663  0076C6  D7B9               	goto	l3421
  2664  0076C8  D7C1               	goto	l3425
  2665  0076CA                     l442:
  2666                           
  2667                           ;main.c: 690:         Last_Button_Menu_Up_State = Button_Menu_Up_State;
  2668  0076CA  C033  F054         	movff	_Button_Menu_Up_State,_Last_Button_Menu_Up_State
  2669                           
  2670                           ;main.c: 691:         Exit_Time_Menu();
  2671  0076CE  ECDF  F033         	call	_Exit_Time_Menu	;wreg free
  2672                           
  2673                           ;main.c: 692:     } while (Flag_Menu == 1);
  2674  0076D2  042F               	decf	_Flag_Menu,w,c
  2675  0076D4  A4D8               	btfss	status,2,c
  2676  0076D6  0012               	return	
  2677  0076D8  D6C0               	goto	l3339
  2678  0076DA                     __end_of_Menu_P4:
  2679                           	opt callstack 0
  2680                           
  2681 ;; *************** function _Menu_P3 *****************
  2682 ;; Defined at:
  2683 ;;		line 575 in file "main.c"
  2684 ;; Parameters:    Size  Location     Type
  2685 ;;		None
  2686 ;; Auto vars:     Size  Location     Type
  2687 ;;		None
  2688 ;; Return value:  Size  Location     Type
  2689 ;;                  1    wreg      void 
  2690 ;; Registers used:
  2691 ;;		wreg, status,2, status,0, cstack
  2692 ;; Tracked objects:
  2693 ;;		On entry : 0/0
  2694 ;;		On exit  : 0/0
  2695 ;;		Unchanged: 0/0
  2696 ;; Data sizes:     COMRAM   BANK0   BANK1   BANK2   BANK3   BANK4   BANK5   BANK6   BANK7
  2697 ;;      Params:         0       0       0       0       0       0       0       0       0
  2698 ;;      Locals:         0       0       0       0       0       0       0       0       0
  2699 ;;      Temps:          2       0       0       0       0       0       0       0       0
  2700 ;;      Totals:         2       0       0       0       0       0       0       0       0
  2701 ;;Total ram usage:        2 bytes
  2702 ;; Hardware stack levels used:    1
  2703 ;; Hardware stack levels required when called:    2
  2704 ;; This function calls:
  2705 ;;		_Draw_10
  2706 ;;		_Draw_12
  2707 ;;		_Draw_14
  2708 ;;		_Draw_16
  2709 ;;		_Draw_18
  2710 ;;		_Draw_2
  2711 ;;		_Draw_20
  2712 ;;		_Draw_22
  2713 ;;		_Draw_24
  2714 ;;		_Draw_26
  2715 ;;		_Draw_28
  2716 ;;		_Draw_30
  2717 ;;		_Draw_4
  2718 ;;		_Draw_6
  2719 ;;		_Draw_8
  2720 ;;		_Exit_Time_Menu
  2721 ;;		_Recording
  2722 ;;		_eeprom_writex
  2723 ;; This function is called by:
  2724 ;;		_Menu
  2725 ;; This function uses a non-reentrant model
  2726 ;;
  2727                           
  2728                           	psect	text6
  2729  006E3A                     __ptext6:
  2730                           	opt callstack 0
  2731  006E3A                     _Menu_P3:
  2732                           	opt callstack 26
  2733                           
  2734                           ;main.c: 577:         switch (Count_Push_Button)
  2735                           
  2736                           ;incstack = 0
  2737                           ;main.c: 576:     do {
  2738  006E3A  D032               	goto	l3203
  2739  006E3C                     l3169:
  2740  006E3C  EC44  F031         	call	_Draw_2	;wreg free
  2741  006E40  D066               	goto	l3205
  2742  006E42                     l3171:
  2743  006E42  EC74  F031         	call	_Draw_4	;wreg free
  2744  006E46  D063               	goto	l3205
  2745  006E48                     l3173:
  2746  006E48  ECA4  F031         	call	_Draw_6	;wreg free
  2747  006E4C  D060               	goto	l3205
  2748  006E4E                     l3175:
  2749  006E4E  ECD4  F031         	call	_Draw_8	;wreg free
  2750  006E52  D05D               	goto	l3205
  2751  006E54                     l3177:
  2752  006E54  EC81  F032         	call	_Draw_10	;wreg free
  2753  006E58  D05A               	goto	l3205
  2754  006E5A                     l3179:
  2755  006E5A  ECB3  F032         	call	_Draw_12	;wreg free
  2756  006E5E  D057               	goto	l3205
  2757  006E60                     l3181:
  2758  006E60  ECE5  F032         	call	_Draw_14	;wreg free
  2759  006E64  D054               	goto	l3205
  2760  006E66                     l3183:
  2761  006E66  EC17  F033         	call	_Draw_16	;wreg free
  2762  006E6A  D051               	goto	l3205
  2763  006E6C                     l3185:
  2764  006E6C  EC30  F033         	call	_Draw_18	;wreg free
  2765  006E70  D04E               	goto	l3205
  2766  006E72                     l3187:
  2767  006E72  EC49  F033         	call	_Draw_20	;wreg free
  2768  006E76  D04B               	goto	l3205
  2769  006E78                     l3189:
  2770  006E78  EC62  F033         	call	_Draw_22	;wreg free
  2771  006E7C  D048               	goto	l3205
  2772  006E7E                     l3191:
  2773  006E7E  EC7B  F033         	call	_Draw_24	;wreg free
  2774  006E82  D045               	goto	l3205
  2775  006E84                     l3193:
  2776  006E84  EC94  F033         	call	_Draw_26	;wreg free
  2777  006E88  D042               	goto	l3205
  2778  006E8A                     l3195:
  2779  006E8A  ECAD  F033         	call	_Draw_28	;wreg free
  2780  006E8E  D03F               	goto	l3205
  2781  006E90                     l3197:
  2782  006E90  ECC6  F033         	call	_Draw_30	;wreg free
  2783  006E94  D03C               	goto	l3205
  2784  006E96                     l3199:
  2785  006E96  0E00               	movlw	0
  2786  006E98  6E28               	movwf	_Count_Push_Button+1,c
  2787  006E9A  0E01               	movlw	1
  2788  006E9C  6E27               	movwf	_Count_Push_Button,c
  2789  006E9E  D037               	goto	l3205
  2790  006EA0                     l3203:
  2791  006EA0  C027  F03A         	movff	_Count_Push_Button,??_Menu_P3
  2792  006EA4  C028  F03B         	movff	_Count_Push_Button+1,??_Menu_P3+1
  2793                           
  2794                           ; Switch on 2 bytes has been partitioned into a top level switch of size 1, and 1 sub-sw
      +                          itches
  2795                           ; Switch size 1, requested type "simple"
  2796                           ; Number of cases is 1, Range of values is 0 to 0
  2797                           ; switch strategies available:
  2798                           ; Name         Instructions Cycles
  2799                           ; simple_byte            4     3 (average)
  2800                           ;	Chosen strategy is simple_byte
  2801  006EA8  503B               	movf	??_Menu_P3+1,w,c
  2802  006EAA  0A00               	xorlw	0	; case 0
  2803  006EAC  A4D8               	btfss	status,2,c
  2804  006EAE  D7F3               	goto	l3199
  2805                           
  2806                           ; Switch size 1, requested type "simple"
  2807                           ; Number of cases is 15, Range of values is 1 to 15
  2808                           ; switch strategies available:
  2809                           ; Name         Instructions Cycles
  2810                           ; simple_byte           46    24 (average)
  2811                           ;	Chosen strategy is simple_byte
  2812  006EB0  503A               	movf	??_Menu_P3,w,c
  2813  006EB2  0A01               	xorlw	1	; case 1
  2814  006EB4  B4D8               	btfsc	status,2,c
  2815  006EB6  D7C2               	goto	l3169
  2816  006EB8  0A03               	xorlw	3	; case 2
  2817  006EBA  B4D8               	btfsc	status,2,c
  2818  006EBC  D7C2               	goto	l3171
  2819  006EBE  0A01               	xorlw	1	; case 3
  2820  006EC0  B4D8               	btfsc	status,2,c
  2821  006EC2  D7C2               	goto	l3173
  2822  006EC4  0A07               	xorlw	7	; case 4
  2823  006EC6  B4D8               	btfsc	status,2,c
  2824  006EC8  D7C2               	goto	l3175
  2825  006ECA  0A01               	xorlw	1	; case 5
  2826  006ECC  B4D8               	btfsc	status,2,c
  2827  006ECE  D7C2               	goto	l3177
  2828  006ED0  0A03               	xorlw	3	; case 6
  2829  006ED2  B4D8               	btfsc	status,2,c
  2830  006ED4  D7C2               	goto	l3179
  2831  006ED6  0A01               	xorlw	1	; case 7
  2832  006ED8  B4D8               	btfsc	status,2,c
  2833  006EDA  D7C2               	goto	l3181
  2834  006EDC  0A0F               	xorlw	15	; case 8
  2835  006EDE  B4D8               	btfsc	status,2,c
  2836  006EE0  D7C2               	goto	l3183
  2837  006EE2  0A01               	xorlw	1	; case 9
  2838  006EE4  B4D8               	btfsc	status,2,c
  2839  006EE6  D7C2               	goto	l3185
  2840  006EE8  0A03               	xorlw	3	; case 10
  2841  006EEA  B4D8               	btfsc	status,2,c
  2842  006EEC  D7C2               	goto	l3187
  2843  006EEE  0A01               	xorlw	1	; case 11
  2844  006EF0  B4D8               	btfsc	status,2,c
  2845  006EF2  D7C2               	goto	l3189
  2846  006EF4  0A07               	xorlw	7	; case 12
  2847  006EF6  B4D8               	btfsc	status,2,c
  2848  006EF8  D7C2               	goto	l3191
  2849  006EFA  0A01               	xorlw	1	; case 13
  2850  006EFC  B4D8               	btfsc	status,2,c
  2851  006EFE  D7C2               	goto	l3193
  2852  006F00  0A03               	xorlw	3	; case 14
  2853  006F02  B4D8               	btfsc	status,2,c
  2854  006F04  D7C2               	goto	l3195
  2855  006F06  0A01               	xorlw	1	; case 15
  2856  006F08  B4D8               	btfsc	status,2,c
  2857  006F0A  D7C2               	goto	l3197
  2858  006F0C  D7C4               	goto	l3199
  2859  006F0E                     l3205:
  2860                           
  2861                           ;main.c: 598:         Button_Menu_Down_State = PORTAbits.RA2;
  2862  006F0E  A480               	btfss	3968,2,c	;volatile
  2863  006F10  D002               	goto	u1120
  2864  006F12  0E01               	movlw	1
  2865  006F14  D001               	goto	u1126
  2866  006F16                     u1120:
  2867  006F16  0E00               	movlw	0
  2868  006F18                     u1126:
  2869  006F18  6E32               	movwf	_Button_Menu_Down_State,c
  2870                           
  2871                           ;main.c: 599:         if (Button_Menu_Down_State == 0 && Last_Button_Menu_Down_State == 
      +                          1) {
  2872  006F1A  5032               	movf	_Button_Menu_Down_State,w,c
  2873  006F1C  A4D8               	btfss	status,2,c
  2874  006F1E  D00D               	goto	l3213
  2875  006F20  0453               	decf	_Last_Button_Menu_Down_State,w,c
  2876  006F22  A4D8               	btfss	status,2,c
  2877  006F24  D00A               	goto	l3213
  2878                           
  2879                           ;main.c: 600:             Count_Push_Button++;
  2880  006F26  4A27               	infsnz	_Count_Push_Button,f,c
  2881  006F28  2A28               	incf	_Count_Push_Button+1,f,c
  2882                           
  2883                           ;main.c: 601:             Count_Exit_Menu = 0;
  2884  006F2A  0E00               	movlw	0
  2885  006F2C  6E11               	movwf	_Count_Exit_Menu,c
  2886  006F2E  0E00               	movlw	0
  2887  006F30  6E12               	movwf	_Count_Exit_Menu+1,c
  2888  006F32  0E00               	movlw	0
  2889  006F34  6E13               	movwf	_Count_Exit_Menu+2,c
  2890  006F36  0E00               	movlw	0
  2891  006F38  6E14               	movwf	_Count_Exit_Menu+3,c
  2892  006F3A                     l3213:
  2893                           
  2894                           ;main.c: 603:         Last_Button_Menu_Down_State = Button_Menu_Down_State;
  2895  006F3A  C032  F053         	movff	_Button_Menu_Down_State,_Last_Button_Menu_Down_State
  2896                           
  2897                           ;main.c: 606:         Button_Menu_Up_State = PORTAbits.RA1;
  2898  006F3E  A280               	btfss	3968,1,c	;volatile
  2899  006F40  D002               	goto	u1150
  2900  006F42  0E01               	movlw	1
  2901  006F44  D001               	goto	u1156
  2902  006F46                     u1150:
  2903  006F46  0E00               	movlw	0
  2904  006F48                     u1156:
  2905  006F48  6E33               	movwf	_Button_Menu_Up_State,c
  2906                           
  2907                           ;main.c: 607:         Count_Exit_Menu = 0;
  2908  006F4A  0E00               	movlw	0
  2909  006F4C  6E11               	movwf	_Count_Exit_Menu,c
  2910  006F4E  0E00               	movlw	0
  2911  006F50  6E12               	movwf	_Count_Exit_Menu+1,c
  2912  006F52  0E00               	movlw	0
  2913  006F54  6E13               	movwf	_Count_Exit_Menu+2,c
  2914  006F56  0E00               	movlw	0
  2915  006F58  6E14               	movwf	_Count_Exit_Menu+3,c
  2916                           
  2917                           ;main.c: 608:         if (Button_Menu_Up_State == 0 && Last_Button_Menu_Up_State == 1) {
  2918  006F5A  5033               	movf	_Button_Menu_Up_State,w,c
  2919  006F5C  A4D8               	btfss	status,2,c
  2920  006F5E  D0C9               	goto	l398
  2921  006F60  0454               	decf	_Last_Button_Menu_Up_State,w,c
  2922  006F62  B4D8               	btfsc	status,2,c
  2923  006F64  D08F               	goto	l3289
  2924  006F66  D0C5               	goto	l398
  2925  006F68                     l3225:
  2926  006F68  0E00               	movlw	0
  2927  006F6A  6E38               	movwf	eeprom_writex@address+1,c
  2928  006F6C  0E03               	movlw	3
  2929  006F6E  6E37               	movwf	eeprom_writex@address,c
  2930  006F70  0E01               	movlw	1
  2931  006F72  6E39               	movwf	eeprom_writex@data,c
  2932  006F74  ECB0  F030         	call	_eeprom_writex	;wreg free
  2933  006F78                     l3227:
  2934  006F78  ECBF  F034         	call	_Recording	;wreg free
  2935  006F7C  D0BA               	goto	l398
  2936  006F7E                     l3229:
  2937  006F7E  0E00               	movlw	0
  2938  006F80  6E38               	movwf	eeprom_writex@address+1,c
  2939  006F82  0E03               	movlw	3
  2940  006F84  6E37               	movwf	eeprom_writex@address,c
  2941  006F86  0E02               	movlw	2
  2942  006F88  6E39               	movwf	eeprom_writex@data,c
  2943  006F8A  ECB0  F030         	call	_eeprom_writex	;wreg free
  2944  006F8E  D7F4               	goto	l3227
  2945  006F90                     l3233:
  2946  006F90  0E00               	movlw	0
  2947  006F92  6E38               	movwf	eeprom_writex@address+1,c
  2948  006F94  0E03               	movlw	3
  2949  006F96  6E37               	movwf	eeprom_writex@address,c
  2950  006F98  0E03               	movlw	3
  2951  006F9A  6E39               	movwf	eeprom_writex@data,c
  2952  006F9C  ECB0  F030         	call	_eeprom_writex	;wreg free
  2953  006FA0  D7EB               	goto	l3227
  2954  006FA2                     l3237:
  2955  006FA2  0E00               	movlw	0
  2956  006FA4  6E38               	movwf	eeprom_writex@address+1,c
  2957  006FA6  0E03               	movlw	3
  2958  006FA8  6E37               	movwf	eeprom_writex@address,c
  2959  006FAA  0E04               	movlw	4
  2960  006FAC  6E39               	movwf	eeprom_writex@data,c
  2961  006FAE  ECB0  F030         	call	_eeprom_writex	;wreg free
  2962  006FB2  D7E2               	goto	l3227
  2963  006FB4                     l3241:
  2964  006FB4  0E00               	movlw	0
  2965  006FB6  6E38               	movwf	eeprom_writex@address+1,c
  2966  006FB8  0E03               	movlw	3
  2967  006FBA  6E37               	movwf	eeprom_writex@address,c
  2968  006FBC  0E05               	movlw	5
  2969  006FBE  6E39               	movwf	eeprom_writex@data,c
  2970  006FC0  ECB0  F030         	call	_eeprom_writex	;wreg free
  2971  006FC4  D7D9               	goto	l3227
  2972  006FC6                     l3245:
  2973  006FC6  0E00               	movlw	0
  2974  006FC8  6E38               	movwf	eeprom_writex@address+1,c
  2975  006FCA  0E03               	movlw	3
  2976  006FCC  6E37               	movwf	eeprom_writex@address,c
  2977  006FCE  0E06               	movlw	6
  2978  006FD0  6E39               	movwf	eeprom_writex@data,c
  2979  006FD2  ECB0  F030         	call	_eeprom_writex	;wreg free
  2980  006FD6  D7D0               	goto	l3227
  2981  006FD8                     l3249:
  2982  006FD8  0E00               	movlw	0
  2983  006FDA  6E38               	movwf	eeprom_writex@address+1,c
  2984  006FDC  0E03               	movlw	3
  2985  006FDE  6E37               	movwf	eeprom_writex@address,c
  2986  006FE0  0E07               	movlw	7
  2987  006FE2  6E39               	movwf	eeprom_writex@data,c
  2988  006FE4  ECB0  F030         	call	_eeprom_writex	;wreg free
  2989  006FE8  D7C7               	goto	l3227
  2990  006FEA                     l3253:
  2991  006FEA  0E00               	movlw	0
  2992  006FEC  6E38               	movwf	eeprom_writex@address+1,c
  2993  006FEE  0E03               	movlw	3
  2994  006FF0  6E37               	movwf	eeprom_writex@address,c
  2995  006FF2  0E08               	movlw	8
  2996  006FF4  6E39               	movwf	eeprom_writex@data,c
  2997  006FF6  ECB0  F030         	call	_eeprom_writex	;wreg free
  2998  006FFA  D7BE               	goto	l3227
  2999  006FFC                     l3257:
  3000  006FFC  0E00               	movlw	0
  3001  006FFE  6E38               	movwf	eeprom_writex@address+1,c
  3002  007000  0E03               	movlw	3
  3003  007002  6E37               	movwf	eeprom_writex@address,c
  3004  007004  0E09               	movlw	9
  3005  007006  6E39               	movwf	eeprom_writex@data,c
  3006  007008  ECB0  F030         	call	_eeprom_writex	;wreg free
  3007  00700C  D7B5               	goto	l3227
  3008  00700E                     l3261:
  3009  00700E  0E00               	movlw	0
  3010  007010  6E38               	movwf	eeprom_writex@address+1,c
  3011  007012  0E03               	movlw	3
  3012  007014  6E37               	movwf	eeprom_writex@address,c
  3013  007016  0E0A               	movlw	10
  3014  007018  6E39               	movwf	eeprom_writex@data,c
  3015  00701A  ECB0  F030         	call	_eeprom_writex	;wreg free
  3016  00701E  D7AC               	goto	l3227
  3017  007020                     l3265:
  3018  007020  0E00               	movlw	0
  3019  007022  6E38               	movwf	eeprom_writex@address+1,c
  3020  007024  0E03               	movlw	3
  3021  007026  6E37               	movwf	eeprom_writex@address,c
  3022  007028  0E0B               	movlw	11
  3023  00702A  6E39               	movwf	eeprom_writex@data,c
  3024  00702C  ECB0  F030         	call	_eeprom_writex	;wreg free
  3025  007030  D7A3               	goto	l3227
  3026  007032                     l3269:
  3027  007032  0E00               	movlw	0
  3028  007034  6E38               	movwf	eeprom_writex@address+1,c
  3029  007036  0E03               	movlw	3
  3030  007038  6E37               	movwf	eeprom_writex@address,c
  3031  00703A  0E0C               	movlw	12
  3032  00703C  6E39               	movwf	eeprom_writex@data,c
  3033  00703E  ECB0  F030         	call	_eeprom_writex	;wreg free
  3034  007042  D79A               	goto	l3227
  3035  007044                     l3273:
  3036  007044  0E00               	movlw	0
  3037  007046  6E38               	movwf	eeprom_writex@address+1,c
  3038  007048  0E03               	movlw	3
  3039  00704A  6E37               	movwf	eeprom_writex@address,c
  3040  00704C  0E0D               	movlw	13
  3041  00704E  6E39               	movwf	eeprom_writex@data,c
  3042  007050  ECB0  F030         	call	_eeprom_writex	;wreg free
  3043  007054  D791               	goto	l3227
  3044  007056                     l3277:
  3045  007056  0E00               	movlw	0
  3046  007058  6E38               	movwf	eeprom_writex@address+1,c
  3047  00705A  0E03               	movlw	3
  3048  00705C  6E37               	movwf	eeprom_writex@address,c
  3049  00705E  0E0E               	movlw	14
  3050  007060  6E39               	movwf	eeprom_writex@data,c
  3051  007062  ECB0  F030         	call	_eeprom_writex	;wreg free
  3052  007066  D788               	goto	l3227
  3053  007068                     l3281:
  3054  007068  0E00               	movlw	0
  3055  00706A  6E38               	movwf	eeprom_writex@address+1,c
  3056  00706C  0E03               	movlw	3
  3057  00706E  6E37               	movwf	eeprom_writex@address,c
  3058  007070  0E0F               	movlw	15
  3059  007072  6E39               	movwf	eeprom_writex@data,c
  3060  007074  ECB0  F030         	call	_eeprom_writex	;wreg free
  3061  007078  D77F               	goto	l3227
  3062  00707A                     l3285:
  3063  00707A  0E00               	movlw	0
  3064  00707C  6E28               	movwf	_Count_Push_Button+1,c
  3065  00707E  0E01               	movlw	1
  3066  007080  6E27               	movwf	_Count_Push_Button,c
  3067  007082  D037               	goto	l398
  3068  007084                     l3289:
  3069  007084  C027  F03A         	movff	_Count_Push_Button,??_Menu_P3
  3070  007088  C028  F03B         	movff	_Count_Push_Button+1,??_Menu_P3+1
  3071                           
  3072                           ; Switch on 2 bytes has been partitioned into a top level switch of size 1, and 1 sub-sw
      +                          itches
  3073                           ; Switch size 1, requested type "simple"
  3074                           ; Number of cases is 1, Range of values is 0 to 0
  3075                           ; switch strategies available:
  3076                           ; Name         Instructions Cycles
  3077                           ; simple_byte            4     3 (average)
  3078                           ;	Chosen strategy is simple_byte
  3079  00708C  503B               	movf	??_Menu_P3+1,w,c
  3080  00708E  0A00               	xorlw	0	; case 0
  3081  007090  A4D8               	btfss	status,2,c
  3082  007092  D7F3               	goto	l3285
  3083                           
  3084                           ; Switch size 1, requested type "simple"
  3085                           ; Number of cases is 15, Range of values is 1 to 15
  3086                           ; switch strategies available:
  3087                           ; Name         Instructions Cycles
  3088                           ; simple_byte           46    24 (average)
  3089                           ;	Chosen strategy is simple_byte
  3090  007094  503A               	movf	??_Menu_P3,w,c
  3091  007096  0A01               	xorlw	1	; case 1
  3092  007098  B4D8               	btfsc	status,2,c
  3093  00709A  D766               	goto	l3225
  3094  00709C  0A03               	xorlw	3	; case 2
  3095  00709E  B4D8               	btfsc	status,2,c
  3096  0070A0  D76E               	goto	l3229
  3097  0070A2  0A01               	xorlw	1	; case 3
  3098  0070A4  B4D8               	btfsc	status,2,c
  3099  0070A6  D774               	goto	l3233
  3100  0070A8  0A07               	xorlw	7	; case 4
  3101  0070AA  B4D8               	btfsc	status,2,c
  3102  0070AC  D77A               	goto	l3237
  3103  0070AE  0A01               	xorlw	1	; case 5
  3104  0070B0  B4D8               	btfsc	status,2,c
  3105  0070B2  D780               	goto	l3241
  3106  0070B4  0A03               	xorlw	3	; case 6
  3107  0070B6  B4D8               	btfsc	status,2,c
  3108  0070B8  D786               	goto	l3245
  3109  0070BA  0A01               	xorlw	1	; case 7
  3110  0070BC  B4D8               	btfsc	status,2,c
  3111  0070BE  D78C               	goto	l3249
  3112  0070C0  0A0F               	xorlw	15	; case 8
  3113  0070C2  B4D8               	btfsc	status,2,c
  3114  0070C4  D792               	goto	l3253
  3115  0070C6  0A01               	xorlw	1	; case 9
  3116  0070C8  B4D8               	btfsc	status,2,c
  3117  0070CA  D798               	goto	l3257
  3118  0070CC  0A03               	xorlw	3	; case 10
  3119  0070CE  B4D8               	btfsc	status,2,c
  3120  0070D0  D79E               	goto	l3261
  3121  0070D2  0A01               	xorlw	1	; case 11
  3122  0070D4  B4D8               	btfsc	status,2,c
  3123  0070D6  D7A4               	goto	l3265
  3124  0070D8  0A07               	xorlw	7	; case 12
  3125  0070DA  B4D8               	btfsc	status,2,c
  3126  0070DC  D7AA               	goto	l3269
  3127  0070DE  0A01               	xorlw	1	; case 13
  3128  0070E0  B4D8               	btfsc	status,2,c
  3129  0070E2  D7B0               	goto	l3273
  3130  0070E4  0A03               	xorlw	3	; case 14
  3131  0070E6  B4D8               	btfsc	status,2,c
  3132  0070E8  D7B6               	goto	l3277
  3133  0070EA  0A01               	xorlw	1	; case 15
  3134  0070EC  B4D8               	btfsc	status,2,c
  3135  0070EE  D7BC               	goto	l3281
  3136  0070F0  D7C4               	goto	l3285
  3137  0070F2                     l398:
  3138                           
  3139                           ;main.c: 630:         Last_Button_Menu_Up_State = Button_Menu_Up_State;
  3140  0070F2  C033  F054         	movff	_Button_Menu_Up_State,_Last_Button_Menu_Up_State
  3141                           
  3142                           ;main.c: 631:         Exit_Time_Menu();
  3143  0070F6  ECDF  F033         	call	_Exit_Time_Menu	;wreg free
  3144                           
  3145                           ;main.c: 632:     } while (Flag_Menu == 1);
  3146  0070FA  042F               	decf	_Flag_Menu,w,c
  3147  0070FC  A4D8               	btfss	status,2,c
  3148  0070FE  0012               	return	
  3149  007100  D6CF               	goto	l3203
  3150  007102                     __end_of_Menu_P3:
  3151                           	opt callstack 0
  3152                           
  3153 ;; *************** function _Draw_30 *****************
  3154 ;; Defined at:
  3155 ;;		line 1009 in file "main.c"
  3156 ;; Parameters:    Size  Location     Type
  3157 ;;		None
  3158 ;; Auto vars:     Size  Location     Type
  3159 ;;		None
  3160 ;; Return value:  Size  Location     Type
  3161 ;;                  1    wreg      void 
  3162 ;; Registers used:
  3163 ;;		wreg, status,2
  3164 ;; Tracked objects:
  3165 ;;		On entry : 0/0
  3166 ;;		On exit  : 0/0
  3167 ;;		Unchanged: 0/0
  3168 ;; Data sizes:     COMRAM   BANK0   BANK1   BANK2   BANK3   BANK4   BANK5   BANK6   BANK7
  3169 ;;      Params:         0       0       0       0       0       0       0       0       0
  3170 ;;      Locals:         0       0       0       0       0       0       0       0       0
  3171 ;;      Temps:          1       0       0       0       0       0       0       0       0
  3172 ;;      Totals:         1       0       0       0       0       0       0       0       0
  3173 ;;Total ram usage:        1 bytes
  3174 ;; Hardware stack levels used:    1
  3175 ;; This function calls:
  3176 ;;		Nothing
  3177 ;; This function is called by:
  3178 ;;		_Menu_P3
  3179 ;; This function uses a non-reentrant model
  3180 ;;
  3181                           
  3182                           	psect	text7
  3183  00678C                     __ptext7:
  3184                           	opt callstack 0
  3185  00678C                     _Draw_30:
  3186                           	opt callstack 27
  3187                           
  3188                           ;main.c: 1010:     PORTB = 0x64;
  3189                           
  3190                           ;incstack = 0
  3191  00678C  0E64               	movlw	100
  3192  00678E  6E81               	movwf	3969,c	;volatile
  3193                           
  3194                           ;main.c: 1011:     PORTCbits.RC7 = 1;
  3195  006790  8E82               	bsf	3970,7,c	;volatile
  3196                           
  3197                           ;main.c: 1012:     _delay((unsigned long)((1600)*(20000000/4000000.0)));
  3198  006792  0E0B               	movlw	11
  3199  006794  6E37               	movwf	??_Draw_30& (0+255),c
  3200  006796  0E62               	movlw	98
  3201  006798                     u2137:
  3202  006798  2EE8               	decfsz	wreg,f,c
  3203  00679A  D7FE               	bra	u2137
  3204  00679C  2E37               	decfsz	??_Draw_30& (0+255),f,c
  3205  00679E  D7FC               	bra	u2137
  3206  0067A0  D000               	nop2	
  3207                           
  3208                           ;main.c: 1013:     PORTCbits.RC7 = 0;
  3209  0067A2  9E82               	bcf	3970,7,c	;volatile
  3210                           
  3211                           ;main.c: 1014:     PORTB = 0x28;
  3212  0067A4  0E28               	movlw	40
  3213  0067A6  6E81               	movwf	3969,c	;volatile
  3214                           
  3215                           ;main.c: 1015:     PORTCbits.RC6 = 1;
  3216  0067A8  8C82               	bsf	3970,6,c	;volatile
  3217                           
  3218                           ;main.c: 1016:     _delay((unsigned long)((1600)*(20000000/4000000.0)));
  3219  0067AA  0E0B               	movlw	11
  3220  0067AC  6E37               	movwf	??_Draw_30& (0+255),c
  3221  0067AE  0E62               	movlw	98
  3222  0067B0                     u2147:
  3223  0067B0  2EE8               	decfsz	wreg,f,c
  3224  0067B2  D7FE               	bra	u2147
  3225  0067B4  2E37               	decfsz	??_Draw_30& (0+255),f,c
  3226  0067B6  D7FC               	bra	u2147
  3227  0067B8  D000               	nop2	
  3228                           
  3229                           ;main.c: 1017:     PORTCbits.RC6 = 0;
  3230  0067BA  9C82               	bcf	3970,6,c	;volatile
  3231  0067BC  0012               	return		;funcret
  3232  0067BE                     __end_of_Draw_30:
  3233                           	opt callstack 0
  3234                           
  3235 ;; *************** function _Draw_28 *****************
  3236 ;; Defined at:
  3237 ;;		line 998 in file "main.c"
  3238 ;; Parameters:    Size  Location     Type
  3239 ;;		None
  3240 ;; Auto vars:     Size  Location     Type
  3241 ;;		None
  3242 ;; Return value:  Size  Location     Type
  3243 ;;                  1    wreg      void 
  3244 ;; Registers used:
  3245 ;;		wreg, status,2
  3246 ;; Tracked objects:
  3247 ;;		On entry : 0/0
  3248 ;;		On exit  : 0/0
  3249 ;;		Unchanged: 0/0
  3250 ;; Data sizes:     COMRAM   BANK0   BANK1   BANK2   BANK3   BANK4   BANK5   BANK6   BANK7
  3251 ;;      Params:         0       0       0       0       0       0       0       0       0
  3252 ;;      Locals:         0       0       0       0       0       0       0       0       0
  3253 ;;      Temps:          1       0       0       0       0       0       0       0       0
  3254 ;;      Totals:         1       0       0       0       0       0       0       0       0
  3255 ;;Total ram usage:        1 bytes
  3256 ;; Hardware stack levels used:    1
  3257 ;; This function calls:
  3258 ;;		Nothing
  3259 ;; This function is called by:
  3260 ;;		_Menu_P3
  3261 ;; This function uses a non-reentrant model
  3262 ;;
  3263                           
  3264                           	psect	text8
  3265  00675A                     __ptext8:
  3266                           	opt callstack 0
  3267  00675A                     _Draw_28:
  3268                           	opt callstack 27
  3269                           
  3270                           ;main.c: 999:     PORTB = 0xA4;
  3271                           
  3272                           ;incstack = 0
  3273  00675A  0EA4               	movlw	164
  3274  00675C  6E81               	movwf	3969,c	;volatile
  3275                           
  3276                           ;main.c: 1000:     PORTCbits.RC7 = 1;
  3277  00675E  8E82               	bsf	3970,7,c	;volatile
  3278                           
  3279                           ;main.c: 1001:     _delay((unsigned long)((1600)*(20000000/4000000.0)));
  3280  006760  0E0B               	movlw	11
  3281  006762  6E37               	movwf	??_Draw_28& (0+255),c
  3282  006764  0E62               	movlw	98
  3283  006766                     u2157:
  3284  006766  2EE8               	decfsz	wreg,f,c
  3285  006768  D7FE               	bra	u2157
  3286  00676A  2E37               	decfsz	??_Draw_28& (0+255),f,c
  3287  00676C  D7FC               	bra	u2157
  3288  00676E  D000               	nop2	
  3289                           
  3290                           ;main.c: 1002:     PORTCbits.RC7 = 0;
  3291  006770  9E82               	bcf	3970,7,c	;volatile
  3292                           
  3293                           ;main.c: 1003:     PORTB = 0x20;
  3294  006772  0E20               	movlw	32
  3295  006774  6E81               	movwf	3969,c	;volatile
  3296                           
  3297                           ;main.c: 1004:     PORTCbits.RC6 = 1;
  3298  006776  8C82               	bsf	3970,6,c	;volatile
  3299                           
  3300                           ;main.c: 1005:     _delay((unsigned long)((1600)*(20000000/4000000.0)));
  3301  006778  0E0B               	movlw	11
  3302  00677A  6E37               	movwf	??_Draw_28& (0+255),c
  3303  00677C  0E62               	movlw	98
  3304  00677E                     u2167:
  3305  00677E  2EE8               	decfsz	wreg,f,c
  3306  006780  D7FE               	bra	u2167
  3307  006782  2E37               	decfsz	??_Draw_28& (0+255),f,c
  3308  006784  D7FC               	bra	u2167
  3309  006786  D000               	nop2	
  3310                           
  3311                           ;main.c: 1006:     PORTCbits.RC6 = 0;
  3312  006788  9C82               	bcf	3970,6,c	;volatile
  3313  00678A  0012               	return		;funcret
  3314  00678C                     __end_of_Draw_28:
  3315                           	opt callstack 0
  3316                           
  3317 ;; *************** function _Draw_26 *****************
  3318 ;; Defined at:
  3319 ;;		line 987 in file "main.c"
  3320 ;; Parameters:    Size  Location     Type
  3321 ;;		None
  3322 ;; Auto vars:     Size  Location     Type
  3323 ;;		None
  3324 ;; Return value:  Size  Location     Type
  3325 ;;                  1    wreg      void 
  3326 ;; Registers used:
  3327 ;;		wreg, status,2
  3328 ;; Tracked objects:
  3329 ;;		On entry : 0/0
  3330 ;;		On exit  : 0/0
  3331 ;;		Unchanged: 0/0
  3332 ;; Data sizes:     COMRAM   BANK0   BANK1   BANK2   BANK3   BANK4   BANK5   BANK6   BANK7
  3333 ;;      Params:         0       0       0       0       0       0       0       0       0
  3334 ;;      Locals:         0       0       0       0       0       0       0       0       0
  3335 ;;      Temps:          1       0       0       0       0       0       0       0       0
  3336 ;;      Totals:         1       0       0       0       0       0       0       0       0
  3337 ;;Total ram usage:        1 bytes
  3338 ;; Hardware stack levels used:    1
  3339 ;; This function calls:
  3340 ;;		Nothing
  3341 ;; This function is called by:
  3342 ;;		_Menu_P3
  3343 ;; This function uses a non-reentrant model
  3344 ;;
  3345                           
  3346                           	psect	text9
  3347  006728                     __ptext9:
  3348                           	opt callstack 0
  3349  006728                     _Draw_26:
  3350                           	opt callstack 27
  3351                           
  3352                           ;main.c: 988:     PORTB = 0xA4;
  3353                           
  3354                           ;incstack = 0
  3355  006728  0EA4               	movlw	164
  3356  00672A  6E81               	movwf	3969,c	;volatile
  3357                           
  3358                           ;main.c: 989:     PORTCbits.RC7 = 1;
  3359  00672C  8E82               	bsf	3970,7,c	;volatile
  3360                           
  3361                           ;main.c: 990:     _delay((unsigned long)((1600)*(20000000/4000000.0)));
  3362  00672E  0E0B               	movlw	11
  3363  006730  6E37               	movwf	??_Draw_26& (0+255),c
  3364  006732  0E62               	movlw	98
  3365  006734                     u2177:
  3366  006734  2EE8               	decfsz	wreg,f,c
  3367  006736  D7FE               	bra	u2177
  3368  006738  2E37               	decfsz	??_Draw_26& (0+255),f,c
  3369  00673A  D7FC               	bra	u2177
  3370  00673C  D000               	nop2	
  3371                           
  3372                           ;main.c: 991:     PORTCbits.RC7 = 0;
  3373  00673E  9E82               	bcf	3970,7,c	;volatile
  3374                           
  3375                           ;main.c: 992:     PORTB = 0x22;
  3376  006740  0E22               	movlw	34
  3377  006742  6E81               	movwf	3969,c	;volatile
  3378                           
  3379                           ;main.c: 993:     PORTCbits.RC6 = 1;
  3380  006744  8C82               	bsf	3970,6,c	;volatile
  3381                           
  3382                           ;main.c: 994:     _delay((unsigned long)((1600)*(20000000/4000000.0)));
  3383  006746  0E0B               	movlw	11
  3384  006748  6E37               	movwf	??_Draw_26& (0+255),c
  3385  00674A  0E62               	movlw	98
  3386  00674C                     u2187:
  3387  00674C  2EE8               	decfsz	wreg,f,c
  3388  00674E  D7FE               	bra	u2187
  3389  006750  2E37               	decfsz	??_Draw_26& (0+255),f,c
  3390  006752  D7FC               	bra	u2187
  3391  006754  D000               	nop2	
  3392                           
  3393                           ;main.c: 995:     PORTCbits.RC6 = 0;
  3394  006756  9C82               	bcf	3970,6,c	;volatile
  3395  006758  0012               	return		;funcret
  3396  00675A                     __end_of_Draw_26:
  3397                           	opt callstack 0
  3398                           
  3399 ;; *************** function _Draw_24 *****************
  3400 ;; Defined at:
  3401 ;;		line 976 in file "main.c"
  3402 ;; Parameters:    Size  Location     Type
  3403 ;;		None
  3404 ;; Auto vars:     Size  Location     Type
  3405 ;;		None
  3406 ;; Return value:  Size  Location     Type
  3407 ;;                  1    wreg      void 
  3408 ;; Registers used:
  3409 ;;		wreg, status,2
  3410 ;; Tracked objects:
  3411 ;;		On entry : 0/0
  3412 ;;		On exit  : 0/0
  3413 ;;		Unchanged: 0/0
  3414 ;; Data sizes:     COMRAM   BANK0   BANK1   BANK2   BANK3   BANK4   BANK5   BANK6   BANK7
  3415 ;;      Params:         0       0       0       0       0       0       0       0       0
  3416 ;;      Locals:         0       0       0       0       0       0       0       0       0
  3417 ;;      Temps:          1       0       0       0       0       0       0       0       0
  3418 ;;      Totals:         1       0       0       0       0       0       0       0       0
  3419 ;;Total ram usage:        1 bytes
  3420 ;; Hardware stack levels used:    1
  3421 ;; This function calls:
  3422 ;;		Nothing
  3423 ;; This function is called by:
  3424 ;;		_Menu_P3
  3425 ;; This function uses a non-reentrant model
  3426 ;;
  3427                           
  3428                           	psect	text10
  3429  0066F6                     __ptext10:
  3430                           	opt callstack 0
  3431  0066F6                     _Draw_24:
  3432                           	opt callstack 27
  3433                           
  3434                           ;main.c: 977:     PORTB = 0xA4;
  3435                           
  3436                           ;incstack = 0
  3437  0066F6  0EA4               	movlw	164
  3438  0066F8  6E81               	movwf	3969,c	;volatile
  3439                           
  3440                           ;main.c: 978:     PORTCbits.RC7 = 1;
  3441  0066FA  8E82               	bsf	3970,7,c	;volatile
  3442                           
  3443                           ;main.c: 979:     _delay((unsigned long)((1600)*(20000000/4000000.0)));
  3444  0066FC  0E0B               	movlw	11
  3445  0066FE  6E37               	movwf	??_Draw_24& (0+255),c
  3446  006700  0E62               	movlw	98
  3447  006702                     u2197:
  3448  006702  2EE8               	decfsz	wreg,f,c
  3449  006704  D7FE               	bra	u2197
  3450  006706  2E37               	decfsz	??_Draw_24& (0+255),f,c
  3451  006708  D7FC               	bra	u2197
  3452  00670A  D000               	nop2	
  3453                           
  3454                           ;main.c: 980:     PORTCbits.RC7 = 0;
  3455  00670C  9E82               	bcf	3970,7,c	;volatile
  3456                           
  3457                           ;main.c: 981:     PORTB = 0x71;
  3458  00670E  0E71               	movlw	113
  3459  006710  6E81               	movwf	3969,c	;volatile
  3460                           
  3461                           ;main.c: 982:     PORTCbits.RC6 = 1;
  3462  006712  8C82               	bsf	3970,6,c	;volatile
  3463                           
  3464                           ;main.c: 983:     _delay((unsigned long)((1600)*(20000000/4000000.0)));
  3465  006714  0E0B               	movlw	11
  3466  006716  6E37               	movwf	??_Draw_24& (0+255),c
  3467  006718  0E62               	movlw	98
  3468  00671A                     u2207:
  3469  00671A  2EE8               	decfsz	wreg,f,c
  3470  00671C  D7FE               	bra	u2207
  3471  00671E  2E37               	decfsz	??_Draw_24& (0+255),f,c
  3472  006720  D7FC               	bra	u2207
  3473  006722  D000               	nop2	
  3474                           
  3475                           ;main.c: 984:     PORTCbits.RC6 = 0;
  3476  006724  9C82               	bcf	3970,6,c	;volatile
  3477  006726  0012               	return		;funcret
  3478  006728                     __end_of_Draw_24:
  3479                           	opt callstack 0
  3480                           
  3481 ;; *************** function _Draw_22 *****************
  3482 ;; Defined at:
  3483 ;;		line 965 in file "main.c"
  3484 ;; Parameters:    Size  Location     Type
  3485 ;;		None
  3486 ;; Auto vars:     Size  Location     Type
  3487 ;;		None
  3488 ;; Return value:  Size  Location     Type
  3489 ;;                  1    wreg      void 
  3490 ;; Registers used:
  3491 ;;		wreg, status,2
  3492 ;; Tracked objects:
  3493 ;;		On entry : 0/0
  3494 ;;		On exit  : 0/0
  3495 ;;		Unchanged: 0/0
  3496 ;; Data sizes:     COMRAM   BANK0   BANK1   BANK2   BANK3   BANK4   BANK5   BANK6   BANK7
  3497 ;;      Params:         0       0       0       0       0       0       0       0       0
  3498 ;;      Locals:         0       0       0       0       0       0       0       0       0
  3499 ;;      Temps:          1       0       0       0       0       0       0       0       0
  3500 ;;      Totals:         1       0       0       0       0       0       0       0       0
  3501 ;;Total ram usage:        1 bytes
  3502 ;; Hardware stack levels used:    1
  3503 ;; This function calls:
  3504 ;;		Nothing
  3505 ;; This function is called by:
  3506 ;;		_Menu_P3
  3507 ;; This function uses a non-reentrant model
  3508 ;;
  3509                           
  3510                           	psect	text11
  3511  0066C4                     __ptext11:
  3512                           	opt callstack 0
  3513  0066C4                     _Draw_22:
  3514                           	opt callstack 27
  3515                           
  3516                           ;main.c: 966:     PORTB = 0xA4;
  3517                           
  3518                           ;incstack = 0
  3519  0066C4  0EA4               	movlw	164
  3520  0066C6  6E81               	movwf	3969,c	;volatile
  3521                           
  3522                           ;main.c: 967:     PORTCbits.RC7 = 1;
  3523  0066C8  8E82               	bsf	3970,7,c	;volatile
  3524                           
  3525                           ;main.c: 968:     _delay((unsigned long)((1600)*(20000000/4000000.0)));
  3526  0066CA  0E0B               	movlw	11
  3527  0066CC  6E37               	movwf	??_Draw_22& (0+255),c
  3528  0066CE  0E62               	movlw	98
  3529  0066D0                     u2217:
  3530  0066D0  2EE8               	decfsz	wreg,f,c
  3531  0066D2  D7FE               	bra	u2217
  3532  0066D4  2E37               	decfsz	??_Draw_22& (0+255),f,c
  3533  0066D6  D7FC               	bra	u2217
  3534  0066D8  D000               	nop2	
  3535                           
  3536                           ;main.c: 969:     PORTCbits.RC7 = 0;
  3537  0066DA  9E82               	bcf	3970,7,c	;volatile
  3538                           
  3539                           ;main.c: 970:     PORTB = 0xA4;
  3540  0066DC  0EA4               	movlw	164
  3541  0066DE  6E81               	movwf	3969,c	;volatile
  3542                           
  3543                           ;main.c: 971:     PORTCbits.RC6 = 1;
  3544  0066E0  8C82               	bsf	3970,6,c	;volatile
  3545                           
  3546                           ;main.c: 972:     _delay((unsigned long)((1600)*(20000000/4000000.0)));
  3547  0066E2  0E0B               	movlw	11
  3548  0066E4  6E37               	movwf	??_Draw_22& (0+255),c
  3549  0066E6  0E62               	movlw	98
  3550  0066E8                     u2227:
  3551  0066E8  2EE8               	decfsz	wreg,f,c
  3552  0066EA  D7FE               	bra	u2227
  3553  0066EC  2E37               	decfsz	??_Draw_22& (0+255),f,c
  3554  0066EE  D7FC               	bra	u2227
  3555  0066F0  D000               	nop2	
  3556                           
  3557                           ;main.c: 973:     PORTCbits.RC6 = 0;
  3558  0066F2  9C82               	bcf	3970,6,c	;volatile
  3559  0066F4  0012               	return		;funcret
  3560  0066F6                     __end_of_Draw_22:
  3561                           	opt callstack 0
  3562                           
  3563 ;; *************** function _Draw_20 *****************
  3564 ;; Defined at:
  3565 ;;		line 954 in file "main.c"
  3566 ;; Parameters:    Size  Location     Type
  3567 ;;		None
  3568 ;; Auto vars:     Size  Location     Type
  3569 ;;		None
  3570 ;; Return value:  Size  Location     Type
  3571 ;;                  1    wreg      void 
  3572 ;; Registers used:
  3573 ;;		wreg, status,2
  3574 ;; Tracked objects:
  3575 ;;		On entry : 0/0
  3576 ;;		On exit  : 0/0
  3577 ;;		Unchanged: 0/0
  3578 ;; Data sizes:     COMRAM   BANK0   BANK1   BANK2   BANK3   BANK4   BANK5   BANK6   BANK7
  3579 ;;      Params:         0       0       0       0       0       0       0       0       0
  3580 ;;      Locals:         0       0       0       0       0       0       0       0       0
  3581 ;;      Temps:          1       0       0       0       0       0       0       0       0
  3582 ;;      Totals:         1       0       0       0       0       0       0       0       0
  3583 ;;Total ram usage:        1 bytes
  3584 ;; Hardware stack levels used:    1
  3585 ;; This function calls:
  3586 ;;		Nothing
  3587 ;; This function is called by:
  3588 ;;		_Menu_P3
  3589 ;; This function uses a non-reentrant model
  3590 ;;
  3591                           
  3592                           	psect	text12
  3593  006692                     __ptext12:
  3594                           	opt callstack 0
  3595  006692                     _Draw_20:
  3596                           	opt callstack 27
  3597                           
  3598                           ;main.c: 955:     PORTB = 0xA4;
  3599                           
  3600                           ;incstack = 0
  3601  006692  0EA4               	movlw	164
  3602  006694  6E81               	movwf	3969,c	;volatile
  3603                           
  3604                           ;main.c: 956:     PORTCbits.RC7 = 1;
  3605  006696  8E82               	bsf	3970,7,c	;volatile
  3606                           
  3607                           ;main.c: 957:     _delay((unsigned long)((1600)*(20000000/4000000.0)));
  3608  006698  0E0B               	movlw	11
  3609  00669A  6E37               	movwf	??_Draw_20& (0+255),c
  3610  00669C  0E62               	movlw	98
  3611  00669E                     u2237:
  3612  00669E  2EE8               	decfsz	wreg,f,c
  3613  0066A0  D7FE               	bra	u2237
  3614  0066A2  2E37               	decfsz	??_Draw_20& (0+255),f,c
  3615  0066A4  D7FC               	bra	u2237
  3616  0066A6  D000               	nop2	
  3617                           
  3618                           ;main.c: 958:     PORTCbits.RC7 = 0;
  3619  0066A8  9E82               	bcf	3970,7,c	;volatile
  3620                           
  3621                           ;main.c: 959:     PORTB = 0x28;
  3622  0066AA  0E28               	movlw	40
  3623  0066AC  6E81               	movwf	3969,c	;volatile
  3624                           
  3625                           ;main.c: 960:     PORTCbits.RC6 = 1;
  3626  0066AE  8C82               	bsf	3970,6,c	;volatile
  3627                           
  3628                           ;main.c: 961:     _delay((unsigned long)((1600)*(20000000/4000000.0)));
  3629  0066B0  0E0B               	movlw	11
  3630  0066B2  6E37               	movwf	??_Draw_20& (0+255),c
  3631  0066B4  0E62               	movlw	98
  3632  0066B6                     u2247:
  3633  0066B6  2EE8               	decfsz	wreg,f,c
  3634  0066B8  D7FE               	bra	u2247
  3635  0066BA  2E37               	decfsz	??_Draw_20& (0+255),f,c
  3636  0066BC  D7FC               	bra	u2247
  3637  0066BE  D000               	nop2	
  3638                           
  3639                           ;main.c: 962:     PORTCbits.RC6 = 0;
  3640  0066C0  9C82               	bcf	3970,6,c	;volatile
  3641  0066C2  0012               	return		;funcret
  3642  0066C4                     __end_of_Draw_20:
  3643                           	opt callstack 0
  3644                           
  3645 ;; *************** function _Draw_18 *****************
  3646 ;; Defined at:
  3647 ;;		line 943 in file "main.c"
  3648 ;; Parameters:    Size  Location     Type
  3649 ;;		None
  3650 ;; Auto vars:     Size  Location     Type
  3651 ;;		None
  3652 ;; Return value:  Size  Location     Type
  3653 ;;                  1    wreg      void 
  3654 ;; Registers used:
  3655 ;;		wreg, status,2
  3656 ;; Tracked objects:
  3657 ;;		On entry : 0/0
  3658 ;;		On exit  : 0/0
  3659 ;;		Unchanged: 0/0
  3660 ;; Data sizes:     COMRAM   BANK0   BANK1   BANK2   BANK3   BANK4   BANK5   BANK6   BANK7
  3661 ;;      Params:         0       0       0       0       0       0       0       0       0
  3662 ;;      Locals:         0       0       0       0       0       0       0       0       0
  3663 ;;      Temps:          1       0       0       0       0       0       0       0       0
  3664 ;;      Totals:         1       0       0       0       0       0       0       0       0
  3665 ;;Total ram usage:        1 bytes
  3666 ;; Hardware stack levels used:    1
  3667 ;; This function calls:
  3668 ;;		Nothing
  3669 ;; This function is called by:
  3670 ;;		_Menu_P3
  3671 ;; This function uses a non-reentrant model
  3672 ;;
  3673                           
  3674                           	psect	text13
  3675  006660                     __ptext13:
  3676                           	opt callstack 0
  3677  006660                     _Draw_18:
  3678                           	opt callstack 27
  3679                           
  3680                           ;main.c: 944:     PORTB = 0x7D;
  3681                           
  3682                           ;incstack = 0
  3683  006660  0E7D               	movlw	125
  3684  006662  6E81               	movwf	3969,c	;volatile
  3685                           
  3686                           ;main.c: 945:     PORTCbits.RC7 = 1;
  3687  006664  8E82               	bsf	3970,7,c	;volatile
  3688                           
  3689                           ;main.c: 946:     _delay((unsigned long)((1600)*(20000000/4000000.0)));
  3690  006666  0E0B               	movlw	11
  3691  006668  6E37               	movwf	??_Draw_18& (0+255),c
  3692  00666A  0E62               	movlw	98
  3693  00666C                     u2257:
  3694  00666C  2EE8               	decfsz	wreg,f,c
  3695  00666E  D7FE               	bra	u2257
  3696  006670  2E37               	decfsz	??_Draw_18& (0+255),f,c
  3697  006672  D7FC               	bra	u2257
  3698  006674  D000               	nop2	
  3699                           
  3700                           ;main.c: 947:     PORTCbits.RC7 = 0;
  3701  006676  9E82               	bcf	3970,7,c	;volatile
  3702                           
  3703                           ;main.c: 948:     PORTB = 0x20;
  3704  006678  0E20               	movlw	32
  3705  00667A  6E81               	movwf	3969,c	;volatile
  3706                           
  3707                           ;main.c: 949:     PORTCbits.RC6 = 1;
  3708  00667C  8C82               	bsf	3970,6,c	;volatile
  3709                           
  3710                           ;main.c: 950:     _delay((unsigned long)((1600)*(20000000/4000000.0)));
  3711  00667E  0E0B               	movlw	11
  3712  006680  6E37               	movwf	??_Draw_18& (0+255),c
  3713  006682  0E62               	movlw	98
  3714  006684                     u2267:
  3715  006684  2EE8               	decfsz	wreg,f,c
  3716  006686  D7FE               	bra	u2267
  3717  006688  2E37               	decfsz	??_Draw_18& (0+255),f,c
  3718  00668A  D7FC               	bra	u2267
  3719  00668C  D000               	nop2	
  3720                           
  3721                           ;main.c: 951:     PORTCbits.RC6 = 0;
  3722  00668E  9C82               	bcf	3970,6,c	;volatile
  3723  006690  0012               	return		;funcret
  3724  006692                     __end_of_Draw_18:
  3725                           	opt callstack 0
  3726                           
  3727 ;; *************** function _Draw_16 *****************
  3728 ;; Defined at:
  3729 ;;		line 932 in file "main.c"
  3730 ;; Parameters:    Size  Location     Type
  3731 ;;		None
  3732 ;; Auto vars:     Size  Location     Type
  3733 ;;		None
  3734 ;; Return value:  Size  Location     Type
  3735 ;;                  1    wreg      void 
  3736 ;; Registers used:
  3737 ;;		wreg, status,2
  3738 ;; Tracked objects:
  3739 ;;		On entry : 0/0
  3740 ;;		On exit  : 0/0
  3741 ;;		Unchanged: 0/0
  3742 ;; Data sizes:     COMRAM   BANK0   BANK1   BANK2   BANK3   BANK4   BANK5   BANK6   BANK7
  3743 ;;      Params:         0       0       0       0       0       0       0       0       0
  3744 ;;      Locals:         0       0       0       0       0       0       0       0       0
  3745 ;;      Temps:          1       0       0       0       0       0       0       0       0
  3746 ;;      Totals:         1       0       0       0       0       0       0       0       0
  3747 ;;Total ram usage:        1 bytes
  3748 ;; Hardware stack levels used:    1
  3749 ;; This function calls:
  3750 ;;		Nothing
  3751 ;; This function is called by:
  3752 ;;		_Menu_P3
  3753 ;; This function uses a non-reentrant model
  3754 ;;
  3755                           
  3756                           	psect	text14
  3757  00662E                     __ptext14:
  3758                           	opt callstack 0
  3759  00662E                     _Draw_16:
  3760                           	opt callstack 27
  3761                           
  3762                           ;main.c: 933:     PORTB = 0x7D;
  3763                           
  3764                           ;incstack = 0
  3765  00662E  0E7D               	movlw	125
  3766  006630  6E81               	movwf	3969,c	;volatile
  3767                           
  3768                           ;main.c: 934:     PORTCbits.RC7 = 1;
  3769  006632  8E82               	bsf	3970,7,c	;volatile
  3770                           
  3771                           ;main.c: 935:     _delay((unsigned long)((1600)*(20000000/4000000.0)));
  3772  006634  0E0B               	movlw	11
  3773  006636  6E37               	movwf	??_Draw_16& (0+255),c
  3774  006638  0E62               	movlw	98
  3775  00663A                     u2277:
  3776  00663A  2EE8               	decfsz	wreg,f,c
  3777  00663C  D7FE               	bra	u2277
  3778  00663E  2E37               	decfsz	??_Draw_16& (0+255),f,c
  3779  006640  D7FC               	bra	u2277
  3780  006642  D000               	nop2	
  3781                           
  3782                           ;main.c: 936:     PORTCbits.RC7 = 0;
  3783  006644  9E82               	bcf	3970,7,c	;volatile
  3784                           
  3785                           ;main.c: 937:     PORTB = 0x22;
  3786  006646  0E22               	movlw	34
  3787  006648  6E81               	movwf	3969,c	;volatile
  3788                           
  3789                           ;main.c: 938:     PORTCbits.RC6 = 1;
  3790  00664A  8C82               	bsf	3970,6,c	;volatile
  3791                           
  3792                           ;main.c: 939:     _delay((unsigned long)((1600)*(20000000/4000000.0)));
  3793  00664C  0E0B               	movlw	11
  3794  00664E  6E37               	movwf	??_Draw_16& (0+255),c
  3795  006650  0E62               	movlw	98
  3796  006652                     u2287:
  3797  006652  2EE8               	decfsz	wreg,f,c
  3798  006654  D7FE               	bra	u2287
  3799  006656  2E37               	decfsz	??_Draw_16& (0+255),f,c
  3800  006658  D7FC               	bra	u2287
  3801  00665A  D000               	nop2	
  3802                           
  3803                           ;main.c: 940:     PORTCbits.RC6 = 0;
  3804  00665C  9C82               	bcf	3970,6,c	;volatile
  3805  00665E  0012               	return		;funcret
  3806  006660                     __end_of_Draw_16:
  3807                           	opt callstack 0
  3808                           
  3809 ;; *************** function _Menu_P2 *****************
  3810 ;; Defined at:
  3811 ;;		line 515 in file "main.c"
  3812 ;; Parameters:    Size  Location     Type
  3813 ;;		None
  3814 ;; Auto vars:     Size  Location     Type
  3815 ;;		None
  3816 ;; Return value:  Size  Location     Type
  3817 ;;                  1    wreg      void 
  3818 ;; Registers used:
  3819 ;;		wreg, status,2, status,0, cstack
  3820 ;; Tracked objects:
  3821 ;;		On entry : 0/0
  3822 ;;		On exit  : 0/0
  3823 ;;		Unchanged: 0/0
  3824 ;; Data sizes:     COMRAM   BANK0   BANK1   BANK2   BANK3   BANK4   BANK5   BANK6   BANK7
  3825 ;;      Params:         0       0       0       0       0       0       0       0       0
  3826 ;;      Locals:         0       0       0       0       0       0       0       0       0
  3827 ;;      Temps:          2       0       0       0       0       0       0       0       0
  3828 ;;      Totals:         2       0       0       0       0       0       0       0       0
  3829 ;;Total ram usage:        2 bytes
  3830 ;; Hardware stack levels used:    1
  3831 ;; Hardware stack levels required when called:    2
  3832 ;; This function calls:
  3833 ;;		_Draw_0
  3834 ;;		_Draw_1
  3835 ;;		_Draw_10
  3836 ;;		_Draw_11
  3837 ;;		_Draw_12
  3838 ;;		_Draw_13
  3839 ;;		_Draw_14
  3840 ;;		_Draw_15
  3841 ;;		_Draw_2
  3842 ;;		_Draw_3
  3843 ;;		_Draw_4
  3844 ;;		_Draw_5
  3845 ;;		_Draw_6
  3846 ;;		_Draw_7
  3847 ;;		_Draw_8
  3848 ;;		_Draw_9
  3849 ;;		_Exit_Time_Menu
  3850 ;;		_Recording
  3851 ;;		_eeprom_writex
  3852 ;; This function is called by:
  3853 ;;		_Menu
  3854 ;; This function uses a non-reentrant model
  3855 ;;
  3856                           
  3857                           	psect	text15
  3858  007102                     __ptext15:
  3859                           	opt callstack 0
  3860  007102                     _Menu_P2:
  3861                           	opt callstack 26
  3862                           
  3863                           ;main.c: 517:         switch (Count_Push_Button)
  3864                           
  3865                           ;incstack = 0
  3866                           ;main.c: 516:     do {
  3867  007102  D035               	goto	l3065
  3868  007104                     l3029:
  3869  007104  ECFC  F030         	call	_Draw_0	;wreg free
  3870  007108  D06C               	goto	l3067
  3871  00710A                     l3031:
  3872  00710A  EC14  F031         	call	_Draw_1	;wreg free
  3873  00710E  D069               	goto	l3067
  3874  007110                     l3033:
  3875  007110  EC44  F031         	call	_Draw_2	;wreg free
  3876  007114  D066               	goto	l3067
  3877  007116                     l3035:
  3878  007116  EC5C  F031         	call	_Draw_3	;wreg free
  3879  00711A  D063               	goto	l3067
  3880  00711C                     l3037:
  3881  00711C  EC74  F031         	call	_Draw_4	;wreg free
  3882  007120  D060               	goto	l3067
  3883  007122                     l3039:
  3884  007122  EC8C  F031         	call	_Draw_5	;wreg free
  3885  007126  D05D               	goto	l3067
  3886  007128                     l3041:
  3887  007128  ECA4  F031         	call	_Draw_6	;wreg free
  3888  00712C  D05A               	goto	l3067
  3889  00712E                     l3043:
  3890  00712E  ECBC  F031         	call	_Draw_7	;wreg free
  3891  007132  D057               	goto	l3067
  3892  007134                     l3045:
  3893  007134  ECD4  F031         	call	_Draw_8	;wreg free
  3894  007138  D054               	goto	l3067
  3895  00713A                     l3047:
  3896  00713A  ECEC  F031         	call	_Draw_9	;wreg free
  3897  00713E  D051               	goto	l3067
  3898  007140                     l3049:
  3899  007140  EC81  F032         	call	_Draw_10	;wreg free
  3900  007144  D04E               	goto	l3067
  3901  007146                     l3051:
  3902  007146  EC9A  F032         	call	_Draw_11	;wreg free
  3903  00714A  D04B               	goto	l3067
  3904  00714C                     l3053:
  3905  00714C  ECB3  F032         	call	_Draw_12	;wreg free
  3906  007150  D048               	goto	l3067
  3907  007152                     l3055:
  3908  007152  ECCC  F032         	call	_Draw_13	;wreg free
  3909  007156  D045               	goto	l3067
  3910  007158                     l3057:
  3911  007158  ECE5  F032         	call	_Draw_14	;wreg free
  3912  00715C  D042               	goto	l3067
  3913  00715E                     l3059:
  3914  00715E  ECFE  F032         	call	_Draw_15	;wreg free
  3915  007162  D03F               	goto	l3067
  3916  007164                     l3061:
  3917  007164  0E00               	movlw	0
  3918  007166  6E28               	movwf	_Count_Push_Button+1,c
  3919  007168  0E00               	movlw	0
  3920  00716A  6E27               	movwf	_Count_Push_Button,c
  3921  00716C  D03A               	goto	l3067
  3922  00716E                     l3065:
  3923  00716E  C027  F03A         	movff	_Count_Push_Button,??_Menu_P2
  3924  007172  C028  F03B         	movff	_Count_Push_Button+1,??_Menu_P2+1
  3925                           
  3926                           ; Switch on 2 bytes has been partitioned into a top level switch of size 1, and 1 sub-sw
      +                          itches
  3927                           ; Switch size 1, requested type "simple"
  3928                           ; Number of cases is 1, Range of values is 0 to 0
  3929                           ; switch strategies available:
  3930                           ; Name         Instructions Cycles
  3931                           ; simple_byte            4     3 (average)
  3932                           ;	Chosen strategy is simple_byte
  3933  007176  503B               	movf	??_Menu_P2+1,w,c
  3934  007178  0A00               	xorlw	0	; case 0
  3935  00717A  A4D8               	btfss	status,2,c
  3936  00717C  D7F3               	goto	l3061
  3937                           
  3938                           ; Switch size 1, requested type "simple"
  3939                           ; Number of cases is 16, Range of values is 0 to 15
  3940                           ; switch strategies available:
  3941                           ; Name         Instructions Cycles
  3942                           ; simple_byte           49    25 (average)
  3943                           ;	Chosen strategy is simple_byte
  3944  00717E  503A               	movf	??_Menu_P2,w,c
  3945  007180  0A00               	xorlw	0	; case 0
  3946  007182  B4D8               	btfsc	status,2,c
  3947  007184  D7BF               	goto	l3029
  3948  007186  0A01               	xorlw	1	; case 1
  3949  007188  B4D8               	btfsc	status,2,c
  3950  00718A  D7BF               	goto	l3031
  3951  00718C  0A03               	xorlw	3	; case 2
  3952  00718E  B4D8               	btfsc	status,2,c
  3953  007190  D7BF               	goto	l3033
  3954  007192  0A01               	xorlw	1	; case 3
  3955  007194  B4D8               	btfsc	status,2,c
  3956  007196  D7BF               	goto	l3035
  3957  007198  0A07               	xorlw	7	; case 4
  3958  00719A  B4D8               	btfsc	status,2,c
  3959  00719C  D7BF               	goto	l3037
  3960  00719E  0A01               	xorlw	1	; case 5
  3961  0071A0  B4D8               	btfsc	status,2,c
  3962  0071A2  D7BF               	goto	l3039
  3963  0071A4  0A03               	xorlw	3	; case 6
  3964  0071A6  B4D8               	btfsc	status,2,c
  3965  0071A8  D7BF               	goto	l3041
  3966  0071AA  0A01               	xorlw	1	; case 7
  3967  0071AC  B4D8               	btfsc	status,2,c
  3968  0071AE  D7BF               	goto	l3043
  3969  0071B0  0A0F               	xorlw	15	; case 8
  3970  0071B2  B4D8               	btfsc	status,2,c
  3971  0071B4  D7BF               	goto	l3045
  3972  0071B6  0A01               	xorlw	1	; case 9
  3973  0071B8  B4D8               	btfsc	status,2,c
  3974  0071BA  D7BF               	goto	l3047
  3975  0071BC  0A03               	xorlw	3	; case 10
  3976  0071BE  B4D8               	btfsc	status,2,c
  3977  0071C0  D7BF               	goto	l3049
  3978  0071C2  0A01               	xorlw	1	; case 11
  3979  0071C4  B4D8               	btfsc	status,2,c
  3980  0071C6  D7BF               	goto	l3051
  3981  0071C8  0A07               	xorlw	7	; case 12
  3982  0071CA  B4D8               	btfsc	status,2,c
  3983  0071CC  D7BF               	goto	l3053
  3984  0071CE  0A01               	xorlw	1	; case 13
  3985  0071D0  B4D8               	btfsc	status,2,c
  3986  0071D2  D7BF               	goto	l3055
  3987  0071D4  0A03               	xorlw	3	; case 14
  3988  0071D6  B4D8               	btfsc	status,2,c
  3989  0071D8  D7BF               	goto	l3057
  3990  0071DA  0A01               	xorlw	1	; case 15
  3991  0071DC  B4D8               	btfsc	status,2,c
  3992  0071DE  D7BF               	goto	l3059
  3993  0071E0  D7C1               	goto	l3061
  3994  0071E2                     l3067:
  3995                           
  3996                           ;main.c: 538:         Button_Menu_Down_State = PORTAbits.RA2;
  3997  0071E2  A480               	btfss	3968,2,c	;volatile
  3998  0071E4  D002               	goto	u1050
  3999  0071E6  0E01               	movlw	1
  4000  0071E8  D001               	goto	u1056
  4001  0071EA                     u1050:
  4002  0071EA  0E00               	movlw	0
  4003  0071EC                     u1056:
  4004  0071EC  6E32               	movwf	_Button_Menu_Down_State,c
  4005                           
  4006                           ;main.c: 539:         if (Button_Menu_Down_State == 0 && Last_Button_Menu_Down_State == 
      +                          1) {
  4007  0071EE  5032               	movf	_Button_Menu_Down_State,w,c
  4008  0071F0  A4D8               	btfss	status,2,c
  4009  0071F2  D00D               	goto	l3075
  4010  0071F4  0453               	decf	_Last_Button_Menu_Down_State,w,c
  4011  0071F6  A4D8               	btfss	status,2,c
  4012  0071F8  D00A               	goto	l3075
  4013                           
  4014                           ;main.c: 540:             Count_Push_Button++;
  4015  0071FA  4A27               	infsnz	_Count_Push_Button,f,c
  4016  0071FC  2A28               	incf	_Count_Push_Button+1,f,c
  4017                           
  4018                           ;main.c: 541:             Count_Exit_Menu = 0;
  4019  0071FE  0E00               	movlw	0
  4020  007200  6E11               	movwf	_Count_Exit_Menu,c
  4021  007202  0E00               	movlw	0
  4022  007204  6E12               	movwf	_Count_Exit_Menu+1,c
  4023  007206  0E00               	movlw	0
  4024  007208  6E13               	movwf	_Count_Exit_Menu+2,c
  4025  00720A  0E00               	movlw	0
  4026  00720C  6E14               	movwf	_Count_Exit_Menu+3,c
  4027  00720E                     l3075:
  4028                           
  4029                           ;main.c: 543:         Last_Button_Menu_Down_State = Button_Menu_Down_State;
  4030  00720E  C032  F053         	movff	_Button_Menu_Down_State,_Last_Button_Menu_Down_State
  4031                           
  4032                           ;main.c: 546:         Button_Menu_Up_State = PORTAbits.RA1;
  4033  007212  A280               	btfss	3968,1,c	;volatile
  4034  007214  D002               	goto	u1080
  4035  007216  0E01               	movlw	1
  4036  007218  D001               	goto	u1086
  4037  00721A                     u1080:
  4038  00721A  0E00               	movlw	0
  4039  00721C                     u1086:
  4040  00721C  6E33               	movwf	_Button_Menu_Up_State,c
  4041                           
  4042                           ;main.c: 547:         Count_Exit_Menu = 0;
  4043  00721E  0E00               	movlw	0
  4044  007220  6E11               	movwf	_Count_Exit_Menu,c
  4045  007222  0E00               	movlw	0
  4046  007224  6E12               	movwf	_Count_Exit_Menu+1,c
  4047  007226  0E00               	movlw	0
  4048  007228  6E13               	movwf	_Count_Exit_Menu+2,c
  4049  00722A  0E00               	movlw	0
  4050  00722C  6E14               	movwf	_Count_Exit_Menu+3,c
  4051                           
  4052                           ;main.c: 548:         if (Button_Menu_Up_State == 0 && Last_Button_Menu_Up_State == 1) {
  4053  00722E  5033               	movf	_Button_Menu_Up_State,w,c
  4054  007230  A4D8               	btfss	status,2,c
  4055  007232  D0D5               	goto	l354
  4056  007234  0454               	decf	_Last_Button_Menu_Up_State,w,c
  4057  007236  B4D8               	btfsc	status,2,c
  4058  007238  D098               	goto	l3155
  4059  00723A  D0D1               	goto	l354
  4060  00723C                     l3087:
  4061  00723C  0E00               	movlw	0
  4062  00723E  6E38               	movwf	eeprom_writex@address+1,c
  4063  007240  0E02               	movlw	2
  4064  007242  6E37               	movwf	eeprom_writex@address,c
  4065  007244  0E00               	movlw	0
  4066  007246  6E39               	movwf	eeprom_writex@data,c
  4067  007248  ECB0  F030         	call	_eeprom_writex	;wreg free
  4068  00724C                     l3089:
  4069  00724C  ECBF  F034         	call	_Recording	;wreg free
  4070  007250  D0C6               	goto	l354
  4071  007252                     l3091:
  4072  007252  0E00               	movlw	0
  4073  007254  6E38               	movwf	eeprom_writex@address+1,c
  4074  007256  0E02               	movlw	2
  4075  007258  6E37               	movwf	eeprom_writex@address,c
  4076  00725A  0E01               	movlw	1
  4077  00725C  6E39               	movwf	eeprom_writex@data,c
  4078  00725E  ECB0  F030         	call	_eeprom_writex	;wreg free
  4079  007262  D7F4               	goto	l3089
  4080  007264                     l3095:
  4081  007264  0E00               	movlw	0
  4082  007266  6E38               	movwf	eeprom_writex@address+1,c
  4083  007268  0E02               	movlw	2
  4084  00726A  6E37               	movwf	eeprom_writex@address,c
  4085  00726C  0E02               	movlw	2
  4086  00726E  6E39               	movwf	eeprom_writex@data,c
  4087  007270  ECB0  F030         	call	_eeprom_writex	;wreg free
  4088  007274  D7EB               	goto	l3089
  4089  007276                     l3099:
  4090  007276  0E00               	movlw	0
  4091  007278  6E38               	movwf	eeprom_writex@address+1,c
  4092  00727A  0E02               	movlw	2
  4093  00727C  6E37               	movwf	eeprom_writex@address,c
  4094  00727E  0E03               	movlw	3
  4095  007280  6E39               	movwf	eeprom_writex@data,c
  4096  007282  ECB0  F030         	call	_eeprom_writex	;wreg free
  4097  007286  D7E2               	goto	l3089
  4098  007288                     l3103:
  4099  007288  0E00               	movlw	0
  4100  00728A  6E38               	movwf	eeprom_writex@address+1,c
  4101  00728C  0E02               	movlw	2
  4102  00728E  6E37               	movwf	eeprom_writex@address,c
  4103  007290  0E04               	movlw	4
  4104  007292  6E39               	movwf	eeprom_writex@data,c
  4105  007294  ECB0  F030         	call	_eeprom_writex	;wreg free
  4106  007298  D7D9               	goto	l3089
  4107  00729A                     l3107:
  4108  00729A  0E00               	movlw	0
  4109  00729C  6E38               	movwf	eeprom_writex@address+1,c
  4110  00729E  0E02               	movlw	2
  4111  0072A0  6E37               	movwf	eeprom_writex@address,c
  4112  0072A2  0E05               	movlw	5
  4113  0072A4  6E39               	movwf	eeprom_writex@data,c
  4114  0072A6  ECB0  F030         	call	_eeprom_writex	;wreg free
  4115  0072AA  D7D0               	goto	l3089
  4116  0072AC                     l3111:
  4117  0072AC  0E00               	movlw	0
  4118  0072AE  6E38               	movwf	eeprom_writex@address+1,c
  4119  0072B0  0E02               	movlw	2
  4120  0072B2  6E37               	movwf	eeprom_writex@address,c
  4121  0072B4  0E06               	movlw	6
  4122  0072B6  6E39               	movwf	eeprom_writex@data,c
  4123  0072B8  ECB0  F030         	call	_eeprom_writex	;wreg free
  4124  0072BC  D7C7               	goto	l3089
  4125  0072BE                     l3115:
  4126  0072BE  0E00               	movlw	0
  4127  0072C0  6E38               	movwf	eeprom_writex@address+1,c
  4128  0072C2  0E02               	movlw	2
  4129  0072C4  6E37               	movwf	eeprom_writex@address,c
  4130  0072C6  0E07               	movlw	7
  4131  0072C8  6E39               	movwf	eeprom_writex@data,c
  4132  0072CA  ECB0  F030         	call	_eeprom_writex	;wreg free
  4133  0072CE  D7BE               	goto	l3089
  4134  0072D0                     l3119:
  4135  0072D0  0E00               	movlw	0
  4136  0072D2  6E38               	movwf	eeprom_writex@address+1,c
  4137  0072D4  0E02               	movlw	2
  4138  0072D6  6E37               	movwf	eeprom_writex@address,c
  4139  0072D8  0E08               	movlw	8
  4140  0072DA  6E39               	movwf	eeprom_writex@data,c
  4141  0072DC  ECB0  F030         	call	_eeprom_writex	;wreg free
  4142  0072E0  D7B5               	goto	l3089
  4143  0072E2                     l3123:
  4144  0072E2  0E00               	movlw	0
  4145  0072E4  6E38               	movwf	eeprom_writex@address+1,c
  4146  0072E6  0E02               	movlw	2
  4147  0072E8  6E37               	movwf	eeprom_writex@address,c
  4148  0072EA  0E09               	movlw	9
  4149  0072EC  6E39               	movwf	eeprom_writex@data,c
  4150  0072EE  ECB0  F030         	call	_eeprom_writex	;wreg free
  4151  0072F2  D7AC               	goto	l3089
  4152  0072F4                     l3127:
  4153  0072F4  0E00               	movlw	0
  4154  0072F6  6E38               	movwf	eeprom_writex@address+1,c
  4155  0072F8  0E02               	movlw	2
  4156  0072FA  6E37               	movwf	eeprom_writex@address,c
  4157  0072FC  0E0A               	movlw	10
  4158  0072FE  6E39               	movwf	eeprom_writex@data,c
  4159  007300  ECB0  F030         	call	_eeprom_writex	;wreg free
  4160  007304  D7A3               	goto	l3089
  4161  007306                     l3131:
  4162  007306  0E00               	movlw	0
  4163  007308  6E38               	movwf	eeprom_writex@address+1,c
  4164  00730A  0E02               	movlw	2
  4165  00730C  6E37               	movwf	eeprom_writex@address,c
  4166  00730E  0E0B               	movlw	11
  4167  007310  6E39               	movwf	eeprom_writex@data,c
  4168  007312  ECB0  F030         	call	_eeprom_writex	;wreg free
  4169  007316  D79A               	goto	l3089
  4170  007318                     l3135:
  4171  007318  0E00               	movlw	0
  4172  00731A  6E38               	movwf	eeprom_writex@address+1,c
  4173  00731C  0E02               	movlw	2
  4174  00731E  6E37               	movwf	eeprom_writex@address,c
  4175  007320  0E0C               	movlw	12
  4176  007322  6E39               	movwf	eeprom_writex@data,c
  4177  007324  ECB0  F030         	call	_eeprom_writex	;wreg free
  4178  007328  D791               	goto	l3089
  4179  00732A                     l3139:
  4180  00732A  0E00               	movlw	0
  4181  00732C  6E38               	movwf	eeprom_writex@address+1,c
  4182  00732E  0E02               	movlw	2
  4183  007330  6E37               	movwf	eeprom_writex@address,c
  4184  007332  0E0D               	movlw	13
  4185  007334  6E39               	movwf	eeprom_writex@data,c
  4186  007336  ECB0  F030         	call	_eeprom_writex	;wreg free
  4187  00733A  D788               	goto	l3089
  4188  00733C                     l3143:
  4189  00733C  0E00               	movlw	0
  4190  00733E  6E38               	movwf	eeprom_writex@address+1,c
  4191  007340  0E02               	movlw	2
  4192  007342  6E37               	movwf	eeprom_writex@address,c
  4193  007344  0E0E               	movlw	14
  4194  007346  6E39               	movwf	eeprom_writex@data,c
  4195  007348  ECB0  F030         	call	_eeprom_writex	;wreg free
  4196  00734C  D77F               	goto	l3089
  4197  00734E                     l3147:
  4198  00734E  0E00               	movlw	0
  4199  007350  6E38               	movwf	eeprom_writex@address+1,c
  4200  007352  0E02               	movlw	2
  4201  007354  6E37               	movwf	eeprom_writex@address,c
  4202  007356  0E0F               	movlw	15
  4203  007358  6E39               	movwf	eeprom_writex@data,c
  4204  00735A  ECB0  F030         	call	_eeprom_writex	;wreg free
  4205  00735E  D776               	goto	l3089
  4206  007360                     l3151:
  4207  007360  0E00               	movlw	0
  4208  007362  6E28               	movwf	_Count_Push_Button+1,c
  4209  007364  0E00               	movlw	0
  4210  007366  6E27               	movwf	_Count_Push_Button,c
  4211  007368  D03A               	goto	l354
  4212  00736A                     l3155:
  4213  00736A  C027  F03A         	movff	_Count_Push_Button,??_Menu_P2
  4214  00736E  C028  F03B         	movff	_Count_Push_Button+1,??_Menu_P2+1
  4215                           
  4216                           ; Switch on 2 bytes has been partitioned into a top level switch of size 1, and 1 sub-sw
      +                          itches
  4217                           ; Switch size 1, requested type "simple"
  4218                           ; Number of cases is 1, Range of values is 0 to 0
  4219                           ; switch strategies available:
  4220                           ; Name         Instructions Cycles
  4221                           ; simple_byte            4     3 (average)
  4222                           ;	Chosen strategy is simple_byte
  4223  007372  503B               	movf	??_Menu_P2+1,w,c
  4224  007374  0A00               	xorlw	0	; case 0
  4225  007376  A4D8               	btfss	status,2,c
  4226  007378  D7F3               	goto	l3151
  4227                           
  4228                           ; Switch size 1, requested type "simple"
  4229                           ; Number of cases is 16, Range of values is 0 to 15
  4230                           ; switch strategies available:
  4231                           ; Name         Instructions Cycles
  4232                           ; simple_byte           49    25 (average)
  4233                           ;	Chosen strategy is simple_byte
  4234  00737A  503A               	movf	??_Menu_P2,w,c
  4235  00737C  0A00               	xorlw	0	; case 0
  4236  00737E  B4D8               	btfsc	status,2,c
  4237  007380  D75D               	goto	l3087
  4238  007382  0A01               	xorlw	1	; case 1
  4239  007384  B4D8               	btfsc	status,2,c
  4240  007386  D765               	goto	l3091
  4241  007388  0A03               	xorlw	3	; case 2
  4242  00738A  B4D8               	btfsc	status,2,c
  4243  00738C  D76B               	goto	l3095
  4244  00738E  0A01               	xorlw	1	; case 3
  4245  007390  B4D8               	btfsc	status,2,c
  4246  007392  D771               	goto	l3099
  4247  007394  0A07               	xorlw	7	; case 4
  4248  007396  B4D8               	btfsc	status,2,c
  4249  007398  D777               	goto	l3103
  4250  00739A  0A01               	xorlw	1	; case 5
  4251  00739C  B4D8               	btfsc	status,2,c
  4252  00739E  D77D               	goto	l3107
  4253  0073A0  0A03               	xorlw	3	; case 6
  4254  0073A2  B4D8               	btfsc	status,2,c
  4255  0073A4  D783               	goto	l3111
  4256  0073A6  0A01               	xorlw	1	; case 7
  4257  0073A8  B4D8               	btfsc	status,2,c
  4258  0073AA  D789               	goto	l3115
  4259  0073AC  0A0F               	xorlw	15	; case 8
  4260  0073AE  B4D8               	btfsc	status,2,c
  4261  0073B0  D78F               	goto	l3119
  4262  0073B2  0A01               	xorlw	1	; case 9
  4263  0073B4  B4D8               	btfsc	status,2,c
  4264  0073B6  D795               	goto	l3123
  4265  0073B8  0A03               	xorlw	3	; case 10
  4266  0073BA  B4D8               	btfsc	status,2,c
  4267  0073BC  D79B               	goto	l3127
  4268  0073BE  0A01               	xorlw	1	; case 11
  4269  0073C0  B4D8               	btfsc	status,2,c
  4270  0073C2  D7A1               	goto	l3131
  4271  0073C4  0A07               	xorlw	7	; case 12
  4272  0073C6  B4D8               	btfsc	status,2,c
  4273  0073C8  D7A7               	goto	l3135
  4274  0073CA  0A01               	xorlw	1	; case 13
  4275  0073CC  B4D8               	btfsc	status,2,c
  4276  0073CE  D7AD               	goto	l3139
  4277  0073D0  0A03               	xorlw	3	; case 14
  4278  0073D2  B4D8               	btfsc	status,2,c
  4279  0073D4  D7B3               	goto	l3143
  4280  0073D6  0A01               	xorlw	1	; case 15
  4281  0073D8  B4D8               	btfsc	status,2,c
  4282  0073DA  D7B9               	goto	l3147
  4283  0073DC  D7C1               	goto	l3151
  4284  0073DE                     l354:
  4285                           
  4286                           ;main.c: 570:         Last_Button_Menu_Up_State = Button_Menu_Up_State;
  4287  0073DE  C033  F054         	movff	_Button_Menu_Up_State,_Last_Button_Menu_Up_State
  4288                           
  4289                           ;main.c: 571:         Exit_Time_Menu();
  4290  0073E2  ECDF  F033         	call	_Exit_Time_Menu	;wreg free
  4291                           
  4292                           ;main.c: 572:     } while (Flag_Menu == 1);
  4293  0073E6  042F               	decf	_Flag_Menu,w,c
  4294  0073E8  A4D8               	btfss	status,2,c
  4295  0073EA  0012               	return	
  4296  0073EC  D6C0               	goto	l3065
  4297  0073EE                     __end_of_Menu_P2:
  4298                           	opt callstack 0
  4299                           
  4300 ;; *************** function _Draw_9 *****************
  4301 ;; Defined at:
  4302 ;;		line 855 in file "main.c"
  4303 ;; Parameters:    Size  Location     Type
  4304 ;;		None
  4305 ;; Auto vars:     Size  Location     Type
  4306 ;;		None
  4307 ;; Return value:  Size  Location     Type
  4308 ;;                  1    wreg      void 
  4309 ;; Registers used:
  4310 ;;		wreg, status,2
  4311 ;; Tracked objects:
  4312 ;;		On entry : 0/0
  4313 ;;		On exit  : 0/0
  4314 ;;		Unchanged: 0/0
  4315 ;; Data sizes:     COMRAM   BANK0   BANK1   BANK2   BANK3   BANK4   BANK5   BANK6   BANK7
  4316 ;;      Params:         0       0       0       0       0       0       0       0       0
  4317 ;;      Locals:         0       0       0       0       0       0       0       0       0
  4318 ;;      Temps:          1       0       0       0       0       0       0       0       0
  4319 ;;      Totals:         1       0       0       0       0       0       0       0       0
  4320 ;;Total ram usage:        1 bytes
  4321 ;; Hardware stack levels used:    1
  4322 ;; This function calls:
  4323 ;;		Nothing
  4324 ;; This function is called by:
  4325 ;;		_Menu_P2
  4326 ;;		_Menu_P4
  4327 ;; This function uses a non-reentrant model
  4328 ;;
  4329                           
  4330                           	psect	text16
  4331  0063D8                     __ptext16:
  4332                           	opt callstack 0
  4333  0063D8                     _Draw_9:
  4334                           	opt callstack 27
  4335                           
  4336                           ;main.c: 856:     PORTB = 0xFF;
  4337                           
  4338                           ;incstack = 0
  4339  0063D8  6881               	setf	3969,c	;volatile
  4340                           
  4341                           ;main.c: 857:     PORTCbits.RC7 = 0;
  4342  0063DA  9E82               	bcf	3970,7,c	;volatile
  4343                           
  4344                           ;main.c: 858:     _delay((unsigned long)((1600)*(20000000/4000000.0)));
  4345  0063DC  0E0B               	movlw	11
  4346  0063DE  6E37               	movwf	??_Draw_9& (0+255),c
  4347  0063E0  0E62               	movlw	98
  4348  0063E2                     u2297:
  4349  0063E2  2EE8               	decfsz	wreg,f,c
  4350  0063E4  D7FE               	bra	u2297
  4351  0063E6  2E37               	decfsz	??_Draw_9& (0+255),f,c
  4352  0063E8  D7FC               	bra	u2297
  4353  0063EA  D000               	nop2	
  4354                           
  4355                           ;main.c: 859:     PORTCbits.RC7 = 0;
  4356  0063EC  9E82               	bcf	3970,7,c	;volatile
  4357                           
  4358                           ;main.c: 860:     PORTB = 0x60;
  4359  0063EE  0E60               	movlw	96
  4360  0063F0  6E81               	movwf	3969,c	;volatile
  4361                           
  4362                           ;main.c: 861:     PORTCbits.RC6 = 1;
  4363  0063F2  8C82               	bsf	3970,6,c	;volatile
  4364                           
  4365                           ;main.c: 862:     _delay((unsigned long)((1600)*(20000000/4000000.0)));
  4366  0063F4  0E0B               	movlw	11
  4367  0063F6  6E37               	movwf	??_Draw_9& (0+255),c
  4368  0063F8  0E62               	movlw	98
  4369  0063FA                     u2307:
  4370  0063FA  2EE8               	decfsz	wreg,f,c
  4371  0063FC  D7FE               	bra	u2307
  4372  0063FE  2E37               	decfsz	??_Draw_9& (0+255),f,c
  4373  006400  D7FC               	bra	u2307
  4374  006402  D000               	nop2	
  4375                           
  4376                           ;main.c: 863:     PORTCbits.RC6 = 0;
  4377  006404  9C82               	bcf	3970,6,c	;volatile
  4378  006406  0012               	return		;funcret
  4379  006408                     __end_of_Draw_9:
  4380                           	opt callstack 0
  4381                           
  4382 ;; *************** function _Draw_8 *****************
  4383 ;; Defined at:
  4384 ;;		line 844 in file "main.c"
  4385 ;; Parameters:    Size  Location     Type
  4386 ;;		None
  4387 ;; Auto vars:     Size  Location     Type
  4388 ;;		None
  4389 ;; Return value:  Size  Location     Type
  4390 ;;                  1    wreg      void 
  4391 ;; Registers used:
  4392 ;;		wreg, status,2
  4393 ;; Tracked objects:
  4394 ;;		On entry : 0/0
  4395 ;;		On exit  : 0/0
  4396 ;;		Unchanged: 0/0
  4397 ;; Data sizes:     COMRAM   BANK0   BANK1   BANK2   BANK3   BANK4   BANK5   BANK6   BANK7
  4398 ;;      Params:         0       0       0       0       0       0       0       0       0
  4399 ;;      Locals:         0       0       0       0       0       0       0       0       0
  4400 ;;      Temps:          1       0       0       0       0       0       0       0       0
  4401 ;;      Totals:         1       0       0       0       0       0       0       0       0
  4402 ;;Total ram usage:        1 bytes
  4403 ;; Hardware stack levels used:    1
  4404 ;; This function calls:
  4405 ;;		Nothing
  4406 ;; This function is called by:
  4407 ;;		_Menu_P2
  4408 ;;		_Menu_P3
  4409 ;;		_Menu_P4
  4410 ;; This function uses a non-reentrant model
  4411 ;;
  4412                           
  4413                           	psect	text17
  4414  0063A8                     __ptext17:
  4415                           	opt callstack 0
  4416  0063A8                     _Draw_8:
  4417                           	opt callstack 27
  4418                           
  4419                           ;main.c: 845:     PORTB = 0xFF;
  4420                           
  4421                           ;incstack = 0
  4422  0063A8  6881               	setf	3969,c	;volatile
  4423                           
  4424                           ;main.c: 846:     PORTCbits.RC7 = 0;
  4425  0063AA  9E82               	bcf	3970,7,c	;volatile
  4426                           
  4427                           ;main.c: 847:     _delay((unsigned long)((1600)*(20000000/4000000.0)));
  4428  0063AC  0E0B               	movlw	11
  4429  0063AE  6E37               	movwf	??_Draw_8& (0+255),c
  4430  0063B0  0E62               	movlw	98
  4431  0063B2                     u2317:
  4432  0063B2  2EE8               	decfsz	wreg,f,c
  4433  0063B4  D7FE               	bra	u2317
  4434  0063B6  2E37               	decfsz	??_Draw_8& (0+255),f,c
  4435  0063B8  D7FC               	bra	u2317
  4436  0063BA  D000               	nop2	
  4437                           
  4438                           ;main.c: 848:     PORTCbits.RC7 = 0;
  4439  0063BC  9E82               	bcf	3970,7,c	;volatile
  4440                           
  4441                           ;main.c: 849:     PORTB = 0x20;
  4442  0063BE  0E20               	movlw	32
  4443  0063C0  6E81               	movwf	3969,c	;volatile
  4444                           
  4445                           ;main.c: 850:     PORTCbits.RC6 = 1;
  4446  0063C2  8C82               	bsf	3970,6,c	;volatile
  4447                           
  4448                           ;main.c: 851:     _delay((unsigned long)((1600)*(20000000/4000000.0)));
  4449  0063C4  0E0B               	movlw	11
  4450  0063C6  6E37               	movwf	??_Draw_8& (0+255),c
  4451  0063C8  0E62               	movlw	98
  4452  0063CA                     u2327:
  4453  0063CA  2EE8               	decfsz	wreg,f,c
  4454  0063CC  D7FE               	bra	u2327
  4455  0063CE  2E37               	decfsz	??_Draw_8& (0+255),f,c
  4456  0063D0  D7FC               	bra	u2327
  4457  0063D2  D000               	nop2	
  4458                           
  4459                           ;main.c: 852:     PORTCbits.RC6 = 0;
  4460  0063D4  9C82               	bcf	3970,6,c	;volatile
  4461  0063D6  0012               	return		;funcret
  4462  0063D8                     __end_of_Draw_8:
  4463                           	opt callstack 0
  4464                           
  4465 ;; *************** function _Draw_7 *****************
  4466 ;; Defined at:
  4467 ;;		line 833 in file "main.c"
  4468 ;; Parameters:    Size  Location     Type
  4469 ;;		None
  4470 ;; Auto vars:     Size  Location     Type
  4471 ;;		None
  4472 ;; Return value:  Size  Location     Type
  4473 ;;                  1    wreg      void 
  4474 ;; Registers used:
  4475 ;;		wreg, status,2
  4476 ;; Tracked objects:
  4477 ;;		On entry : 0/0
  4478 ;;		On exit  : 0/0
  4479 ;;		Unchanged: 0/0
  4480 ;; Data sizes:     COMRAM   BANK0   BANK1   BANK2   BANK3   BANK4   BANK5   BANK6   BANK7
  4481 ;;      Params:         0       0       0       0       0       0       0       0       0
  4482 ;;      Locals:         0       0       0       0       0       0       0       0       0
  4483 ;;      Temps:          1       0       0       0       0       0       0       0       0
  4484 ;;      Totals:         1       0       0       0       0       0       0       0       0
  4485 ;;Total ram usage:        1 bytes
  4486 ;; Hardware stack levels used:    1
  4487 ;; This function calls:
  4488 ;;		Nothing
  4489 ;; This function is called by:
  4490 ;;		_Menu_P2
  4491 ;;		_Menu_P4
  4492 ;; This function uses a non-reentrant model
  4493 ;;
  4494                           
  4495                           	psect	text18
  4496  006378                     __ptext18:
  4497                           	opt callstack 0
  4498  006378                     _Draw_7:
  4499                           	opt callstack 27
  4500                           
  4501                           ;main.c: 834:     PORTB = 0xFF;
  4502                           
  4503                           ;incstack = 0
  4504  006378  6881               	setf	3969,c	;volatile
  4505                           
  4506                           ;main.c: 835:     PORTCbits.RC7 = 0;
  4507  00637A  9E82               	bcf	3970,7,c	;volatile
  4508                           
  4509                           ;main.c: 836:     _delay((unsigned long)((1600)*(20000000/4000000.0)));
  4510  00637C  0E0B               	movlw	11
  4511  00637E  6E37               	movwf	??_Draw_7& (0+255),c
  4512  006380  0E62               	movlw	98
  4513  006382                     u2337:
  4514  006382  2EE8               	decfsz	wreg,f,c
  4515  006384  D7FE               	bra	u2337
  4516  006386  2E37               	decfsz	??_Draw_7& (0+255),f,c
  4517  006388  D7FC               	bra	u2337
  4518  00638A  D000               	nop2	
  4519                           
  4520                           ;main.c: 837:     PORTCbits.RC7 = 0;
  4521  00638C  9E82               	bcf	3970,7,c	;volatile
  4522                           
  4523                           ;main.c: 838:     PORTB = 0x7C;
  4524  00638E  0E7C               	movlw	124
  4525  006390  6E81               	movwf	3969,c	;volatile
  4526                           
  4527                           ;main.c: 839:     PORTCbits.RC6 = 1;
  4528  006392  8C82               	bsf	3970,6,c	;volatile
  4529                           
  4530                           ;main.c: 840:     _delay((unsigned long)((1600)*(20000000/4000000.0)));
  4531  006394  0E0B               	movlw	11
  4532  006396  6E37               	movwf	??_Draw_7& (0+255),c
  4533  006398  0E62               	movlw	98
  4534  00639A                     u2347:
  4535  00639A  2EE8               	decfsz	wreg,f,c
  4536  00639C  D7FE               	bra	u2347
  4537  00639E  2E37               	decfsz	??_Draw_7& (0+255),f,c
  4538  0063A0  D7FC               	bra	u2347
  4539  0063A2  D000               	nop2	
  4540                           
  4541                           ;main.c: 841:     PORTCbits.RC6 = 0;
  4542  0063A4  9C82               	bcf	3970,6,c	;volatile
  4543  0063A6  0012               	return		;funcret
  4544  0063A8                     __end_of_Draw_7:
  4545                           	opt callstack 0
  4546                           
  4547 ;; *************** function _Draw_6 *****************
  4548 ;; Defined at:
  4549 ;;		line 822 in file "main.c"
  4550 ;; Parameters:    Size  Location     Type
  4551 ;;		None
  4552 ;; Auto vars:     Size  Location     Type
  4553 ;;		None
  4554 ;; Return value:  Size  Location     Type
  4555 ;;                  1    wreg      void 
  4556 ;; Registers used:
  4557 ;;		wreg, status,2
  4558 ;; Tracked objects:
  4559 ;;		On entry : 0/0
  4560 ;;		On exit  : 0/0
  4561 ;;		Unchanged: 0/0
  4562 ;; Data sizes:     COMRAM   BANK0   BANK1   BANK2   BANK3   BANK4   BANK5   BANK6   BANK7
  4563 ;;      Params:         0       0       0       0       0       0       0       0       0
  4564 ;;      Locals:         0       0       0       0       0       0       0       0       0
  4565 ;;      Temps:          1       0       0       0       0       0       0       0       0
  4566 ;;      Totals:         1       0       0       0       0       0       0       0       0
  4567 ;;Total ram usage:        1 bytes
  4568 ;; Hardware stack levels used:    1
  4569 ;; This function calls:
  4570 ;;		Nothing
  4571 ;; This function is called by:
  4572 ;;		_Menu_P2
  4573 ;;		_Menu_P3
  4574 ;;		_Menu_P4
  4575 ;; This function uses a non-reentrant model
  4576 ;;
  4577                           
  4578                           	psect	text19
  4579  006348                     __ptext19:
  4580                           	opt callstack 0
  4581  006348                     _Draw_6:
  4582                           	opt callstack 27
  4583                           
  4584                           ;main.c: 823:     PORTB = 0xFF;
  4585                           
  4586                           ;incstack = 0
  4587  006348  6881               	setf	3969,c	;volatile
  4588                           
  4589                           ;main.c: 824:     PORTCbits.RC7 = 0;
  4590  00634A  9E82               	bcf	3970,7,c	;volatile
  4591                           
  4592                           ;main.c: 825:     _delay((unsigned long)((1600)*(20000000/4000000.0)));
  4593  00634C  0E0B               	movlw	11
  4594  00634E  6E37               	movwf	??_Draw_6& (0+255),c
  4595  006350  0E62               	movlw	98
  4596  006352                     u2357:
  4597  006352  2EE8               	decfsz	wreg,f,c
  4598  006354  D7FE               	bra	u2357
  4599  006356  2E37               	decfsz	??_Draw_6& (0+255),f,c
  4600  006358  D7FC               	bra	u2357
  4601  00635A  D000               	nop2	
  4602                           
  4603                           ;main.c: 826:     PORTCbits.RC7 = 0;
  4604  00635C  9E82               	bcf	3970,7,c	;volatile
  4605                           
  4606                           ;main.c: 827:     PORTB = 0x22;
  4607  00635E  0E22               	movlw	34
  4608  006360  6E81               	movwf	3969,c	;volatile
  4609                           
  4610                           ;main.c: 828:     PORTCbits.RC6 = 1;
  4611  006362  8C82               	bsf	3970,6,c	;volatile
  4612                           
  4613                           ;main.c: 829:     _delay((unsigned long)((1600)*(20000000/4000000.0)));
  4614  006364  0E0B               	movlw	11
  4615  006366  6E37               	movwf	??_Draw_6& (0+255),c
  4616  006368  0E62               	movlw	98
  4617  00636A                     u2367:
  4618  00636A  2EE8               	decfsz	wreg,f,c
  4619  00636C  D7FE               	bra	u2367
  4620  00636E  2E37               	decfsz	??_Draw_6& (0+255),f,c
  4621  006370  D7FC               	bra	u2367
  4622  006372  D000               	nop2	
  4623                           
  4624                           ;main.c: 830:     PORTCbits.RC6 = 0;
  4625  006374  9C82               	bcf	3970,6,c	;volatile
  4626  006376  0012               	return		;funcret
  4627  006378                     __end_of_Draw_6:
  4628                           	opt callstack 0
  4629                           
  4630 ;; *************** function _Draw_5 *****************
  4631 ;; Defined at:
  4632 ;;		line 811 in file "main.c"
  4633 ;; Parameters:    Size  Location     Type
  4634 ;;		None
  4635 ;; Auto vars:     Size  Location     Type
  4636 ;;		None
  4637 ;; Return value:  Size  Location     Type
  4638 ;;                  1    wreg      void 
  4639 ;; Registers used:
  4640 ;;		wreg, status,2
  4641 ;; Tracked objects:
  4642 ;;		On entry : 0/0
  4643 ;;		On exit  : 0/0
  4644 ;;		Unchanged: 0/0
  4645 ;; Data sizes:     COMRAM   BANK0   BANK1   BANK2   BANK3   BANK4   BANK5   BANK6   BANK7
  4646 ;;      Params:         0       0       0       0       0       0       0       0       0
  4647 ;;      Locals:         0       0       0       0       0       0       0       0       0
  4648 ;;      Temps:          1       0       0       0       0       0       0       0       0
  4649 ;;      Totals:         1       0       0       0       0       0       0       0       0
  4650 ;;Total ram usage:        1 bytes
  4651 ;; Hardware stack levels used:    1
  4652 ;; This function calls:
  4653 ;;		Nothing
  4654 ;; This function is called by:
  4655 ;;		_Menu_P2
  4656 ;;		_Menu_P4
  4657 ;; This function uses a non-reentrant model
  4658 ;;
  4659                           
  4660                           	psect	text20
  4661  006318                     __ptext20:
  4662                           	opt callstack 0
  4663  006318                     _Draw_5:
  4664                           	opt callstack 27
  4665                           
  4666                           ;main.c: 812:     PORTB = 0xFF;
  4667                           
  4668                           ;incstack = 0
  4669  006318  6881               	setf	3969,c	;volatile
  4670                           
  4671                           ;main.c: 813:     PORTCbits.RC7 = 0;
  4672  00631A  9E82               	bcf	3970,7,c	;volatile
  4673                           
  4674                           ;main.c: 814:     _delay((unsigned long)((1600)*(20000000/4000000.0)));
  4675  00631C  0E0B               	movlw	11
  4676  00631E  6E37               	movwf	??_Draw_5& (0+255),c
  4677  006320  0E62               	movlw	98
  4678  006322                     u2377:
  4679  006322  2EE8               	decfsz	wreg,f,c
  4680  006324  D7FE               	bra	u2377
  4681  006326  2E37               	decfsz	??_Draw_5& (0+255),f,c
  4682  006328  D7FC               	bra	u2377
  4683  00632A  D000               	nop2	
  4684                           
  4685                           ;main.c: 815:     PORTCbits.RC7 = 0;
  4686  00632C  9E82               	bcf	3970,7,c	;volatile
  4687                           
  4688                           ;main.c: 816:     PORTB = 0x62;
  4689  00632E  0E62               	movlw	98
  4690  006330  6E81               	movwf	3969,c	;volatile
  4691                           
  4692                           ;main.c: 817:     PORTCbits.RC6 = 1;
  4693  006332  8C82               	bsf	3970,6,c	;volatile
  4694                           
  4695                           ;main.c: 818:     _delay((unsigned long)((1600)*(20000000/4000000.0)));
  4696  006334  0E0B               	movlw	11
  4697  006336  6E37               	movwf	??_Draw_5& (0+255),c
  4698  006338  0E62               	movlw	98
  4699  00633A                     u2387:
  4700  00633A  2EE8               	decfsz	wreg,f,c
  4701  00633C  D7FE               	bra	u2387
  4702  00633E  2E37               	decfsz	??_Draw_5& (0+255),f,c
  4703  006340  D7FC               	bra	u2387
  4704  006342  D000               	nop2	
  4705                           
  4706                           ;main.c: 819:     PORTCbits.RC6 = 0;
  4707  006344  9C82               	bcf	3970,6,c	;volatile
  4708  006346  0012               	return		;funcret
  4709  006348                     __end_of_Draw_5:
  4710                           	opt callstack 0
  4711                           
  4712 ;; *************** function _Draw_4 *****************
  4713 ;; Defined at:
  4714 ;;		line 800 in file "main.c"
  4715 ;; Parameters:    Size  Location     Type
  4716 ;;		None
  4717 ;; Auto vars:     Size  Location     Type
  4718 ;;		None
  4719 ;; Return value:  Size  Location     Type
  4720 ;;                  1    wreg      void 
  4721 ;; Registers used:
  4722 ;;		wreg, status,2
  4723 ;; Tracked objects:
  4724 ;;		On entry : 0/0
  4725 ;;		On exit  : 0/0
  4726 ;;		Unchanged: 0/0
  4727 ;; Data sizes:     COMRAM   BANK0   BANK1   BANK2   BANK3   BANK4   BANK5   BANK6   BANK7
  4728 ;;      Params:         0       0       0       0       0       0       0       0       0
  4729 ;;      Locals:         0       0       0       0       0       0       0       0       0
  4730 ;;      Temps:          1       0       0       0       0       0       0       0       0
  4731 ;;      Totals:         1       0       0       0       0       0       0       0       0
  4732 ;;Total ram usage:        1 bytes
  4733 ;; Hardware stack levels used:    1
  4734 ;; This function calls:
  4735 ;;		Nothing
  4736 ;; This function is called by:
  4737 ;;		_Menu_P2
  4738 ;;		_Menu_P3
  4739 ;;		_Menu_P4
  4740 ;; This function uses a non-reentrant model
  4741 ;;
  4742                           
  4743                           	psect	text21
  4744  0062E8                     __ptext21:
  4745                           	opt callstack 0
  4746  0062E8                     _Draw_4:
  4747                           	opt callstack 27
  4748                           
  4749                           ;main.c: 801:     PORTB = 0xFF;
  4750                           
  4751                           ;incstack = 0
  4752  0062E8  6881               	setf	3969,c	;volatile
  4753                           
  4754                           ;main.c: 802:     PORTCbits.RC7 = 0;
  4755  0062EA  9E82               	bcf	3970,7,c	;volatile
  4756                           
  4757                           ;main.c: 803:     _delay((unsigned long)((1600)*(20000000/4000000.0)));
  4758  0062EC  0E0B               	movlw	11
  4759  0062EE  6E37               	movwf	??_Draw_4& (0+255),c
  4760  0062F0  0E62               	movlw	98
  4761  0062F2                     u2397:
  4762  0062F2  2EE8               	decfsz	wreg,f,c
  4763  0062F4  D7FE               	bra	u2397
  4764  0062F6  2E37               	decfsz	??_Draw_4& (0+255),f,c
  4765  0062F8  D7FC               	bra	u2397
  4766  0062FA  D000               	nop2	
  4767                           
  4768                           ;main.c: 804:     PORTCbits.RC7 = 0;
  4769  0062FC  9E82               	bcf	3970,7,c	;volatile
  4770                           
  4771                           ;main.c: 805:     PORTB = 0x71;
  4772  0062FE  0E71               	movlw	113
  4773  006300  6E81               	movwf	3969,c	;volatile
  4774                           
  4775                           ;main.c: 806:     PORTCbits.RC6 = 1;
  4776  006302  8C82               	bsf	3970,6,c	;volatile
  4777                           
  4778                           ;main.c: 807:     _delay((unsigned long)((1600)*(20000000/4000000.0)));
  4779  006304  0E0B               	movlw	11
  4780  006306  6E37               	movwf	??_Draw_4& (0+255),c
  4781  006308  0E62               	movlw	98
  4782  00630A                     u2407:
  4783  00630A  2EE8               	decfsz	wreg,f,c
  4784  00630C  D7FE               	bra	u2407
  4785  00630E  2E37               	decfsz	??_Draw_4& (0+255),f,c
  4786  006310  D7FC               	bra	u2407
  4787  006312  D000               	nop2	
  4788                           
  4789                           ;main.c: 808:     PORTCbits.RC6 = 0;
  4790  006314  9C82               	bcf	3970,6,c	;volatile
  4791  006316  0012               	return		;funcret
  4792  006318                     __end_of_Draw_4:
  4793                           	opt callstack 0
  4794                           
  4795 ;; *************** function _Draw_3 *****************
  4796 ;; Defined at:
  4797 ;;		line 789 in file "main.c"
  4798 ;; Parameters:    Size  Location     Type
  4799 ;;		None
  4800 ;; Auto vars:     Size  Location     Type
  4801 ;;		None
  4802 ;; Return value:  Size  Location     Type
  4803 ;;                  1    wreg      void 
  4804 ;; Registers used:
  4805 ;;		wreg, status,2
  4806 ;; Tracked objects:
  4807 ;;		On entry : 0/0
  4808 ;;		On exit  : 0/0
  4809 ;;		Unchanged: 0/0
  4810 ;; Data sizes:     COMRAM   BANK0   BANK1   BANK2   BANK3   BANK4   BANK5   BANK6   BANK7
  4811 ;;      Params:         0       0       0       0       0       0       0       0       0
  4812 ;;      Locals:         0       0       0       0       0       0       0       0       0
  4813 ;;      Temps:          1       0       0       0       0       0       0       0       0
  4814 ;;      Totals:         1       0       0       0       0       0       0       0       0
  4815 ;;Total ram usage:        1 bytes
  4816 ;; Hardware stack levels used:    1
  4817 ;; This function calls:
  4818 ;;		Nothing
  4819 ;; This function is called by:
  4820 ;;		_Menu_P2
  4821 ;;		_Menu_P4
  4822 ;; This function uses a non-reentrant model
  4823 ;;
  4824                           
  4825                           	psect	text22
  4826  0062B8                     __ptext22:
  4827                           	opt callstack 0
  4828  0062B8                     _Draw_3:
  4829                           	opt callstack 27
  4830                           
  4831                           ;main.c: 790:     PORTB = 0xFF;
  4832                           
  4833                           ;incstack = 0
  4834  0062B8  6881               	setf	3969,c	;volatile
  4835                           
  4836                           ;main.c: 791:     PORTCbits.RC7 = 0;
  4837  0062BA  9E82               	bcf	3970,7,c	;volatile
  4838                           
  4839                           ;main.c: 792:     _delay((unsigned long)((1600)*(20000000/4000000.0)));
  4840  0062BC  0E0B               	movlw	11
  4841  0062BE  6E37               	movwf	??_Draw_3& (0+255),c
  4842  0062C0  0E62               	movlw	98
  4843  0062C2                     u2417:
  4844  0062C2  2EE8               	decfsz	wreg,f,c
  4845  0062C4  D7FE               	bra	u2417
  4846  0062C6  2E37               	decfsz	??_Draw_3& (0+255),f,c
  4847  0062C8  D7FC               	bra	u2417
  4848  0062CA  D000               	nop2	
  4849                           
  4850                           ;main.c: 793:     PORTCbits.RC7 = 0;
  4851  0062CC  9E82               	bcf	3970,7,c	;volatile
  4852                           
  4853                           ;main.c: 794:     PORTB = 0x64;
  4854  0062CE  0E64               	movlw	100
  4855  0062D0  6E81               	movwf	3969,c	;volatile
  4856                           
  4857                           ;main.c: 795:     PORTCbits.RC6 = 1;
  4858  0062D2  8C82               	bsf	3970,6,c	;volatile
  4859                           
  4860                           ;main.c: 796:     _delay((unsigned long)((1600)*(20000000/4000000.0)));
  4861  0062D4  0E0B               	movlw	11
  4862  0062D6  6E37               	movwf	??_Draw_3& (0+255),c
  4863  0062D8  0E62               	movlw	98
  4864  0062DA                     u2427:
  4865  0062DA  2EE8               	decfsz	wreg,f,c
  4866  0062DC  D7FE               	bra	u2427
  4867  0062DE  2E37               	decfsz	??_Draw_3& (0+255),f,c
  4868  0062E0  D7FC               	bra	u2427
  4869  0062E2  D000               	nop2	
  4870                           
  4871                           ;main.c: 797:     PORTCbits.RC6 = 0;
  4872  0062E4  9C82               	bcf	3970,6,c	;volatile
  4873  0062E6  0012               	return		;funcret
  4874  0062E8                     __end_of_Draw_3:
  4875                           	opt callstack 0
  4876                           
  4877 ;; *************** function _Draw_2 *****************
  4878 ;; Defined at:
  4879 ;;		line 778 in file "main.c"
  4880 ;; Parameters:    Size  Location     Type
  4881 ;;		None
  4882 ;; Auto vars:     Size  Location     Type
  4883 ;;		None
  4884 ;; Return value:  Size  Location     Type
  4885 ;;                  1    wreg      void 
  4886 ;; Registers used:
  4887 ;;		wreg, status,2
  4888 ;; Tracked objects:
  4889 ;;		On entry : 0/0
  4890 ;;		On exit  : 0/0
  4891 ;;		Unchanged: 0/0
  4892 ;; Data sizes:     COMRAM   BANK0   BANK1   BANK2   BANK3   BANK4   BANK5   BANK6   BANK7
  4893 ;;      Params:         0       0       0       0       0       0       0       0       0
  4894 ;;      Locals:         0       0       0       0       0       0       0       0       0
  4895 ;;      Temps:          1       0       0       0       0       0       0       0       0
  4896 ;;      Totals:         1       0       0       0       0       0       0       0       0
  4897 ;;Total ram usage:        1 bytes
  4898 ;; Hardware stack levels used:    1
  4899 ;; This function calls:
  4900 ;;		Nothing
  4901 ;; This function is called by:
  4902 ;;		_Menu_P2
  4903 ;;		_Menu_P3
  4904 ;;		_Menu_P4
  4905 ;; This function uses a non-reentrant model
  4906 ;;
  4907                           
  4908                           	psect	text23
  4909  006288                     __ptext23:
  4910                           	opt callstack 0
  4911  006288                     _Draw_2:
  4912                           	opt callstack 27
  4913                           
  4914                           ;main.c: 779:     PORTB = 0xFF;
  4915                           
  4916                           ;incstack = 0
  4917  006288  6881               	setf	3969,c	;volatile
  4918                           
  4919                           ;main.c: 780:     PORTCbits.RC7 = 0;
  4920  00628A  9E82               	bcf	3970,7,c	;volatile
  4921                           
  4922                           ;main.c: 781:     _delay((unsigned long)((1600)*(20000000/4000000.0)));
  4923  00628C  0E0B               	movlw	11
  4924  00628E  6E37               	movwf	??_Draw_2& (0+255),c
  4925  006290  0E62               	movlw	98
  4926  006292                     u2437:
  4927  006292  2EE8               	decfsz	wreg,f,c
  4928  006294  D7FE               	bra	u2437
  4929  006296  2E37               	decfsz	??_Draw_2& (0+255),f,c
  4930  006298  D7FC               	bra	u2437
  4931  00629A  D000               	nop2	
  4932                           
  4933                           ;main.c: 782:     PORTCbits.RC7 = 0;
  4934  00629C  9E82               	bcf	3970,7,c	;volatile
  4935                           
  4936                           ;main.c: 783:     PORTB = 0xA4;
  4937  00629E  0EA4               	movlw	164
  4938  0062A0  6E81               	movwf	3969,c	;volatile
  4939                           
  4940                           ;main.c: 784:     PORTCbits.RC6 = 1;
  4941  0062A2  8C82               	bsf	3970,6,c	;volatile
  4942                           
  4943                           ;main.c: 785:     _delay((unsigned long)((1600)*(20000000/4000000.0)));
  4944  0062A4  0E0B               	movlw	11
  4945  0062A6  6E37               	movwf	??_Draw_2& (0+255),c
  4946  0062A8  0E62               	movlw	98
  4947  0062AA                     u2447:
  4948  0062AA  2EE8               	decfsz	wreg,f,c
  4949  0062AC  D7FE               	bra	u2447
  4950  0062AE  2E37               	decfsz	??_Draw_2& (0+255),f,c
  4951  0062B0  D7FC               	bra	u2447
  4952  0062B2  D000               	nop2	
  4953                           
  4954                           ;main.c: 786:     PORTCbits.RC6 = 0;
  4955  0062B4  9C82               	bcf	3970,6,c	;volatile
  4956  0062B6  0012               	return		;funcret
  4957  0062B8                     __end_of_Draw_2:
  4958                           	opt callstack 0
  4959                           
  4960 ;; *************** function _Draw_15 *****************
  4961 ;; Defined at:
  4962 ;;		line 921 in file "main.c"
  4963 ;; Parameters:    Size  Location     Type
  4964 ;;		None
  4965 ;; Auto vars:     Size  Location     Type
  4966 ;;		None
  4967 ;; Return value:  Size  Location     Type
  4968 ;;                  1    wreg      void 
  4969 ;; Registers used:
  4970 ;;		wreg, status,2
  4971 ;; Tracked objects:
  4972 ;;		On entry : 0/0
  4973 ;;		On exit  : 0/0
  4974 ;;		Unchanged: 0/0
  4975 ;; Data sizes:     COMRAM   BANK0   BANK1   BANK2   BANK3   BANK4   BANK5   BANK6   BANK7
  4976 ;;      Params:         0       0       0       0       0       0       0       0       0
  4977 ;;      Locals:         0       0       0       0       0       0       0       0       0
  4978 ;;      Temps:          1       0       0       0       0       0       0       0       0
  4979 ;;      Totals:         1       0       0       0       0       0       0       0       0
  4980 ;;Total ram usage:        1 bytes
  4981 ;; Hardware stack levels used:    1
  4982 ;; This function calls:
  4983 ;;		Nothing
  4984 ;; This function is called by:
  4985 ;;		_Menu_P2
  4986 ;;		_Menu_P4
  4987 ;; This function uses a non-reentrant model
  4988 ;;
  4989                           
  4990                           	psect	text24
  4991  0065FC                     __ptext24:
  4992                           	opt callstack 0
  4993  0065FC                     _Draw_15:
  4994                           	opt callstack 27
  4995                           
  4996                           ;main.c: 922:     PORTB = 0x7D;
  4997                           
  4998                           ;incstack = 0
  4999  0065FC  0E7D               	movlw	125
  5000  0065FE  6E81               	movwf	3969,c	;volatile
  5001                           
  5002                           ;main.c: 923:     PORTCbits.RC7 = 1;
  5003  006600  8E82               	bsf	3970,7,c	;volatile
  5004                           
  5005                           ;main.c: 924:     _delay((unsigned long)((1600)*(20000000/4000000.0)));
  5006  006602  0E0B               	movlw	11
  5007  006604  6E37               	movwf	??_Draw_15& (0+255),c
  5008  006606  0E62               	movlw	98
  5009  006608                     u2457:
  5010  006608  2EE8               	decfsz	wreg,f,c
  5011  00660A  D7FE               	bra	u2457
  5012  00660C  2E37               	decfsz	??_Draw_15& (0+255),f,c
  5013  00660E  D7FC               	bra	u2457
  5014  006610  D000               	nop2	
  5015                           
  5016                           ;main.c: 925:     PORTCbits.RC7 = 0;
  5017  006612  9E82               	bcf	3970,7,c	;volatile
  5018                           
  5019                           ;main.c: 926:     PORTB = 0x62;
  5020  006614  0E62               	movlw	98
  5021  006616  6E81               	movwf	3969,c	;volatile
  5022                           
  5023                           ;main.c: 927:     PORTCbits.RC6 = 1;
  5024  006618  8C82               	bsf	3970,6,c	;volatile
  5025                           
  5026                           ;main.c: 928:     _delay((unsigned long)((1600)*(20000000/4000000.0)));
  5027  00661A  0E0B               	movlw	11
  5028  00661C  6E37               	movwf	??_Draw_15& (0+255),c
  5029  00661E  0E62               	movlw	98
  5030  006620                     u2467:
  5031  006620  2EE8               	decfsz	wreg,f,c
  5032  006622  D7FE               	bra	u2467
  5033  006624  2E37               	decfsz	??_Draw_15& (0+255),f,c
  5034  006626  D7FC               	bra	u2467
  5035  006628  D000               	nop2	
  5036                           
  5037                           ;main.c: 929:     PORTCbits.RC6 = 0;
  5038  00662A  9C82               	bcf	3970,6,c	;volatile
  5039  00662C  0012               	return		;funcret
  5040  00662E                     __end_of_Draw_15:
  5041                           	opt callstack 0
  5042                           
  5043 ;; *************** function _Draw_14 *****************
  5044 ;; Defined at:
  5045 ;;		line 910 in file "main.c"
  5046 ;; Parameters:    Size  Location     Type
  5047 ;;		None
  5048 ;; Auto vars:     Size  Location     Type
  5049 ;;		None
  5050 ;; Return value:  Size  Location     Type
  5051 ;;                  1    wreg      void 
  5052 ;; Registers used:
  5053 ;;		wreg, status,2
  5054 ;; Tracked objects:
  5055 ;;		On entry : 0/0
  5056 ;;		On exit  : 0/0
  5057 ;;		Unchanged: 0/0
  5058 ;; Data sizes:     COMRAM   BANK0   BANK1   BANK2   BANK3   BANK4   BANK5   BANK6   BANK7
  5059 ;;      Params:         0       0       0       0       0       0       0       0       0
  5060 ;;      Locals:         0       0       0       0       0       0       0       0       0
  5061 ;;      Temps:          1       0       0       0       0       0       0       0       0
  5062 ;;      Totals:         1       0       0       0       0       0       0       0       0
  5063 ;;Total ram usage:        1 bytes
  5064 ;; Hardware stack levels used:    1
  5065 ;; This function calls:
  5066 ;;		Nothing
  5067 ;; This function is called by:
  5068 ;;		_Menu_P2
  5069 ;;		_Menu_P3
  5070 ;;		_Menu_P4
  5071 ;; This function uses a non-reentrant model
  5072 ;;
  5073                           
  5074                           	psect	text25
  5075  0065CA                     __ptext25:
  5076                           	opt callstack 0
  5077  0065CA                     _Draw_14:
  5078                           	opt callstack 27
  5079                           
  5080                           ;main.c: 911:     PORTB = 0x7D;
  5081                           
  5082                           ;incstack = 0
  5083  0065CA  0E7D               	movlw	125
  5084  0065CC  6E81               	movwf	3969,c	;volatile
  5085                           
  5086                           ;main.c: 912:     PORTCbits.RC7 = 1;
  5087  0065CE  8E82               	bsf	3970,7,c	;volatile
  5088                           
  5089                           ;main.c: 913:     _delay((unsigned long)((1600)*(20000000/4000000.0)));
  5090  0065D0  0E0B               	movlw	11
  5091  0065D2  6E37               	movwf	??_Draw_14& (0+255),c
  5092  0065D4  0E62               	movlw	98
  5093  0065D6                     u2477:
  5094  0065D6  2EE8               	decfsz	wreg,f,c
  5095  0065D8  D7FE               	bra	u2477
  5096  0065DA  2E37               	decfsz	??_Draw_14& (0+255),f,c
  5097  0065DC  D7FC               	bra	u2477
  5098  0065DE  D000               	nop2	
  5099                           
  5100                           ;main.c: 914:     PORTCbits.RC7 = 0;
  5101  0065E0  9E82               	bcf	3970,7,c	;volatile
  5102                           
  5103                           ;main.c: 915:     PORTB = 0x71;
  5104  0065E2  0E71               	movlw	113
  5105  0065E4  6E81               	movwf	3969,c	;volatile
  5106                           
  5107                           ;main.c: 916:     PORTCbits.RC6 = 1;
  5108  0065E6  8C82               	bsf	3970,6,c	;volatile
  5109                           
  5110                           ;main.c: 917:     _delay((unsigned long)((1600)*(20000000/4000000.0)));
  5111  0065E8  0E0B               	movlw	11
  5112  0065EA  6E37               	movwf	??_Draw_14& (0+255),c
  5113  0065EC  0E62               	movlw	98
  5114  0065EE                     u2487:
  5115  0065EE  2EE8               	decfsz	wreg,f,c
  5116  0065F0  D7FE               	bra	u2487
  5117  0065F2  2E37               	decfsz	??_Draw_14& (0+255),f,c
  5118  0065F4  D7FC               	bra	u2487
  5119  0065F6  D000               	nop2	
  5120                           
  5121                           ;main.c: 918:     PORTCbits.RC6 = 0;
  5122  0065F8  9C82               	bcf	3970,6,c	;volatile
  5123  0065FA  0012               	return		;funcret
  5124  0065FC                     __end_of_Draw_14:
  5125                           	opt callstack 0
  5126                           
  5127 ;; *************** function _Draw_13 *****************
  5128 ;; Defined at:
  5129 ;;		line 899 in file "main.c"
  5130 ;; Parameters:    Size  Location     Type
  5131 ;;		None
  5132 ;; Auto vars:     Size  Location     Type
  5133 ;;		None
  5134 ;; Return value:  Size  Location     Type
  5135 ;;                  1    wreg      void 
  5136 ;; Registers used:
  5137 ;;		wreg, status,2
  5138 ;; Tracked objects:
  5139 ;;		On entry : 0/0
  5140 ;;		On exit  : 0/0
  5141 ;;		Unchanged: 0/0
  5142 ;; Data sizes:     COMRAM   BANK0   BANK1   BANK2   BANK3   BANK4   BANK5   BANK6   BANK7
  5143 ;;      Params:         0       0       0       0       0       0       0       0       0
  5144 ;;      Locals:         0       0       0       0       0       0       0       0       0
  5145 ;;      Temps:          1       0       0       0       0       0       0       0       0
  5146 ;;      Totals:         1       0       0       0       0       0       0       0       0
  5147 ;;Total ram usage:        1 bytes
  5148 ;; Hardware stack levels used:    1
  5149 ;; This function calls:
  5150 ;;		Nothing
  5151 ;; This function is called by:
  5152 ;;		_Menu_P2
  5153 ;;		_Menu_P4
  5154 ;; This function uses a non-reentrant model
  5155 ;;
  5156                           
  5157                           	psect	text26
  5158  006598                     __ptext26:
  5159                           	opt callstack 0
  5160  006598                     _Draw_13:
  5161                           	opt callstack 27
  5162                           
  5163                           ;main.c: 900:     PORTB = 0x7D;
  5164                           
  5165                           ;incstack = 0
  5166  006598  0E7D               	movlw	125
  5167  00659A  6E81               	movwf	3969,c	;volatile
  5168                           
  5169                           ;main.c: 901:     PORTCbits.RC7 = 1;
  5170  00659C  8E82               	bsf	3970,7,c	;volatile
  5171                           
  5172                           ;main.c: 902:     _delay((unsigned long)((1600)*(20000000/4000000.0)));
  5173  00659E  0E0B               	movlw	11
  5174  0065A0  6E37               	movwf	??_Draw_13& (0+255),c
  5175  0065A2  0E62               	movlw	98
  5176  0065A4                     u2497:
  5177  0065A4  2EE8               	decfsz	wreg,f,c
  5178  0065A6  D7FE               	bra	u2497
  5179  0065A8  2E37               	decfsz	??_Draw_13& (0+255),f,c
  5180  0065AA  D7FC               	bra	u2497
  5181  0065AC  D000               	nop2	
  5182                           
  5183                           ;main.c: 903:     PORTCbits.RC7 = 0;
  5184  0065AE  9E82               	bcf	3970,7,c	;volatile
  5185                           
  5186                           ;main.c: 904:     PORTB = 0x64;
  5187  0065B0  0E64               	movlw	100
  5188  0065B2  6E81               	movwf	3969,c	;volatile
  5189                           
  5190                           ;main.c: 905:     PORTCbits.RC6 = 1;
  5191  0065B4  8C82               	bsf	3970,6,c	;volatile
  5192                           
  5193                           ;main.c: 906:     _delay((unsigned long)((1600)*(20000000/4000000.0)));
  5194  0065B6  0E0B               	movlw	11
  5195  0065B8  6E37               	movwf	??_Draw_13& (0+255),c
  5196  0065BA  0E62               	movlw	98
  5197  0065BC                     u2507:
  5198  0065BC  2EE8               	decfsz	wreg,f,c
  5199  0065BE  D7FE               	bra	u2507
  5200  0065C0  2E37               	decfsz	??_Draw_13& (0+255),f,c
  5201  0065C2  D7FC               	bra	u2507
  5202  0065C4  D000               	nop2	
  5203                           
  5204                           ;main.c: 907:     PORTCbits.RC6 = 0;
  5205  0065C6  9C82               	bcf	3970,6,c	;volatile
  5206  0065C8  0012               	return		;funcret
  5207  0065CA                     __end_of_Draw_13:
  5208                           	opt callstack 0
  5209                           
  5210 ;; *************** function _Draw_12 *****************
  5211 ;; Defined at:
  5212 ;;		line 888 in file "main.c"
  5213 ;; Parameters:    Size  Location     Type
  5214 ;;		None
  5215 ;; Auto vars:     Size  Location     Type
  5216 ;;		None
  5217 ;; Return value:  Size  Location     Type
  5218 ;;                  1    wreg      void 
  5219 ;; Registers used:
  5220 ;;		wreg, status,2
  5221 ;; Tracked objects:
  5222 ;;		On entry : 0/0
  5223 ;;		On exit  : 0/0
  5224 ;;		Unchanged: 0/0
  5225 ;; Data sizes:     COMRAM   BANK0   BANK1   BANK2   BANK3   BANK4   BANK5   BANK6   BANK7
  5226 ;;      Params:         0       0       0       0       0       0       0       0       0
  5227 ;;      Locals:         0       0       0       0       0       0       0       0       0
  5228 ;;      Temps:          1       0       0       0       0       0       0       0       0
  5229 ;;      Totals:         1       0       0       0       0       0       0       0       0
  5230 ;;Total ram usage:        1 bytes
  5231 ;; Hardware stack levels used:    1
  5232 ;; This function calls:
  5233 ;;		Nothing
  5234 ;; This function is called by:
  5235 ;;		_Menu_P2
  5236 ;;		_Menu_P3
  5237 ;;		_Menu_P4
  5238 ;; This function uses a non-reentrant model
  5239 ;;
  5240                           
  5241                           	psect	text27
  5242  006566                     __ptext27:
  5243                           	opt callstack 0
  5244  006566                     _Draw_12:
  5245                           	opt callstack 27
  5246                           
  5247                           ;main.c: 889:     PORTB = 0x7D;
  5248                           
  5249                           ;incstack = 0
  5250  006566  0E7D               	movlw	125
  5251  006568  6E81               	movwf	3969,c	;volatile
  5252                           
  5253                           ;main.c: 890:     PORTCbits.RC7 = 1;
  5254  00656A  8E82               	bsf	3970,7,c	;volatile
  5255                           
  5256                           ;main.c: 891:     _delay((unsigned long)((1600)*(20000000/4000000.0)));
  5257  00656C  0E0B               	movlw	11
  5258  00656E  6E37               	movwf	??_Draw_12& (0+255),c
  5259  006570  0E62               	movlw	98
  5260  006572                     u2517:
  5261  006572  2EE8               	decfsz	wreg,f,c
  5262  006574  D7FE               	bra	u2517
  5263  006576  2E37               	decfsz	??_Draw_12& (0+255),f,c
  5264  006578  D7FC               	bra	u2517
  5265  00657A  D000               	nop2	
  5266                           
  5267                           ;main.c: 892:     PORTCbits.RC7 = 0;
  5268  00657C  9E82               	bcf	3970,7,c	;volatile
  5269                           
  5270                           ;main.c: 893:     PORTB = 0xA4;
  5271  00657E  0EA4               	movlw	164
  5272  006580  6E81               	movwf	3969,c	;volatile
  5273                           
  5274                           ;main.c: 894:     PORTCbits.RC6 = 1;
  5275  006582  8C82               	bsf	3970,6,c	;volatile
  5276                           
  5277                           ;main.c: 895:     _delay((unsigned long)((1600)*(20000000/4000000.0)));
  5278  006584  0E0B               	movlw	11
  5279  006586  6E37               	movwf	??_Draw_12& (0+255),c
  5280  006588  0E62               	movlw	98
  5281  00658A                     u2527:
  5282  00658A  2EE8               	decfsz	wreg,f,c
  5283  00658C  D7FE               	bra	u2527
  5284  00658E  2E37               	decfsz	??_Draw_12& (0+255),f,c
  5285  006590  D7FC               	bra	u2527
  5286  006592  D000               	nop2	
  5287                           
  5288                           ;main.c: 896:     PORTCbits.RC6 = 0;
  5289  006594  9C82               	bcf	3970,6,c	;volatile
  5290  006596  0012               	return		;funcret
  5291  006598                     __end_of_Draw_12:
  5292                           	opt callstack 0
  5293                           
  5294 ;; *************** function _Draw_11 *****************
  5295 ;; Defined at:
  5296 ;;		line 877 in file "main.c"
  5297 ;; Parameters:    Size  Location     Type
  5298 ;;		None
  5299 ;; Auto vars:     Size  Location     Type
  5300 ;;		None
  5301 ;; Return value:  Size  Location     Type
  5302 ;;                  1    wreg      void 
  5303 ;; Registers used:
  5304 ;;		wreg, status,2
  5305 ;; Tracked objects:
  5306 ;;		On entry : 0/0
  5307 ;;		On exit  : 0/0
  5308 ;;		Unchanged: 0/0
  5309 ;; Data sizes:     COMRAM   BANK0   BANK1   BANK2   BANK3   BANK4   BANK5   BANK6   BANK7
  5310 ;;      Params:         0       0       0       0       0       0       0       0       0
  5311 ;;      Locals:         0       0       0       0       0       0       0       0       0
  5312 ;;      Temps:          1       0       0       0       0       0       0       0       0
  5313 ;;      Totals:         1       0       0       0       0       0       0       0       0
  5314 ;;Total ram usage:        1 bytes
  5315 ;; Hardware stack levels used:    1
  5316 ;; This function calls:
  5317 ;;		Nothing
  5318 ;; This function is called by:
  5319 ;;		_Menu_P2
  5320 ;;		_Menu_P4
  5321 ;; This function uses a non-reentrant model
  5322 ;;
  5323                           
  5324                           	psect	text28
  5325  006534                     __ptext28:
  5326                           	opt callstack 0
  5327  006534                     _Draw_11:
  5328                           	opt callstack 27
  5329                           
  5330                           ;main.c: 878:     PORTB = 0x7D;
  5331                           
  5332                           ;incstack = 0
  5333  006534  0E7D               	movlw	125
  5334  006536  6E81               	movwf	3969,c	;volatile
  5335                           
  5336                           ;main.c: 879:     PORTCbits.RC7 = 1;
  5337  006538  8E82               	bsf	3970,7,c	;volatile
  5338                           
  5339                           ;main.c: 880:     _delay((unsigned long)((1600)*(20000000/4000000.0)));
  5340  00653A  0E0B               	movlw	11
  5341  00653C  6E37               	movwf	??_Draw_11& (0+255),c
  5342  00653E  0E62               	movlw	98
  5343  006540                     u2537:
  5344  006540  2EE8               	decfsz	wreg,f,c
  5345  006542  D7FE               	bra	u2537
  5346  006544  2E37               	decfsz	??_Draw_11& (0+255),f,c
  5347  006546  D7FC               	bra	u2537
  5348  006548  D000               	nop2	
  5349                           
  5350                           ;main.c: 881:     PORTCbits.RC7 = 0;
  5351  00654A  9E82               	bcf	3970,7,c	;volatile
  5352                           
  5353                           ;main.c: 882:     PORTB = 0x7D;
  5354  00654C  0E7D               	movlw	125
  5355  00654E  6E81               	movwf	3969,c	;volatile
  5356                           
  5357                           ;main.c: 883:     PORTCbits.RC6 = 1;
  5358  006550  8C82               	bsf	3970,6,c	;volatile
  5359                           
  5360                           ;main.c: 884:     _delay((unsigned long)((1600)*(20000000/4000000.0)));
  5361  006552  0E0B               	movlw	11
  5362  006554  6E37               	movwf	??_Draw_11& (0+255),c
  5363  006556  0E62               	movlw	98
  5364  006558                     u2547:
  5365  006558  2EE8               	decfsz	wreg,f,c
  5366  00655A  D7FE               	bra	u2547
  5367  00655C  2E37               	decfsz	??_Draw_11& (0+255),f,c
  5368  00655E  D7FC               	bra	u2547
  5369  006560  D000               	nop2	
  5370                           
  5371                           ;main.c: 885:     PORTCbits.RC6 = 0;
  5372  006562  9C82               	bcf	3970,6,c	;volatile
  5373  006564  0012               	return		;funcret
  5374  006566                     __end_of_Draw_11:
  5375                           	opt callstack 0
  5376                           
  5377 ;; *************** function _Draw_10 *****************
  5378 ;; Defined at:
  5379 ;;		line 866 in file "main.c"
  5380 ;; Parameters:    Size  Location     Type
  5381 ;;		None
  5382 ;; Auto vars:     Size  Location     Type
  5383 ;;		None
  5384 ;; Return value:  Size  Location     Type
  5385 ;;                  1    wreg      void 
  5386 ;; Registers used:
  5387 ;;		wreg, status,2
  5388 ;; Tracked objects:
  5389 ;;		On entry : 0/0
  5390 ;;		On exit  : 0/0
  5391 ;;		Unchanged: 0/0
  5392 ;; Data sizes:     COMRAM   BANK0   BANK1   BANK2   BANK3   BANK4   BANK5   BANK6   BANK7
  5393 ;;      Params:         0       0       0       0       0       0       0       0       0
  5394 ;;      Locals:         0       0       0       0       0       0       0       0       0
  5395 ;;      Temps:          1       0       0       0       0       0       0       0       0
  5396 ;;      Totals:         1       0       0       0       0       0       0       0       0
  5397 ;;Total ram usage:        1 bytes
  5398 ;; Hardware stack levels used:    1
  5399 ;; This function calls:
  5400 ;;		Nothing
  5401 ;; This function is called by:
  5402 ;;		_Menu_P2
  5403 ;;		_Menu_P3
  5404 ;;		_Menu_P4
  5405 ;; This function uses a non-reentrant model
  5406 ;;
  5407                           
  5408                           	psect	text29
  5409  006502                     __ptext29:
  5410                           	opt callstack 0
  5411  006502                     _Draw_10:
  5412                           	opt callstack 27
  5413                           
  5414                           ;main.c: 867:     PORTB = 0x7D;
  5415                           
  5416                           ;incstack = 0
  5417  006502  0E7D               	movlw	125
  5418  006504  6E81               	movwf	3969,c	;volatile
  5419                           
  5420                           ;main.c: 868:     PORTCbits.RC7 = 1;
  5421  006506  8E82               	bsf	3970,7,c	;volatile
  5422                           
  5423                           ;main.c: 869:     _delay((unsigned long)((1600)*(20000000/4000000.0)));
  5424  006508  0E0B               	movlw	11
  5425  00650A  6E37               	movwf	??_Draw_10& (0+255),c
  5426  00650C  0E62               	movlw	98
  5427  00650E                     u2557:
  5428  00650E  2EE8               	decfsz	wreg,f,c
  5429  006510  D7FE               	bra	u2557
  5430  006512  2E37               	decfsz	??_Draw_10& (0+255),f,c
  5431  006514  D7FC               	bra	u2557
  5432  006516  D000               	nop2	
  5433                           
  5434                           ;main.c: 870:     PORTCbits.RC7 = 0;
  5435  006518  9E82               	bcf	3970,7,c	;volatile
  5436                           
  5437                           ;main.c: 871:     PORTB = 0x28;
  5438  00651A  0E28               	movlw	40
  5439  00651C  6E81               	movwf	3969,c	;volatile
  5440                           
  5441                           ;main.c: 872:     PORTCbits.RC6 = 1;
  5442  00651E  8C82               	bsf	3970,6,c	;volatile
  5443                           
  5444                           ;main.c: 873:     _delay((unsigned long)((1600)*(20000000/4000000.0)));
  5445  006520  0E0B               	movlw	11
  5446  006522  6E37               	movwf	??_Draw_10& (0+255),c
  5447  006524  0E62               	movlw	98
  5448  006526                     u2567:
  5449  006526  2EE8               	decfsz	wreg,f,c
  5450  006528  D7FE               	bra	u2567
  5451  00652A  2E37               	decfsz	??_Draw_10& (0+255),f,c
  5452  00652C  D7FC               	bra	u2567
  5453  00652E  D000               	nop2	
  5454                           
  5455                           ;main.c: 874:     PORTCbits.RC6 = 0;
  5456  006530  9C82               	bcf	3970,6,c	;volatile
  5457  006532  0012               	return		;funcret
  5458  006534                     __end_of_Draw_10:
  5459                           	opt callstack 0
  5460                           
  5461 ;; *************** function _Menu_P1 *****************
  5462 ;; Defined at:
  5463 ;;		line 483 in file "main.c"
  5464 ;; Parameters:    Size  Location     Type
  5465 ;;		None
  5466 ;; Auto vars:     Size  Location     Type
  5467 ;;		None
  5468 ;; Return value:  Size  Location     Type
  5469 ;;                  1    wreg      void 
  5470 ;; Registers used:
  5471 ;;		wreg, status,2, status,0, cstack
  5472 ;; Tracked objects:
  5473 ;;		On entry : 0/0
  5474 ;;		On exit  : 0/0
  5475 ;;		Unchanged: 0/0
  5476 ;; Data sizes:     COMRAM   BANK0   BANK1   BANK2   BANK3   BANK4   BANK5   BANK6   BANK7
  5477 ;;      Params:         0       0       0       0       0       0       0       0       0
  5478 ;;      Locals:         0       0       0       0       0       0       0       0       0
  5479 ;;      Temps:          2       0       0       0       0       0       0       0       0
  5480 ;;      Totals:         2       0       0       0       0       0       0       0       0
  5481 ;;Total ram usage:        2 bytes
  5482 ;; Hardware stack levels used:    1
  5483 ;; Hardware stack levels required when called:    2
  5484 ;; This function calls:
  5485 ;;		_Draw_0
  5486 ;;		_Draw_1
  5487 ;;		_Exit_Time_Menu
  5488 ;;		_Recording
  5489 ;;		_eeprom_writex
  5490 ;; This function is called by:
  5491 ;;		_Menu
  5492 ;; This function uses a non-reentrant model
  5493 ;;
  5494                           
  5495                           	psect	text30
  5496  006BB0                     __ptext30:
  5497                           	opt callstack 0
  5498  006BB0                     _Menu_P1:
  5499                           	opt callstack 26
  5500                           
  5501                           ;main.c: 485:         switch (Count_Push_Button)
  5502                           
  5503                           ;incstack = 0
  5504                           ;main.c: 484:     do {
  5505  006BB0  D00B               	goto	l2981
  5506  006BB2                     l2973:
  5507  006BB2  ECFC  F030         	call	_Draw_0	;wreg free
  5508  006BB6  D018               	goto	l2983
  5509  006BB8                     l2975:
  5510  006BB8  EC14  F031         	call	_Draw_1	;wreg free
  5511  006BBC  D015               	goto	l2983
  5512  006BBE                     l2977:
  5513  006BBE  0E00               	movlw	0
  5514  006BC0  6E28               	movwf	_Count_Push_Button+1,c
  5515  006BC2  0E00               	movlw	0
  5516  006BC4  6E27               	movwf	_Count_Push_Button,c
  5517  006BC6  D010               	goto	l2983
  5518  006BC8                     l2981:
  5519  006BC8  C027  F03A         	movff	_Count_Push_Button,??_Menu_P1
  5520  006BCC  C028  F03B         	movff	_Count_Push_Button+1,??_Menu_P1+1
  5521                           
  5522                           ; Switch on 2 bytes has been partitioned into a top level switch of size 1, and 1 sub-sw
      +                          itches
  5523                           ; Switch size 1, requested type "simple"
  5524                           ; Number of cases is 1, Range of values is 0 to 0
  5525                           ; switch strategies available:
  5526                           ; Name         Instructions Cycles
  5527                           ; simple_byte            4     3 (average)
  5528                           ;	Chosen strategy is simple_byte
  5529  006BD0  503B               	movf	??_Menu_P1+1,w,c
  5530  006BD2  0A00               	xorlw	0	; case 0
  5531  006BD4  A4D8               	btfss	status,2,c
  5532  006BD6  D7F3               	goto	l2977
  5533                           
  5534                           ; Switch size 1, requested type "simple"
  5535                           ; Number of cases is 2, Range of values is 0 to 1
  5536                           ; switch strategies available:
  5537                           ; Name         Instructions Cycles
  5538                           ; simple_byte            7     4 (average)
  5539                           ;	Chosen strategy is simple_byte
  5540  006BD8  503A               	movf	??_Menu_P1,w,c
  5541  006BDA  0A00               	xorlw	0	; case 0
  5542  006BDC  B4D8               	btfsc	status,2,c
  5543  006BDE  D7E9               	goto	l2973
  5544  006BE0  0A01               	xorlw	1	; case 1
  5545  006BE2  B4D8               	btfsc	status,2,c
  5546  006BE4  D7E9               	goto	l2975
  5547  006BE6  D7EB               	goto	l2977
  5548  006BE8                     l2983:
  5549                           
  5550                           ;main.c: 492:         Button_Menu_Down_State = PORTAbits.RA2;
  5551  006BE8  A480               	btfss	3968,2,c	;volatile
  5552  006BEA  D002               	goto	u980
  5553  006BEC  0E01               	movlw	1
  5554  006BEE  D001               	goto	u986
  5555  006BF0                     u980:
  5556  006BF0  0E00               	movlw	0
  5557  006BF2                     u986:
  5558  006BF2  6E32               	movwf	_Button_Menu_Down_State,c
  5559                           
  5560                           ;main.c: 493:         if (Button_Menu_Down_State == 0 && Last_Button_Menu_Down_State == 
      +                          1) {
  5561  006BF4  5032               	movf	_Button_Menu_Down_State,w,c
  5562  006BF6  A4D8               	btfss	status,2,c
  5563  006BF8  D00D               	goto	l2991
  5564  006BFA  0453               	decf	_Last_Button_Menu_Down_State,w,c
  5565  006BFC  A4D8               	btfss	status,2,c
  5566  006BFE  D00A               	goto	l2991
  5567                           
  5568                           ;main.c: 494:             Count_Push_Button++;
  5569  006C00  4A27               	infsnz	_Count_Push_Button,f,c
  5570  006C02  2A28               	incf	_Count_Push_Button+1,f,c
  5571                           
  5572                           ;main.c: 495:             Count_Exit_Menu = 0;
  5573  006C04  0E00               	movlw	0
  5574  006C06  6E11               	movwf	_Count_Exit_Menu,c
  5575  006C08  0E00               	movlw	0
  5576  006C0A  6E12               	movwf	_Count_Exit_Menu+1,c
  5577  006C0C  0E00               	movlw	0
  5578  006C0E  6E13               	movwf	_Count_Exit_Menu+2,c
  5579  006C10  0E00               	movlw	0
  5580  006C12  6E14               	movwf	_Count_Exit_Menu+3,c
  5581  006C14                     l2991:
  5582                           
  5583                           ;main.c: 497:         Last_Button_Menu_Down_State = Button_Menu_Down_State;
  5584  006C14  C032  F053         	movff	_Button_Menu_Down_State,_Last_Button_Menu_Down_State
  5585                           
  5586                           ;main.c: 500:         Button_Menu_Up_State = PORTAbits.RA1;
  5587  006C18  A280               	btfss	3968,1,c	;volatile
  5588  006C1A  D002               	goto	u1010
  5589  006C1C  0E01               	movlw	1
  5590  006C1E  D001               	goto	u1016
  5591  006C20                     u1010:
  5592  006C20  0E00               	movlw	0
  5593  006C22                     u1016:
  5594  006C22  6E33               	movwf	_Button_Menu_Up_State,c
  5595                           
  5596                           ;main.c: 501:         Count_Exit_Menu = 0;
  5597  006C24  0E00               	movlw	0
  5598  006C26  6E11               	movwf	_Count_Exit_Menu,c
  5599  006C28  0E00               	movlw	0
  5600  006C2A  6E12               	movwf	_Count_Exit_Menu+1,c
  5601  006C2C  0E00               	movlw	0
  5602  006C2E  6E13               	movwf	_Count_Exit_Menu+2,c
  5603  006C30  0E00               	movlw	0
  5604  006C32  6E14               	movwf	_Count_Exit_Menu+3,c
  5605                           
  5606                           ;main.c: 502:         if (Button_Menu_Up_State == 0 && Last_Button_Menu_Up_State == 1) {
  5607  006C34  5033               	movf	_Button_Menu_Up_State,w,c
  5608  006C36  A4D8               	btfss	status,2,c
  5609  006C38  D02D               	goto	l323
  5610  006C3A  0454               	decf	_Last_Button_Menu_Up_State,w,c
  5611  006C3C  B4D8               	btfsc	status,2,c
  5612  006C3E  D01A               	goto	l3015
  5613  006C40  D029               	goto	l323
  5614  006C42                     l3003:
  5615  006C42  0E00               	movlw	0
  5616  006C44  6E38               	movwf	eeprom_writex@address+1,c
  5617  006C46  0E01               	movlw	1
  5618  006C48  6E37               	movwf	eeprom_writex@address,c
  5619  006C4A  0E00               	movlw	0
  5620  006C4C  6E39               	movwf	eeprom_writex@data,c
  5621  006C4E  ECB0  F030         	call	_eeprom_writex	;wreg free
  5622  006C52                     l3005:
  5623  006C52  ECBF  F034         	call	_Recording	;wreg free
  5624  006C56  D01E               	goto	l323
  5625  006C58                     l3007:
  5626  006C58  0E00               	movlw	0
  5627  006C5A  6E38               	movwf	eeprom_writex@address+1,c
  5628  006C5C  0E01               	movlw	1
  5629  006C5E  6E37               	movwf	eeprom_writex@address,c
  5630  006C60  0E01               	movlw	1
  5631  006C62  6E39               	movwf	eeprom_writex@data,c
  5632  006C64  ECB0  F030         	call	_eeprom_writex	;wreg free
  5633  006C68  D7F4               	goto	l3005
  5634  006C6A                     l3011:
  5635  006C6A  0E00               	movlw	0
  5636  006C6C  6E28               	movwf	_Count_Push_Button+1,c
  5637  006C6E  0E00               	movlw	0
  5638  006C70  6E27               	movwf	_Count_Push_Button,c
  5639  006C72  D010               	goto	l323
  5640  006C74                     l3015:
  5641  006C74  C027  F03A         	movff	_Count_Push_Button,??_Menu_P1
  5642  006C78  C028  F03B         	movff	_Count_Push_Button+1,??_Menu_P1+1
  5643                           
  5644                           ; Switch on 2 bytes has been partitioned into a top level switch of size 1, and 1 sub-sw
      +                          itches
  5645                           ; Switch size 1, requested type "simple"
  5646                           ; Number of cases is 1, Range of values is 0 to 0
  5647                           ; switch strategies available:
  5648                           ; Name         Instructions Cycles
  5649                           ; simple_byte            4     3 (average)
  5650                           ;	Chosen strategy is simple_byte
  5651  006C7C  503B               	movf	??_Menu_P1+1,w,c
  5652  006C7E  0A00               	xorlw	0	; case 0
  5653  006C80  A4D8               	btfss	status,2,c
  5654  006C82  D7F3               	goto	l3011
  5655                           
  5656                           ; Switch size 1, requested type "simple"
  5657                           ; Number of cases is 2, Range of values is 0 to 1
  5658                           ; switch strategies available:
  5659                           ; Name         Instructions Cycles
  5660                           ; simple_byte            7     4 (average)
  5661                           ;	Chosen strategy is simple_byte
  5662  006C84  503A               	movf	??_Menu_P1,w,c
  5663  006C86  0A00               	xorlw	0	; case 0
  5664  006C88  B4D8               	btfsc	status,2,c
  5665  006C8A  D7DB               	goto	l3003
  5666  006C8C  0A01               	xorlw	1	; case 1
  5667  006C8E  B4D8               	btfsc	status,2,c
  5668  006C90  D7E3               	goto	l3007
  5669  006C92  D7EB               	goto	l3011
  5670  006C94                     l323:
  5671                           
  5672                           ;main.c: 510:         Last_Button_Menu_Up_State = Button_Menu_Up_State;
  5673  006C94  C033  F054         	movff	_Button_Menu_Up_State,_Last_Button_Menu_Up_State
  5674                           
  5675                           ;main.c: 511:         Exit_Time_Menu();
  5676  006C98  ECDF  F033         	call	_Exit_Time_Menu	;wreg free
  5677                           
  5678                           ;main.c: 512:     } while (Flag_Menu == 1);
  5679  006C9C  042F               	decf	_Flag_Menu,w,c
  5680  006C9E  A4D8               	btfss	status,2,c
  5681  006CA0  0012               	return	
  5682  006CA2  D792               	goto	l2981
  5683  006CA4                     __end_of_Menu_P1:
  5684                           	opt callstack 0
  5685                           
  5686 ;; *************** function _eeprom_writex *****************
  5687 ;; Defined at:
  5688 ;;		line 364 in file "main.c"
  5689 ;; Parameters:    Size  Location     Type
  5690 ;;  address         2    0[COMRAM] int 
  5691 ;;  data            1    2[COMRAM] unsigned char 
  5692 ;; Auto vars:     Size  Location     Type
  5693 ;;		None
  5694 ;; Return value:  Size  Location     Type
  5695 ;;                  1    wreg      void 
  5696 ;; Registers used:
  5697 ;;		wreg, status,2
  5698 ;; Tracked objects:
  5699 ;;		On entry : 0/0
  5700 ;;		On exit  : 0/0
  5701 ;;		Unchanged: 0/0
  5702 ;; Data sizes:     COMRAM   BANK0   BANK1   BANK2   BANK3   BANK4   BANK5   BANK6   BANK7
  5703 ;;      Params:         3       0       0       0       0       0       0       0       0
  5704 ;;      Locals:         0       0       0       0       0       0       0       0       0
  5705 ;;      Temps:          0       0       0       0       0       0       0       0       0
  5706 ;;      Totals:         3       0       0       0       0       0       0       0       0
  5707 ;;Total ram usage:        3 bytes
  5708 ;; Hardware stack levels used:    1
  5709 ;; This function calls:
  5710 ;;		Nothing
  5711 ;; This function is called by:
  5712 ;;		_Menu_P1
  5713 ;;		_Menu_P2
  5714 ;;		_Menu_P3
  5715 ;;		_Menu_P4
  5716 ;; This function uses a non-reentrant model
  5717 ;;
  5718                           
  5719                           	psect	text31
  5720  006160                     __ptext31:
  5721                           	opt callstack 0
  5722  006160                     _eeprom_writex:
  5723                           	opt callstack 27
  5724                           
  5725                           ;main.c: 365:     EEADR = address;
  5726                           
  5727                           ;incstack = 0
  5728  006160  C037  FFA9         	movff	eeprom_writex@address,4009	;volatile
  5729                           
  5730                           ;main.c: 366:     EEDATA = data;
  5731  006164  C039  FFA8         	movff	eeprom_writex@data,4008	;volatile
  5732                           
  5733                           ;main.c: 367:     EECON1bits.EEPGD = 0;
  5734  006168  9EA6               	bcf	4006,7,c	;volsfr
  5735                           
  5736                           ;main.c: 368:     EECON1bits.CFGS = 0;
  5737  00616A  9CA6               	bcf	4006,6,c	;volsfr
  5738                           
  5739                           ;main.c: 369:     EECON1bits.WREN = 1;
  5740  00616C  84A6               	bsf	4006,2,c	;volsfr
  5741                           
  5742                           ;main.c: 370:     INTCONbits.GIE = 0;
  5743  00616E  9EF2               	bcf	4082,7,c	;volatile
  5744                           
  5745                           ;main.c: 372:     EECON2 = 0x55;
  5746  006170  0E55               	movlw	85
  5747  006172  6EA7               	movwf	4007,c	;volsfr
  5748                           
  5749                           ;main.c: 373:     EECON2 = 0xaa;
  5750  006174  0EAA               	movlw	170
  5751  006176  6EA7               	movwf	4007,c	;volsfr
  5752                           
  5753                           ;main.c: 374:     EECON1bits.WR = 1;
  5754  006178  82A6               	bsf	4006,1,c	;volsfr
  5755                           
  5756                           ;main.c: 376:     INTCONbits.GIE = 1;
  5757  00617A  8EF2               	bsf	4082,7,c	;volatile
  5758  00617C                     l275:
  5759  00617C  B2A6               	btfsc	4006,1,c	;volsfr
  5760  00617E  D7FE               	goto	l275
  5761  006180  0012               	return	
  5762  006182                     __end_of_eeprom_writex:
  5763                           	opt callstack 0
  5764                           
  5765 ;; *************** function _Recording *****************
  5766 ;; Defined at:
  5767 ;;		line 1042 in file "main.c"
  5768 ;; Parameters:    Size  Location     Type
  5769 ;;		None
  5770 ;; Auto vars:     Size  Location     Type
  5771 ;;		None
  5772 ;; Return value:  Size  Location     Type
  5773 ;;                  1    wreg      void 
  5774 ;; Registers used:
  5775 ;;		wreg, status,2, status,0, cstack
  5776 ;; Tracked objects:
  5777 ;;		On entry : 0/0
  5778 ;;		On exit  : 0/0
  5779 ;;		Unchanged: 0/0
  5780 ;; Data sizes:     COMRAM   BANK0   BANK1   BANK2   BANK3   BANK4   BANK5   BANK6   BANK7
  5781 ;;      Params:         0       0       0       0       0       0       0       0       0
  5782 ;;      Locals:         0       0       0       0       0       0       0       0       0
  5783 ;;      Temps:          2       0       0       0       0       0       0       0       0
  5784 ;;      Totals:         2       0       0       0       0       0       0       0       0
  5785 ;;Total ram usage:        2 bytes
  5786 ;; Hardware stack levels used:    1
  5787 ;; Hardware stack levels required when called:    1
  5788 ;; This function calls:
  5789 ;;		_Clear
  5790 ;;		_Draw_Save_Dot_One
  5791 ;;		_Draw_Save_Dot_Two
  5792 ;; This function is called by:
  5793 ;;		_Menu_P1
  5794 ;;		_Menu_P2
  5795 ;;		_Menu_P3
  5796 ;;		_Menu_P4
  5797 ;; This function uses a non-reentrant model
  5798 ;;
  5799                           
  5800                           	psect	text32
  5801  00697E                     __ptext32:
  5802                           	opt callstack 0
  5803  00697E                     _Recording:
  5804                           	opt callstack 26
  5805                           
  5806                           ;main.c: 1043:     Clear();
  5807                           
  5808                           ;incstack = 0
  5809  00697E  EC93  F030         	call	_Clear	;wreg free
  5810                           
  5811                           ;main.c: 1044:     _delay((unsigned long)((500)*(20000000/4000.0)));
  5812  006982  0E0D               	movlw	13
  5813  006984  6E39               	movwf	(??_Recording+1)& (0+255),c
  5814  006986  0EAF               	movlw	175
  5815  006988  6E38               	movwf	??_Recording& (0+255),c
  5816  00698A  0EB6               	movlw	182
  5817  00698C                     u2577:
  5818  00698C  2EE8               	decfsz	wreg,f,c
  5819  00698E  D7FE               	bra	u2577
  5820  006990  2E38               	decfsz	??_Recording& (0+255),f,c
  5821  006992  D7FC               	bra	u2577
  5822  006994  2E39               	decfsz	(??_Recording+1)& (0+255),f,c
  5823  006996  D7FA               	bra	u2577
  5824  006998  D000               	nop2	
  5825  00699A                     l1353:
  5826                           
  5827                           ;main.c: 1046:     {;main.c: 1047:         Draw_Save_Dot_One();
  5828  00699A  EC2C  F031         	call	_Draw_Save_Dot_One	;wreg free
  5829                           
  5830                           ;main.c: 1048:         Count_Save++;
  5831  00699E  0E01               	movlw	1
  5832  0069A0  2615               	addwf	_Count_Save,f,c
  5833  0069A2  0E00               	movlw	0
  5834  0069A4  2216               	addwfc	_Count_Save+1,f,c
  5835  0069A6  2217               	addwfc	_Count_Save+2,f,c
  5836  0069A8  2218               	addwfc	_Count_Save+3,f,c
  5837                           
  5838                           ;main.c: 1049:     } while (Count_Save < 250);
  5839  0069AA  BE18               	btfsc	_Count_Save+3,7,c
  5840  0069AC  D7F6               	goto	l1353
  5841  0069AE  5018               	movf	_Count_Save+3,w,c
  5842  0069B0  1017               	iorwf	_Count_Save+2,w,c
  5843  0069B2  1016               	iorwf	_Count_Save+1,w,c
  5844  0069B4  E104               	bnz	u40
  5845  0069B6  0EFA               	movlw	250
  5846  0069B8  5C15               	subwf	_Count_Save,w,c
  5847  0069BA  A0D8               	btfss	status,0,c
  5848  0069BC  D7EE               	goto	l1353
  5849  0069BE                     u40:
  5850                           
  5851                           ;main.c: 1050:     Count_Save = 0;
  5852  0069BE  0E00               	movlw	0
  5853  0069C0  6E15               	movwf	_Count_Save,c
  5854  0069C2  0E00               	movlw	0
  5855  0069C4  6E16               	movwf	_Count_Save+1,c
  5856  0069C6  0E00               	movlw	0
  5857  0069C8  6E17               	movwf	_Count_Save+2,c
  5858  0069CA  0E00               	movlw	0
  5859  0069CC  6E18               	movwf	_Count_Save+3,c
  5860  0069CE                     l1361:
  5861                           
  5862                           ;main.c: 1052:     {;main.c: 1053:         Draw_Save_Dot_Two();
  5863  0069CE  EC68  F032         	call	_Draw_Save_Dot_Two	;wreg free
  5864                           
  5865                           ;main.c: 1054:         Count_Save++;
  5866  0069D2  0E01               	movlw	1
  5867  0069D4  2615               	addwf	_Count_Save,f,c
  5868  0069D6  0E00               	movlw	0
  5869  0069D8  2216               	addwfc	_Count_Save+1,f,c
  5870  0069DA  2217               	addwfc	_Count_Save+2,f,c
  5871  0069DC  2218               	addwfc	_Count_Save+3,f,c
  5872                           
  5873                           ;main.c: 1055:     } while (Count_Save < 250);
  5874  0069DE  BE18               	btfsc	_Count_Save+3,7,c
  5875  0069E0  D7F6               	goto	l1361
  5876  0069E2  5018               	movf	_Count_Save+3,w,c
  5877  0069E4  1017               	iorwf	_Count_Save+2,w,c
  5878  0069E6  1016               	iorwf	_Count_Save+1,w,c
  5879  0069E8  E104               	bnz	u50
  5880  0069EA  0EFA               	movlw	250
  5881  0069EC  5C15               	subwf	_Count_Save,w,c
  5882  0069EE  A0D8               	btfss	status,0,c
  5883  0069F0  D7EE               	goto	l1361
  5884  0069F2                     u50:
  5885                           
  5886                           ;main.c: 1056:     Count_Save = 0;
  5887  0069F2  0E00               	movlw	0
  5888  0069F4  6E15               	movwf	_Count_Save,c
  5889  0069F6  0E00               	movlw	0
  5890  0069F8  6E16               	movwf	_Count_Save+1,c
  5891  0069FA  0E00               	movlw	0
  5892  0069FC  6E17               	movwf	_Count_Save+2,c
  5893  0069FE  0E00               	movlw	0
  5894  006A00  6E18               	movwf	_Count_Save+3,c
  5895                           
  5896                           ;main.c: 1057:     Flag_Menu = 0;
  5897  006A02  0E00               	movlw	0
  5898  006A04  6E2F               	movwf	_Flag_Menu,c
  5899  006A06  0012               	return		;funcret
  5900  006A08                     __end_of_Recording:
  5901                           	opt callstack 0
  5902                           
  5903 ;; *************** function _Draw_Save_Dot_Two *****************
  5904 ;; Defined at:
  5905 ;;		line 1031 in file "main.c"
  5906 ;; Parameters:    Size  Location     Type
  5907 ;;		None
  5908 ;; Auto vars:     Size  Location     Type
  5909 ;;		None
  5910 ;; Return value:  Size  Location     Type
  5911 ;;                  1    wreg      void 
  5912 ;; Registers used:
  5913 ;;		wreg, status,2
  5914 ;; Tracked objects:
  5915 ;;		On entry : 0/0
  5916 ;;		On exit  : 0/0
  5917 ;;		Unchanged: 0/0
  5918 ;; Data sizes:     COMRAM   BANK0   BANK1   BANK2   BANK3   BANK4   BANK5   BANK6   BANK7
  5919 ;;      Params:         0       0       0       0       0       0       0       0       0
  5920 ;;      Locals:         0       0       0       0       0       0       0       0       0
  5921 ;;      Temps:          1       0       0       0       0       0       0       0       0
  5922 ;;      Totals:         1       0       0       0       0       0       0       0       0
  5923 ;;Total ram usage:        1 bytes
  5924 ;; Hardware stack levels used:    1
  5925 ;; This function calls:
  5926 ;;		Nothing
  5927 ;; This function is called by:
  5928 ;;		_Recording
  5929 ;; This function uses a non-reentrant model
  5930 ;;
  5931                           
  5932                           	psect	text33
  5933  0064D0                     __ptext33:
  5934                           	opt callstack 0
  5935  0064D0                     _Draw_Save_Dot_Two:
  5936                           	opt callstack 26
  5937                           
  5938                           ;main.c: 1032:     PORTB = 0xDF;
  5939                           
  5940                           ;incstack = 0
  5941  0064D0  0EDF               	movlw	223
  5942  0064D2  6E81               	movwf	3969,c	;volatile
  5943                           
  5944                           ;main.c: 1033:     PORTCbits.RC7 = 1;
  5945  0064D4  8E82               	bsf	3970,7,c	;volatile
  5946                           
  5947                           ;main.c: 1034:     _delay((unsigned long)((1600)*(20000000/4000000.0)));
  5948  0064D6  0E0B               	movlw	11
  5949  0064D8  6E37               	movwf	??_Draw_Save_Dot_Two& (0+255),c
  5950  0064DA  0E62               	movlw	98
  5951  0064DC                     u2587:
  5952  0064DC  2EE8               	decfsz	wreg,f,c
  5953  0064DE  D7FE               	bra	u2587
  5954  0064E0  2E37               	decfsz	??_Draw_Save_Dot_Two& (0+255),f,c
  5955  0064E2  D7FC               	bra	u2587
  5956  0064E4  D000               	nop2	
  5957                           
  5958                           ;main.c: 1035:     PORTCbits.RC7 = 0;
  5959  0064E6  9E82               	bcf	3970,7,c	;volatile
  5960                           
  5961                           ;main.c: 1036:     PORTB = 0xDF;
  5962  0064E8  0EDF               	movlw	223
  5963  0064EA  6E81               	movwf	3969,c	;volatile
  5964                           
  5965                           ;main.c: 1037:     PORTCbits.RC6 = 1;
  5966  0064EC  8C82               	bsf	3970,6,c	;volatile
  5967                           
  5968                           ;main.c: 1038:     _delay((unsigned long)((1600)*(20000000/4000000.0)));
  5969  0064EE  0E0B               	movlw	11
  5970  0064F0  6E37               	movwf	??_Draw_Save_Dot_Two& (0+255),c
  5971  0064F2  0E62               	movlw	98
  5972  0064F4                     u2597:
  5973  0064F4  2EE8               	decfsz	wreg,f,c
  5974  0064F6  D7FE               	bra	u2597
  5975  0064F8  2E37               	decfsz	??_Draw_Save_Dot_Two& (0+255),f,c
  5976  0064FA  D7FC               	bra	u2597
  5977  0064FC  D000               	nop2	
  5978                           
  5979                           ;main.c: 1039:     PORTCbits.RC6 = 0;
  5980  0064FE  9C82               	bcf	3970,6,c	;volatile
  5981  006500  0012               	return		;funcret
  5982  006502                     __end_of_Draw_Save_Dot_Two:
  5983                           	opt callstack 0
  5984                           
  5985 ;; *************** function _Draw_Save_Dot_One *****************
  5986 ;; Defined at:
  5987 ;;		line 1020 in file "main.c"
  5988 ;; Parameters:    Size  Location     Type
  5989 ;;		None
  5990 ;; Auto vars:     Size  Location     Type
  5991 ;;		None
  5992 ;; Return value:  Size  Location     Type
  5993 ;;                  1    wreg      void 
  5994 ;; Registers used:
  5995 ;;		wreg, status,2
  5996 ;; Tracked objects:
  5997 ;;		On entry : 0/0
  5998 ;;		On exit  : 0/0
  5999 ;;		Unchanged: 0/0
  6000 ;; Data sizes:     COMRAM   BANK0   BANK1   BANK2   BANK3   BANK4   BANK5   BANK6   BANK7
  6001 ;;      Params:         0       0       0       0       0       0       0       0       0
  6002 ;;      Locals:         0       0       0       0       0       0       0       0       0
  6003 ;;      Temps:          1       0       0       0       0       0       0       0       0
  6004 ;;      Totals:         1       0       0       0       0       0       0       0       0
  6005 ;;Total ram usage:        1 bytes
  6006 ;; Hardware stack levels used:    1
  6007 ;; This function calls:
  6008 ;;		Nothing
  6009 ;; This function is called by:
  6010 ;;		_Recording
  6011 ;; This function uses a non-reentrant model
  6012 ;;
  6013                           
  6014                           	psect	text34
  6015  006258                     __ptext34:
  6016                           	opt callstack 0
  6017  006258                     _Draw_Save_Dot_One:
  6018                           	opt callstack 26
  6019                           
  6020                           ;main.c: 1021:     PORTB = 0xDF;
  6021                           
  6022                           ;incstack = 0
  6023  006258  0EDF               	movlw	223
  6024  00625A  6E81               	movwf	3969,c	;volatile
  6025                           
  6026                           ;main.c: 1022:     PORTCbits.RC7 = 1;
  6027  00625C  8E82               	bsf	3970,7,c	;volatile
  6028                           
  6029                           ;main.c: 1023:     _delay((unsigned long)((1600)*(20000000/4000000.0)));
  6030  00625E  0E0B               	movlw	11
  6031  006260  6E37               	movwf	??_Draw_Save_Dot_One& (0+255),c
  6032  006262  0E62               	movlw	98
  6033  006264                     u2607:
  6034  006264  2EE8               	decfsz	wreg,f,c
  6035  006266  D7FE               	bra	u2607
  6036  006268  2E37               	decfsz	??_Draw_Save_Dot_One& (0+255),f,c
  6037  00626A  D7FC               	bra	u2607
  6038  00626C  D000               	nop2	
  6039                           
  6040                           ;main.c: 1024:     PORTCbits.RC7 = 0;
  6041  00626E  9E82               	bcf	3970,7,c	;volatile
  6042                           
  6043                           ;main.c: 1025:     PORTB = 0xFF;
  6044  006270  6881               	setf	3969,c	;volatile
  6045                           
  6046                           ;main.c: 1026:     PORTCbits.RC6 = 0;
  6047  006272  9C82               	bcf	3970,6,c	;volatile
  6048                           
  6049                           ;main.c: 1027:     _delay((unsigned long)((1600)*(20000000/4000000.0)));
  6050  006274  0E0B               	movlw	11
  6051  006276  6E37               	movwf	??_Draw_Save_Dot_One& (0+255),c
  6052  006278  0E62               	movlw	98
  6053  00627A                     u2617:
  6054  00627A  2EE8               	decfsz	wreg,f,c
  6055  00627C  D7FE               	bra	u2617
  6056  00627E  2E37               	decfsz	??_Draw_Save_Dot_One& (0+255),f,c
  6057  006280  D7FC               	bra	u2617
  6058  006282  D000               	nop2	
  6059                           
  6060                           ;main.c: 1028:     PORTCbits.RC6 = 0;
  6061  006284  9C82               	bcf	3970,6,c	;volatile
  6062  006286  0012               	return		;funcret
  6063  006288                     __end_of_Draw_Save_Dot_One:
  6064                           	opt callstack 0
  6065                           
  6066 ;; *************** function _Exit_Time_Menu *****************
  6067 ;; Defined at:
  6068 ;;		line 475 in file "main.c"
  6069 ;; Parameters:    Size  Location     Type
  6070 ;;		None
  6071 ;; Auto vars:     Size  Location     Type
  6072 ;;		None
  6073 ;; Return value:  Size  Location     Type
  6074 ;;                  1    wreg      void 
  6075 ;; Registers used:
  6076 ;;		wreg, status,2, status,0
  6077 ;; Tracked objects:
  6078 ;;		On entry : 0/0
  6079 ;;		On exit  : 0/0
  6080 ;;		Unchanged: 0/0
  6081 ;; Data sizes:     COMRAM   BANK0   BANK1   BANK2   BANK3   BANK4   BANK5   BANK6   BANK7
  6082 ;;      Params:         0       0       0       0       0       0       0       0       0
  6083 ;;      Locals:         0       0       0       0       0       0       0       0       0
  6084 ;;      Temps:          0       0       0       0       0       0       0       0       0
  6085 ;;      Totals:         0       0       0       0       0       0       0       0       0
  6086 ;;Total ram usage:        0 bytes
  6087 ;; Hardware stack levels used:    1
  6088 ;; This function calls:
  6089 ;;		Nothing
  6090 ;; This function is called by:
  6091 ;;		_Menu
  6092 ;;		_Menu_P1
  6093 ;;		_Menu_P2
  6094 ;;		_Menu_P3
  6095 ;;		_Menu_P4
  6096 ;; This function uses a non-reentrant model
  6097 ;;
  6098                           
  6099                           	psect	text35
  6100  0067BE                     __ptext35:
  6101                           	opt callstack 0
  6102  0067BE                     _Exit_Time_Menu:
  6103                           	opt callstack 27
  6104                           
  6105                           ;main.c: 476:     Count_Exit_Menu++;
  6106                           
  6107                           ;incstack = 0
  6108  0067BE  0E01               	movlw	1
  6109  0067C0  2611               	addwf	_Count_Exit_Menu,f,c
  6110  0067C2  0E00               	movlw	0
  6111  0067C4  2212               	addwfc	_Count_Exit_Menu+1,f,c
  6112  0067C6  2213               	addwfc	_Count_Exit_Menu+2,f,c
  6113  0067C8  2214               	addwfc	_Count_Exit_Menu+3,f,c
  6114                           
  6115                           ;main.c: 477:     if (Count_Exit_Menu == 7000) {
  6116  0067CA  0E58               	movlw	88
  6117  0067CC  1811               	xorwf	_Count_Exit_Menu,w,c
  6118  0067CE  E110               	bnz	l313
  6119  0067D0  0E1B               	movlw	27
  6120  0067D2  1812               	xorwf	_Count_Exit_Menu+1,w,c
  6121  0067D4  1013               	iorwf	_Count_Exit_Menu+2,w,c
  6122  0067D6  1014               	iorwf	_Count_Exit_Menu+3,w,c
  6123  0067D8  A4D8               	btfss	status,2,c
  6124  0067DA  0012               	return	
  6125                           
  6126                           ;main.c: 478:         Flag_Menu = 0;
  6127  0067DC  0E00               	movlw	0
  6128  0067DE  6E2F               	movwf	_Flag_Menu,c
  6129                           
  6130                           ;main.c: 479:         Count_Exit_Menu = 0;
  6131  0067E0  0E00               	movlw	0
  6132  0067E2  6E11               	movwf	_Count_Exit_Menu,c
  6133  0067E4  0E00               	movlw	0
  6134  0067E6  6E12               	movwf	_Count_Exit_Menu+1,c
  6135  0067E8  0E00               	movlw	0
  6136  0067EA  6E13               	movwf	_Count_Exit_Menu+2,c
  6137  0067EC  0E00               	movlw	0
  6138  0067EE  6E14               	movwf	_Count_Exit_Menu+3,c
  6139  0067F0                     l313:
  6140  0067F0  0012               	return		;funcret
  6141  0067F2                     __end_of_Exit_Time_Menu:
  6142                           	opt callstack 0
  6143                           
  6144 ;; *************** function _Draw_1 *****************
  6145 ;; Defined at:
  6146 ;;		line 767 in file "main.c"
  6147 ;; Parameters:    Size  Location     Type
  6148 ;;		None
  6149 ;; Auto vars:     Size  Location     Type
  6150 ;;		None
  6151 ;; Return value:  Size  Location     Type
  6152 ;;                  1    wreg      void 
  6153 ;; Registers used:
  6154 ;;		wreg, status,2
  6155 ;; Tracked objects:
  6156 ;;		On entry : 0/0
  6157 ;;		On exit  : 0/0
  6158 ;;		Unchanged: 0/0
  6159 ;; Data sizes:     COMRAM   BANK0   BANK1   BANK2   BANK3   BANK4   BANK5   BANK6   BANK7
  6160 ;;      Params:         0       0       0       0       0       0       0       0       0
  6161 ;;      Locals:         0       0       0       0       0       0       0       0       0
  6162 ;;      Temps:          1       0       0       0       0       0       0       0       0
  6163 ;;      Totals:         1       0       0       0       0       0       0       0       0
  6164 ;;Total ram usage:        1 bytes
  6165 ;; Hardware stack levels used:    1
  6166 ;; This function calls:
  6167 ;;		Nothing
  6168 ;; This function is called by:
  6169 ;;		_Menu_P1
  6170 ;;		_Menu_P2
  6171 ;;		_Menu_P4
  6172 ;; This function uses a non-reentrant model
  6173 ;;
  6174                           
  6175                           	psect	text36
  6176  006228                     __ptext36:
  6177                           	opt callstack 0
  6178  006228                     _Draw_1:
  6179                           	opt callstack 27
  6180                           
  6181                           ;main.c: 768:     PORTB = 0xFF;
  6182                           
  6183                           ;incstack = 0
  6184  006228  6881               	setf	3969,c	;volatile
  6185                           
  6186                           ;main.c: 769:     PORTCbits.RC7 = 0;
  6187  00622A  9E82               	bcf	3970,7,c	;volatile
  6188                           
  6189                           ;main.c: 770:     _delay((unsigned long)((1600)*(20000000/4000000.0)));
  6190  00622C  0E0B               	movlw	11
  6191  00622E  6E37               	movwf	??_Draw_1& (0+255),c
  6192  006230  0E62               	movlw	98
  6193  006232                     u2627:
  6194  006232  2EE8               	decfsz	wreg,f,c
  6195  006234  D7FE               	bra	u2627
  6196  006236  2E37               	decfsz	??_Draw_1& (0+255),f,c
  6197  006238  D7FC               	bra	u2627
  6198  00623A  D000               	nop2	
  6199                           
  6200                           ;main.c: 771:     PORTCbits.RC7 = 0;
  6201  00623C  9E82               	bcf	3970,7,c	;volatile
  6202                           
  6203                           ;main.c: 772:     PORTB = 0x7D;
  6204  00623E  0E7D               	movlw	125
  6205  006240  6E81               	movwf	3969,c	;volatile
  6206                           
  6207                           ;main.c: 773:     PORTCbits.RC6 = 1;
  6208  006242  8C82               	bsf	3970,6,c	;volatile
  6209                           
  6210                           ;main.c: 774:     _delay((unsigned long)((1600)*(20000000/4000000.0)));
  6211  006244  0E0B               	movlw	11
  6212  006246  6E37               	movwf	??_Draw_1& (0+255),c
  6213  006248  0E62               	movlw	98
  6214  00624A                     u2637:
  6215  00624A  2EE8               	decfsz	wreg,f,c
  6216  00624C  D7FE               	bra	u2637
  6217  00624E  2E37               	decfsz	??_Draw_1& (0+255),f,c
  6218  006250  D7FC               	bra	u2637
  6219  006252  D000               	nop2	
  6220                           
  6221                           ;main.c: 775:     PORTCbits.RC6 = 0;
  6222  006254  9C82               	bcf	3970,6,c	;volatile
  6223  006256  0012               	return		;funcret
  6224  006258                     __end_of_Draw_1:
  6225                           	opt callstack 0
  6226                           
  6227 ;; *************** function _Draw_0 *****************
  6228 ;; Defined at:
  6229 ;;		line 756 in file "main.c"
  6230 ;; Parameters:    Size  Location     Type
  6231 ;;		None
  6232 ;; Auto vars:     Size  Location     Type
  6233 ;;		None
  6234 ;; Return value:  Size  Location     Type
  6235 ;;                  1    wreg      void 
  6236 ;; Registers used:
  6237 ;;		wreg, status,2
  6238 ;; Tracked objects:
  6239 ;;		On entry : 0/0
  6240 ;;		On exit  : 0/0
  6241 ;;		Unchanged: 0/0
  6242 ;; Data sizes:     COMRAM   BANK0   BANK1   BANK2   BANK3   BANK4   BANK5   BANK6   BANK7
  6243 ;;      Params:         0       0       0       0       0       0       0       0       0
  6244 ;;      Locals:         0       0       0       0       0       0       0       0       0
  6245 ;;      Temps:          1       0       0       0       0       0       0       0       0
  6246 ;;      Totals:         1       0       0       0       0       0       0       0       0
  6247 ;;Total ram usage:        1 bytes
  6248 ;; Hardware stack levels used:    1
  6249 ;; This function calls:
  6250 ;;		Nothing
  6251 ;; This function is called by:
  6252 ;;		_Menu_P1
  6253 ;;		_Menu_P2
  6254 ;;		_Menu_P4
  6255 ;; This function uses a non-reentrant model
  6256 ;;
  6257                           
  6258                           	psect	text37
  6259  0061F8                     __ptext37:
  6260                           	opt callstack 0
  6261  0061F8                     _Draw_0:
  6262                           	opt callstack 27
  6263                           
  6264                           ;main.c: 757:     PORTB = 0xFF;
  6265                           
  6266                           ;incstack = 0
  6267  0061F8  6881               	setf	3969,c	;volatile
  6268                           
  6269                           ;main.c: 758:     PORTCbits.RC7 = 0;
  6270  0061FA  9E82               	bcf	3970,7,c	;volatile
  6271                           
  6272                           ;main.c: 759:     _delay((unsigned long)((1600)*(20000000/4000000.0)));
  6273  0061FC  0E0B               	movlw	11
  6274  0061FE  6E37               	movwf	??_Draw_0& (0+255),c
  6275  006200  0E62               	movlw	98
  6276  006202                     u2647:
  6277  006202  2EE8               	decfsz	wreg,f,c
  6278  006204  D7FE               	bra	u2647
  6279  006206  2E37               	decfsz	??_Draw_0& (0+255),f,c
  6280  006208  D7FC               	bra	u2647
  6281  00620A  D000               	nop2	
  6282                           
  6283                           ;main.c: 760:     PORTCbits.RC7 = 0;
  6284  00620C  9E82               	bcf	3970,7,c	;volatile
  6285                           
  6286                           ;main.c: 761:     PORTB = 0x28;
  6287  00620E  0E28               	movlw	40
  6288  006210  6E81               	movwf	3969,c	;volatile
  6289                           
  6290                           ;main.c: 762:     PORTCbits.RC6 = 1;
  6291  006212  8C82               	bsf	3970,6,c	;volatile
  6292                           
  6293                           ;main.c: 763:     _delay((unsigned long)((1600)*(20000000/4000000.0)));
  6294  006214  0E0B               	movlw	11
  6295  006216  6E37               	movwf	??_Draw_0& (0+255),c
  6296  006218  0E62               	movlw	98
  6297  00621A                     u2657:
  6298  00621A  2EE8               	decfsz	wreg,f,c
  6299  00621C  D7FE               	bra	u2657
  6300  00621E  2E37               	decfsz	??_Draw_0& (0+255),f,c
  6301  006220  D7FC               	bra	u2657
  6302  006222  D000               	nop2	
  6303                           
  6304                           ;main.c: 764:     PORTCbits.RC6 = 0;
  6305  006224  9C82               	bcf	3970,6,c	;volatile
  6306  006226  0012               	return		;funcret
  6307  006228                     __end_of_Draw_0:
  6308                           	opt callstack 0
  6309                           
  6310 ;; *************** function _Draw_P4 *****************
  6311 ;; Defined at:
  6312 ;;		line 745 in file "main.c"
  6313 ;; Parameters:    Size  Location     Type
  6314 ;;		None
  6315 ;; Auto vars:     Size  Location     Type
  6316 ;;		None
  6317 ;; Return value:  Size  Location     Type
  6318 ;;                  1    wreg      void 
  6319 ;; Registers used:
  6320 ;;		wreg, status,2
  6321 ;; Tracked objects:
  6322 ;;		On entry : 0/0
  6323 ;;		On exit  : 0/0
  6324 ;;		Unchanged: 0/0
  6325 ;; Data sizes:     COMRAM   BANK0   BANK1   BANK2   BANK3   BANK4   BANK5   BANK6   BANK7
  6326 ;;      Params:         0       0       0       0       0       0       0       0       0
  6327 ;;      Locals:         0       0       0       0       0       0       0       0       0
  6328 ;;      Temps:          1       0       0       0       0       0       0       0       0
  6329 ;;      Totals:         1       0       0       0       0       0       0       0       0
  6330 ;;Total ram usage:        1 bytes
  6331 ;; Hardware stack levels used:    1
  6332 ;; This function calls:
  6333 ;;		Nothing
  6334 ;; This function is called by:
  6335 ;;		_Menu
  6336 ;; This function uses a non-reentrant model
  6337 ;;
  6338                           
  6339                           	psect	text38
  6340  00649E                     __ptext38:
  6341                           	opt callstack 0
  6342  00649E                     _Draw_P4:
  6343                           	opt callstack 28
  6344                           
  6345                           ;main.c: 746:     PORTB = 0xB0;
  6346                           
  6347                           ;incstack = 0
  6348  00649E  0EB0               	movlw	176
  6349  0064A0  6E81               	movwf	3969,c	;volatile
  6350                           
  6351                           ;main.c: 747:     PORTCbits.RC7 = 1;
  6352  0064A2  8E82               	bsf	3970,7,c	;volatile
  6353                           
  6354                           ;main.c: 748:     _delay((unsigned long)((1600)*(20000000/4000000.0)));
  6355  0064A4  0E0B               	movlw	11
  6356  0064A6  6E37               	movwf	??_Draw_P4& (0+255),c
  6357  0064A8  0E62               	movlw	98
  6358  0064AA                     u2667:
  6359  0064AA  2EE8               	decfsz	wreg,f,c
  6360  0064AC  D7FE               	bra	u2667
  6361  0064AE  2E37               	decfsz	??_Draw_P4& (0+255),f,c
  6362  0064B0  D7FC               	bra	u2667
  6363  0064B2  D000               	nop2	
  6364                           
  6365                           ;main.c: 749:     PORTCbits.RC7 = 0;
  6366  0064B4  9E82               	bcf	3970,7,c	;volatile
  6367                           
  6368                           ;main.c: 750:     PORTB = 0x71;
  6369  0064B6  0E71               	movlw	113
  6370  0064B8  6E81               	movwf	3969,c	;volatile
  6371                           
  6372                           ;main.c: 751:     PORTCbits.RC6 = 1;
  6373  0064BA  8C82               	bsf	3970,6,c	;volatile
  6374                           
  6375                           ;main.c: 752:     _delay((unsigned long)((1600)*(20000000/4000000.0)));
  6376  0064BC  0E0B               	movlw	11
  6377  0064BE  6E37               	movwf	??_Draw_P4& (0+255),c
  6378  0064C0  0E62               	movlw	98
  6379  0064C2                     u2677:
  6380  0064C2  2EE8               	decfsz	wreg,f,c
  6381  0064C4  D7FE               	bra	u2677
  6382  0064C6  2E37               	decfsz	??_Draw_P4& (0+255),f,c
  6383  0064C8  D7FC               	bra	u2677
  6384  0064CA  D000               	nop2	
  6385                           
  6386                           ;main.c: 753:     PORTCbits.RC6 = 0;
  6387  0064CC  9C82               	bcf	3970,6,c	;volatile
  6388  0064CE  0012               	return		;funcret
  6389  0064D0                     __end_of_Draw_P4:
  6390                           	opt callstack 0
  6391                           
  6392 ;; *************** function _Draw_P3 *****************
  6393 ;; Defined at:
  6394 ;;		line 734 in file "main.c"
  6395 ;; Parameters:    Size  Location     Type
  6396 ;;		None
  6397 ;; Auto vars:     Size  Location     Type
  6398 ;;		None
  6399 ;; Return value:  Size  Location     Type
  6400 ;;                  1    wreg      void 
  6401 ;; Registers used:
  6402 ;;		wreg, status,2
  6403 ;; Tracked objects:
  6404 ;;		On entry : 0/0
  6405 ;;		On exit  : 0/0
  6406 ;;		Unchanged: 0/0
  6407 ;; Data sizes:     COMRAM   BANK0   BANK1   BANK2   BANK3   BANK4   BANK5   BANK6   BANK7
  6408 ;;      Params:         0       0       0       0       0       0       0       0       0
  6409 ;;      Locals:         0       0       0       0       0       0       0       0       0
  6410 ;;      Temps:          1       0       0       0       0       0       0       0       0
  6411 ;;      Totals:         1       0       0       0       0       0       0       0       0
  6412 ;;Total ram usage:        1 bytes
  6413 ;; Hardware stack levels used:    1
  6414 ;; This function calls:
  6415 ;;		Nothing
  6416 ;; This function is called by:
  6417 ;;		_Menu
  6418 ;; This function uses a non-reentrant model
  6419 ;;
  6420                           
  6421                           	psect	text39
  6422  00646C                     __ptext39:
  6423                           	opt callstack 0
  6424  00646C                     _Draw_P3:
  6425                           	opt callstack 28
  6426                           
  6427                           ;main.c: 735:     PORTB = 0xB0;
  6428                           
  6429                           ;incstack = 0
  6430  00646C  0EB0               	movlw	176
  6431  00646E  6E81               	movwf	3969,c	;volatile
  6432                           
  6433                           ;main.c: 736:     PORTCbits.RC7 = 1;
  6434  006470  8E82               	bsf	3970,7,c	;volatile
  6435                           
  6436                           ;main.c: 737:     _delay((unsigned long)((1600)*(20000000/4000000.0)));
  6437  006472  0E0B               	movlw	11
  6438  006474  6E37               	movwf	??_Draw_P3& (0+255),c
  6439  006476  0E62               	movlw	98
  6440  006478                     u2687:
  6441  006478  2EE8               	decfsz	wreg,f,c
  6442  00647A  D7FE               	bra	u2687
  6443  00647C  2E37               	decfsz	??_Draw_P3& (0+255),f,c
  6444  00647E  D7FC               	bra	u2687
  6445  006480  D000               	nop2	
  6446                           
  6447                           ;main.c: 738:     PORTCbits.RC7 = 0;
  6448  006482  9E82               	bcf	3970,7,c	;volatile
  6449                           
  6450                           ;main.c: 739:     PORTB = 0x64;
  6451  006484  0E64               	movlw	100
  6452  006486  6E81               	movwf	3969,c	;volatile
  6453                           
  6454                           ;main.c: 740:     PORTCbits.RC6 = 1;
  6455  006488  8C82               	bsf	3970,6,c	;volatile
  6456                           
  6457                           ;main.c: 741:     _delay((unsigned long)((1600)*(20000000/4000000.0)));
  6458  00648A  0E0B               	movlw	11
  6459  00648C  6E37               	movwf	??_Draw_P3& (0+255),c
  6460  00648E  0E62               	movlw	98
  6461  006490                     u2697:
  6462  006490  2EE8               	decfsz	wreg,f,c
  6463  006492  D7FE               	bra	u2697
  6464  006494  2E37               	decfsz	??_Draw_P3& (0+255),f,c
  6465  006496  D7FC               	bra	u2697
  6466  006498  D000               	nop2	
  6467                           
  6468                           ;main.c: 742:     PORTCbits.RC6 = 0;
  6469  00649A  9C82               	bcf	3970,6,c	;volatile
  6470  00649C  0012               	return		;funcret
  6471  00649E                     __end_of_Draw_P3:
  6472                           	opt callstack 0
  6473                           
  6474 ;; *************** function _Draw_P2 *****************
  6475 ;; Defined at:
  6476 ;;		line 723 in file "main.c"
  6477 ;; Parameters:    Size  Location     Type
  6478 ;;		None
  6479 ;; Auto vars:     Size  Location     Type
  6480 ;;		None
  6481 ;; Return value:  Size  Location     Type
  6482 ;;                  1    wreg      void 
  6483 ;; Registers used:
  6484 ;;		wreg, status,2
  6485 ;; Tracked objects:
  6486 ;;		On entry : 0/0
  6487 ;;		On exit  : 0/0
  6488 ;;		Unchanged: 0/0
  6489 ;; Data sizes:     COMRAM   BANK0   BANK1   BANK2   BANK3   BANK4   BANK5   BANK6   BANK7
  6490 ;;      Params:         0       0       0       0       0       0       0       0       0
  6491 ;;      Locals:         0       0       0       0       0       0       0       0       0
  6492 ;;      Temps:          1       0       0       0       0       0       0       0       0
  6493 ;;      Totals:         1       0       0       0       0       0       0       0       0
  6494 ;;Total ram usage:        1 bytes
  6495 ;; Hardware stack levels used:    1
  6496 ;; This function calls:
  6497 ;;		Nothing
  6498 ;; This function is called by:
  6499 ;;		_Menu
  6500 ;; This function uses a non-reentrant model
  6501 ;;
  6502                           
  6503                           	psect	text40
  6504  00643A                     __ptext40:
  6505                           	opt callstack 0
  6506  00643A                     _Draw_P2:
  6507                           	opt callstack 28
  6508                           
  6509                           ;main.c: 724:     PORTB = 0xB0;
  6510                           
  6511                           ;incstack = 0
  6512  00643A  0EB0               	movlw	176
  6513  00643C  6E81               	movwf	3969,c	;volatile
  6514                           
  6515                           ;main.c: 725:     PORTCbits.RC7 = 1;
  6516  00643E  8E82               	bsf	3970,7,c	;volatile
  6517                           
  6518                           ;main.c: 726:     _delay((unsigned long)((1600)*(20000000/4000000.0)));
  6519  006440  0E0B               	movlw	11
  6520  006442  6E37               	movwf	??_Draw_P2& (0+255),c
  6521  006444  0E62               	movlw	98
  6522  006446                     u2707:
  6523  006446  2EE8               	decfsz	wreg,f,c
  6524  006448  D7FE               	bra	u2707
  6525  00644A  2E37               	decfsz	??_Draw_P2& (0+255),f,c
  6526  00644C  D7FC               	bra	u2707
  6527  00644E  D000               	nop2	
  6528                           
  6529                           ;main.c: 727:     PORTCbits.RC7 = 0;
  6530  006450  9E82               	bcf	3970,7,c	;volatile
  6531                           
  6532                           ;main.c: 728:     PORTB = 0xA4;
  6533  006452  0EA4               	movlw	164
  6534  006454  6E81               	movwf	3969,c	;volatile
  6535                           
  6536                           ;main.c: 729:     PORTCbits.RC6 = 1;
  6537  006456  8C82               	bsf	3970,6,c	;volatile
  6538                           
  6539                           ;main.c: 730:     _delay((unsigned long)((1600)*(20000000/4000000.0)));
  6540  006458  0E0B               	movlw	11
  6541  00645A  6E37               	movwf	??_Draw_P2& (0+255),c
  6542  00645C  0E62               	movlw	98
  6543  00645E                     u2717:
  6544  00645E  2EE8               	decfsz	wreg,f,c
  6545  006460  D7FE               	bra	u2717
  6546  006462  2E37               	decfsz	??_Draw_P2& (0+255),f,c
  6547  006464  D7FC               	bra	u2717
  6548  006466  D000               	nop2	
  6549                           
  6550                           ;main.c: 731:     PORTCbits.RC6 = 0;
  6551  006468  9C82               	bcf	3970,6,c	;volatile
  6552  00646A  0012               	return		;funcret
  6553  00646C                     __end_of_Draw_P2:
  6554                           	opt callstack 0
  6555                           
  6556 ;; *************** function _Draw_P1 *****************
  6557 ;; Defined at:
  6558 ;;		line 712 in file "main.c"
  6559 ;; Parameters:    Size  Location     Type
  6560 ;;		None
  6561 ;; Auto vars:     Size  Location     Type
  6562 ;;		None
  6563 ;; Return value:  Size  Location     Type
  6564 ;;                  1    wreg      void 
  6565 ;; Registers used:
  6566 ;;		wreg, status,2
  6567 ;; Tracked objects:
  6568 ;;		On entry : 0/0
  6569 ;;		On exit  : 0/0
  6570 ;;		Unchanged: 0/0
  6571 ;; Data sizes:     COMRAM   BANK0   BANK1   BANK2   BANK3   BANK4   BANK5   BANK6   BANK7
  6572 ;;      Params:         0       0       0       0       0       0       0       0       0
  6573 ;;      Locals:         0       0       0       0       0       0       0       0       0
  6574 ;;      Temps:          1       0       0       0       0       0       0       0       0
  6575 ;;      Totals:         1       0       0       0       0       0       0       0       0
  6576 ;;Total ram usage:        1 bytes
  6577 ;; Hardware stack levels used:    1
  6578 ;; This function calls:
  6579 ;;		Nothing
  6580 ;; This function is called by:
  6581 ;;		_Menu
  6582 ;; This function uses a non-reentrant model
  6583 ;;
  6584                           
  6585                           	psect	text41
  6586  006408                     __ptext41:
  6587                           	opt callstack 0
  6588  006408                     _Draw_P1:
  6589                           	opt callstack 28
  6590                           
  6591                           ;main.c: 713:     PORTB = 0xB0;
  6592                           
  6593                           ;incstack = 0
  6594  006408  0EB0               	movlw	176
  6595  00640A  6E81               	movwf	3969,c	;volatile
  6596                           
  6597                           ;main.c: 714:     PORTCbits.RC7 = 1;
  6598  00640C  8E82               	bsf	3970,7,c	;volatile
  6599                           
  6600                           ;main.c: 715:     _delay((unsigned long)((1600)*(20000000/4000000.0)));
  6601  00640E  0E0B               	movlw	11
  6602  006410  6E37               	movwf	??_Draw_P1& (0+255),c
  6603  006412  0E62               	movlw	98
  6604  006414                     u2727:
  6605  006414  2EE8               	decfsz	wreg,f,c
  6606  006416  D7FE               	bra	u2727
  6607  006418  2E37               	decfsz	??_Draw_P1& (0+255),f,c
  6608  00641A  D7FC               	bra	u2727
  6609  00641C  D000               	nop2	
  6610                           
  6611                           ;main.c: 716:     PORTCbits.RC7 = 0;
  6612  00641E  9E82               	bcf	3970,7,c	;volatile
  6613                           
  6614                           ;main.c: 717:     PORTB = 0x7D;
  6615  006420  0E7D               	movlw	125
  6616  006422  6E81               	movwf	3969,c	;volatile
  6617                           
  6618                           ;main.c: 718:     PORTCbits.RC6 = 1;
  6619  006424  8C82               	bsf	3970,6,c	;volatile
  6620                           
  6621                           ;main.c: 719:     _delay((unsigned long)((1600)*(20000000/4000000.0)));
  6622  006426  0E0B               	movlw	11
  6623  006428  6E37               	movwf	??_Draw_P1& (0+255),c
  6624  00642A  0E62               	movlw	98
  6625  00642C                     u2737:
  6626  00642C  2EE8               	decfsz	wreg,f,c
  6627  00642E  D7FE               	bra	u2737
  6628  006430  2E37               	decfsz	??_Draw_P1& (0+255),f,c
  6629  006432  D7FC               	bra	u2737
  6630  006434  D000               	nop2	
  6631                           
  6632                           ;main.c: 720:     PORTCbits.RC6 = 0;
  6633  006436  9C82               	bcf	3970,6,c	;volatile
  6634  006438  0012               	return		;funcret
  6635  00643A                     __end_of_Draw_P1:
  6636                           	opt callstack 0
  6637                           
  6638 ;; *************** function _Indicator *****************
  6639 ;; Defined at:
  6640 ;;		line 1060 in file "main.c"
  6641 ;; Parameters:    Size  Location     Type
  6642 ;;		None
  6643 ;; Auto vars:     Size  Location     Type
  6644 ;;		None
  6645 ;; Return value:  Size  Location     Type
  6646 ;;                  1    wreg      void 
  6647 ;; Registers used:
  6648 ;;		wreg, status,2, status,0
  6649 ;; Tracked objects:
  6650 ;;		On entry : 0/0
  6651 ;;		On exit  : 0/0
  6652 ;;		Unchanged: 0/0
  6653 ;; Data sizes:     COMRAM   BANK0   BANK1   BANK2   BANK3   BANK4   BANK5   BANK6   BANK7
  6654 ;;      Params:         0       0       0       0       0       0       0       0       0
  6655 ;;      Locals:         0       0       0       0       0       0       0       0       0
  6656 ;;      Temps:          0       0       0       0       0       0       0       0       0
  6657 ;;      Totals:         0       0       0       0       0       0       0       0       0
  6658 ;;Total ram usage:        0 bytes
  6659 ;; Hardware stack levels used:    1
  6660 ;; This function calls:
  6661 ;;		Nothing
  6662 ;; This function is called by:
  6663 ;;		_main
  6664 ;; This function uses a non-reentrant model
  6665 ;;
  6666                           
  6667                           	psect	text42
  6668  00687E                     __ptext42:
  6669                           	opt callstack 0
  6670  00687E                     _Indicator:
  6671                           	opt callstack 30
  6672                           
  6673                           ;main.c: 1061:     Inductive_State = PORTAbits.RA3;
  6674                           
  6675                           ;incstack = 0
  6676  00687E  A680               	btfss	3968,3,c	;volatile
  6677  006880  D002               	goto	u490
  6678  006882  0E01               	movlw	1
  6679  006884  D001               	goto	u496
  6680  006886                     u490:
  6681  006886  0E00               	movlw	0
  6682  006888                     u496:
  6683  006888  6E4E               	movwf	_Inductive_State,c
  6684                           
  6685                           ;main.c: 1062:     End_Stop_Close_State = PORTAbits.RA5;
  6686  00688A  AA80               	btfss	3968,5,c	;volatile
  6687  00688C  D002               	goto	u500
  6688  00688E  0E01               	movlw	1
  6689  006890  D001               	goto	u506
  6690  006892                     u500:
  6691  006892  0E00               	movlw	0
  6692  006894                     u506:
  6693  006894  6E4D               	movwf	_End_Stop_Close_State,c
  6694                           
  6695                           ;main.c: 1063:     if (Inductive_State == 1 && End_Stop_Close_State == 0) {
  6696  006896  044E               	decf	_Inductive_State,w,c
  6697  006898  A4D8               	btfss	status,2,c
  6698  00689A  D006               	goto	l2349
  6699  00689C  504D               	movf	_End_Stop_Close_State,w,c
  6700  00689E  A4D8               	btfss	status,2,c
  6701  0068A0  D003               	goto	l2349
  6702                           
  6703                           ;main.c: 1064:         PORTB = 0xFF;
  6704  0068A2  6881               	setf	3969,c	;volatile
  6705                           
  6706                           ;main.c: 1065:         PORTCbits.RC7 = 1;
  6707  0068A4  8E82               	bsf	3970,7,c	;volatile
  6708                           
  6709                           ;main.c: 1066:     } else {
  6710  0068A6  0012               	return	
  6711  0068A8                     l2349:
  6712                           
  6713                           ;main.c: 1067:         Count_Led++;
  6714  0068A8  4A25               	infsnz	_Count_Led,f,c
  6715  0068AA  2A26               	incf	_Count_Led+1,f,c
  6716                           
  6717                           ;main.c: 1068:         if (Count_Led < 2) {
  6718  0068AC  BE26               	btfsc	_Count_Led+1,7,c
  6719  0068AE  D006               	goto	u530
  6720  0068B0  5026               	movf	_Count_Led+1,w,c
  6721  0068B2  E107               	bnz	l2355
  6722  0068B4  0E02               	movlw	2
  6723  0068B6  5C25               	subwf	_Count_Led,w,c
  6724  0068B8  B0D8               	btfsc	status,0,c
  6725  0068BA  D003               	goto	l2355
  6726  0068BC                     u530:
  6727                           
  6728                           ;main.c: 1069:             PORTB = 0xFF;
  6729  0068BC  6881               	setf	3969,c	;volatile
  6730                           
  6731                           ;main.c: 1070:             PORTCbits.RC7 = 1;
  6732  0068BE  8E82               	bsf	3970,7,c	;volatile
  6733                           
  6734                           ;main.c: 1071:         } else if (Count_Led >= 2 && Count_Led < 4) {
  6735  0068C0  0012               	return	
  6736  0068C2                     l2355:
  6737  0068C2  BE26               	btfsc	_Count_Led+1,7,c
  6738  0068C4  D011               	goto	l573
  6739  0068C6  5026               	movf	_Count_Led+1,w,c
  6740  0068C8  E104               	bnz	u540
  6741  0068CA  0E02               	movlw	2
  6742  0068CC  5C25               	subwf	_Count_Led,w,c
  6743  0068CE  A0D8               	btfss	status,0,c
  6744  0068D0  D00B               	goto	l573
  6745  0068D2                     u540:
  6746  0068D2  BE26               	btfsc	_Count_Led+1,7,c
  6747  0068D4  D006               	goto	u550
  6748  0068D6  5026               	movf	_Count_Led+1,w,c
  6749  0068D8  E107               	bnz	l573
  6750  0068DA  0E04               	movlw	4
  6751  0068DC  5C25               	subwf	_Count_Led,w,c
  6752  0068DE  B0D8               	btfsc	status,0,c
  6753  0068E0  D003               	goto	l573
  6754  0068E2                     u550:
  6755                           
  6756                           ;main.c: 1072:             PORTB = 0xFF;
  6757  0068E2  6881               	setf	3969,c	;volatile
  6758                           
  6759                           ;main.c: 1073:             PORTCbits.RC7 = 0;
  6760  0068E4  9E82               	bcf	3970,7,c	;volatile
  6761                           
  6762                           ;main.c: 1074:         } else {
  6763  0068E6  0012               	return	
  6764  0068E8                     l573:
  6765                           
  6766                           ;main.c: 1075:             PORTB = 0xFF;
  6767  0068E8  6881               	setf	3969,c	;volatile
  6768                           
  6769                           ;main.c: 1076:             PORTCbits.RC7 = 0;
  6770  0068EA  9E82               	bcf	3970,7,c	;volatile
  6771                           
  6772                           ;main.c: 1077:             Count_Led = 0;
  6773  0068EC  0E00               	movlw	0
  6774  0068EE  6E26               	movwf	_Count_Led+1,c
  6775  0068F0  0E00               	movlw	0
  6776  0068F2  6E25               	movwf	_Count_Led,c
  6777  0068F4  0012               	return		;funcret
  6778  0068F6                     __end_of_Indicator:
  6779                           	opt callstack 0
  6780                           
  6781 ;; *************** function _Close_Lock *****************
  6782 ;; Defined at:
  6783 ;;		line 174 in file "main.c"
  6784 ;; Parameters:    Size  Location     Type
  6785 ;;		None
  6786 ;; Auto vars:     Size  Location     Type
  6787 ;;		None
  6788 ;; Return value:  Size  Location     Type
  6789 ;;                  1    wreg      void 
  6790 ;; Registers used:
  6791 ;;		wreg, status,2, status,0, prodl, prodh, cstack
  6792 ;; Tracked objects:
  6793 ;;		On entry : 0/0
  6794 ;;		On exit  : 0/0
  6795 ;;		Unchanged: 0/0
  6796 ;; Data sizes:     COMRAM   BANK0   BANK1   BANK2   BANK3   BANK4   BANK5   BANK6   BANK7
  6797 ;;      Params:         0       0       0       0       0       0       0       0       0
  6798 ;;      Locals:         0       0       0       0       0       0       0       0       0
  6799 ;;      Temps:          2       0       0       0       0       0       0       0       0
  6800 ;;      Totals:         2       0       0       0       0       0       0       0       0
  6801 ;;Total ram usage:        2 bytes
  6802 ;; Hardware stack levels used:    1
  6803 ;; Hardware stack levels required when called:    3
  6804 ;; This function calls:
  6805 ;;		_Closing
  6806 ;;		___wmul
  6807 ;;		_eeprom_readx
  6808 ;; This function is called by:
  6809 ;;		_main
  6810 ;; This function uses a non-reentrant model
  6811 ;;
  6812                           
  6813                           	psect	text43
  6814  0076DA                     __ptext43:
  6815                           	opt callstack 0
  6816  0076DA                     _Close_Lock:
  6817                           	opt callstack 27
  6818                           
  6819                           ;main.c: 175:     Inductive_State = PORTAbits.RA3;
  6820                           
  6821                           ;incstack = 0
  6822  0076DA  A680               	btfss	3968,3,c	;volatile
  6823  0076DC  D002               	goto	u1500
  6824  0076DE  0E01               	movlw	1
  6825  0076E0  D001               	goto	u1506
  6826  0076E2                     u1500:
  6827  0076E2  0E00               	movlw	0
  6828  0076E4                     u1506:
  6829  0076E4  6E4E               	movwf	_Inductive_State,c
  6830                           
  6831                           ;main.c: 176:     _delay((unsigned long)((50)*(20000000/4000.0)));
  6832  0076E6  0E02               	movlw	2
  6833  0076E8  6E3E               	movwf	(??_Close_Lock+1)& (0+255),c
  6834  0076EA  0E45               	movlw	69
  6835  0076EC  6E3D               	movwf	??_Close_Lock& (0+255),c
  6836  0076EE  0EAA               	movlw	170
  6837  0076F0                     u2747:
  6838  0076F0  2EE8               	decfsz	wreg,f,c
  6839  0076F2  D7FE               	bra	u2747
  6840  0076F4  2E3D               	decfsz	??_Close_Lock& (0+255),f,c
  6841  0076F6  D7FC               	bra	u2747
  6842  0076F8  2E3E               	decfsz	(??_Close_Lock+1)& (0+255),f,c
  6843  0076FA  D7FA               	bra	u2747
  6844                           
  6845                           ;main.c: 177:     if(Inductive_State == 1 && Last_Inductive_State == 0) {
  6846  0076FC  044E               	decf	_Inductive_State,w,c
  6847  0076FE  A4D8               	btfss	status,2,c
  6848  007700  D1D5               	goto	l3685
  6849  007702  5036               	movf	_Last_Inductive_State,w,c
  6850  007704  A4D8               	btfss	status,2,c
  6851  007706  D1D2               	goto	l3685
  6852                           
  6853                           ;main.c: 178:         _delay((unsigned long)((50)*(20000000/4000.0)));
  6854  007708  0E02               	movlw	2
  6855  00770A  6E3E               	movwf	(??_Close_Lock+1)& (0+255),c
  6856  00770C  0E45               	movlw	69
  6857  00770E  6E3D               	movwf	??_Close_Lock& (0+255),c
  6858  007710  0EAA               	movlw	170
  6859  007712                     u2757:
  6860  007712  2EE8               	decfsz	wreg,f,c
  6861  007714  D7FE               	bra	u2757
  6862  007716  2E3D               	decfsz	??_Close_Lock& (0+255),f,c
  6863  007718  D7FC               	bra	u2757
  6864  00771A  2E3E               	decfsz	(??_Close_Lock+1)& (0+255),f,c
  6865  00771C  D7FA               	bra	u2757
  6866                           
  6867                           ;main.c: 179:         End_Stop_Open_State = PORTAbits.RA4;
  6868  00771E  A880               	btfss	3968,4,c	;volatile
  6869  007720  D002               	goto	u1530
  6870  007722  0E01               	movlw	1
  6871  007724  D001               	goto	u1536
  6872  007726                     u1530:
  6873  007726  0E00               	movlw	0
  6874  007728                     u1536:
  6875  007728  6E34               	movwf	_End_Stop_Open_State,c
  6876                           
  6877                           ;main.c: 180:         if(Inductive_State == 1 && Last_Inductive_State == 0 && End_Stop_O
      +                          pen_State == 0) {
  6878  00772A  044E               	decf	_Inductive_State,w,c
  6879  00772C  A4D8               	btfss	status,2,c
  6880  00772E  D1BE               	goto	l3685
  6881  007730  5036               	movf	_Last_Inductive_State,w,c
  6882  007732  A4D8               	btfss	status,2,c
  6883  007734  D1BB               	goto	l3685
  6884  007736  5034               	movf	_End_Stop_Open_State,w,c
  6885  007738  A4D8               	btfss	status,2,c
  6886  00773A  D1B8               	goto	l3685
  6887                           
  6888                           ;main.c: 181:             _delay((unsigned long)((50)*(20000000/4000.0)));
  6889  00773C  0E02               	movlw	2
  6890  00773E  6E3E               	movwf	(??_Close_Lock+1)& (0+255),c
  6891  007740  0E45               	movlw	69
  6892  007742  6E3D               	movwf	??_Close_Lock& (0+255),c
  6893  007744  0EAA               	movlw	170
  6894  007746                     u2767:
  6895  007746  2EE8               	decfsz	wreg,f,c
  6896  007748  D7FE               	bra	u2767
  6897  00774A  2E3D               	decfsz	??_Close_Lock& (0+255),f,c
  6898  00774C  D7FC               	bra	u2767
  6899  00774E  2E3E               	decfsz	(??_Close_Lock+1)& (0+255),f,c
  6900  007750  D7FA               	bra	u2767
  6901                           
  6902                           ;main.c: 182:             Count_Time_Close = 0;
  6903  007752  0E00               	movlw	0
  6904  007754  6E1D               	movwf	_Count_Time_Close,c
  6905  007756  0E00               	movlw	0
  6906  007758  6E1E               	movwf	_Count_Time_Close+1,c
  6907  00775A  0E00               	movlw	0
  6908  00775C  6E1F               	movwf	_Count_Time_Close+2,c
  6909  00775E  0E00               	movlw	0
  6910  007760  6E20               	movwf	_Count_Time_Close+3,c
  6911                           
  6912                           ;main.c: 183:             Time_Inductive_State = eeprom_readx(0x02);
  6913  007762  0E00               	movlw	0
  6914  007764  6E38               	movwf	eeprom_readx@address+1,c
  6915  007766  0E02               	movlw	2
  6916  007768  6E37               	movwf	eeprom_readx@address,c
  6917  00776A  EC98  F030         	call	_eeprom_readx	;wreg free
  6918  00776E  6E3D               	movwf	??_Close_Lock& (0+255),c
  6919  007770  503D               	movf	??_Close_Lock,w,c
  6920  007772  6E4A               	movwf	_Time_Inductive_State,c
  6921  007774  6A4B               	clrf	_Time_Inductive_State+1,c
  6922                           
  6923                           ;main.c: 184:             Time_Inductive_State = Time_Inductive_State * 1000;
  6924  007776  C04A  F037         	movff	_Time_Inductive_State,___wmul@multiplier
  6925  00777A  C04B  F038         	movff	_Time_Inductive_State+1,___wmul@multiplier+1
  6926  00777E  0E03               	movlw	3
  6927  007780  6E3A               	movwf	___wmul@multiplicand+1,c
  6928  007782  0EE8               	movlw	232
  6929  007784  6E39               	movwf	___wmul@multiplicand,c
  6930  007786  ECC1  F030         	call	___wmul	;wreg free
  6931  00778A  C037  F04A         	movff	?___wmul,_Time_Inductive_State
  6932  00778E  C038  F04B         	movff	?___wmul+1,_Time_Inductive_State+1
  6933                           
  6934                           ;main.c: 185:             switch (Time_Inductive_State)
  6935  007792  D0F9               	goto	l3679
  6936  007794                     l3643:
  6937  007794  0E0D               	movlw	13
  6938  007796  6E3E               	movwf	(??_Close_Lock+1)& (0+255),c
  6939  007798  0EAF               	movlw	175
  6940  00779A  6E3D               	movwf	??_Close_Lock& (0+255),c
  6941  00779C  0EB6               	movlw	182
  6942  00779E                     u2777:
  6943  00779E  2EE8               	decfsz	wreg,f,c
  6944  0077A0  D7FE               	bra	u2777
  6945  0077A2  2E3D               	decfsz	??_Close_Lock& (0+255),f,c
  6946  0077A4  D7FC               	bra	u2777
  6947  0077A6  2E3E               	decfsz	(??_Close_Lock+1)& (0+255),f,c
  6948  0077A8  D7FA               	bra	u2777
  6949  0077AA  D08E               	goto	L12
  6950  0077AC                     l3645:
  6951  0077AC  0E1A               	movlw	26
  6952  0077AE  6E3E               	movwf	(??_Close_Lock+1)& (0+255),c
  6953  0077B0  0E5E               	movlw	94
  6954  0077B2  6E3D               	movwf	??_Close_Lock& (0+255),c
  6955  0077B4  0E6E               	movlw	110
  6956  0077B6                     u2787:
  6957  0077B6  2EE8               	decfsz	wreg,f,c
  6958  0077B8  D7FE               	bra	u2787
  6959  0077BA  2E3D               	decfsz	??_Close_Lock& (0+255),f,c
  6960  0077BC  D7FC               	bra	u2787
  6961  0077BE  2E3E               	decfsz	(??_Close_Lock+1)& (0+255),f,c
  6962  0077C0  D7FA               	bra	u2787
  6963  0077C2  D082               	goto	L12
  6964  0077C4                     l3647:
  6965  0077C4  0E33               	movlw	51
  6966  0077C6  6E3E               	movwf	(??_Close_Lock+1)& (0+255),c
  6967  0077C8  0EBB               	movlw	187
  6968  0077CA  6E3D               	movwf	??_Close_Lock& (0+255),c
  6969  0077CC  0EE0               	movlw	224
  6970  0077CE                     u2797:
  6971  0077CE  2EE8               	decfsz	wreg,f,c
  6972  0077D0  D7FE               	bra	u2797
  6973  0077D2  2E3D               	decfsz	??_Close_Lock& (0+255),f,c
  6974  0077D4  D7FC               	bra	u2797
  6975  0077D6  2E3E               	decfsz	(??_Close_Lock+1)& (0+255),f,c
  6976  0077D8  D7FA               	bra	u2797
  6977  0077DA  D159               	goto	l199
  6978  0077DC                     l3649:
  6979  0077DC  0E4D               	movlw	77
  6980  0077DE  6E3E               	movwf	(??_Close_Lock+1)& (0+255),c
  6981  0077E0  0E19               	movlw	25
  6982  0077E2  6E3D               	movwf	??_Close_Lock& (0+255),c
  6983  0077E4  0E50               	movlw	80
  6984  0077E6                     u2807:
  6985  0077E6  2EE8               	decfsz	wreg,f,c
  6986  0077E8  D7FE               	bra	u2807
  6987  0077EA  2E3D               	decfsz	??_Close_Lock& (0+255),f,c
  6988  0077EC  D7FC               	bra	u2807
  6989  0077EE  2E3E               	decfsz	(??_Close_Lock+1)& (0+255),f,c
  6990  0077F0  D7FA               	bra	u2807
  6991  0077F2  D14D               	goto	l199
  6992  0077F4                     l3651:
  6993  0077F4  0E66               	movlw	102
  6994  0077F6  6E3E               	movwf	(??_Close_Lock+1)& (0+255),c
  6995  0077F8  0E76               	movlw	118
  6996  0077FA  6E3D               	movwf	??_Close_Lock& (0+255),c
  6997  0077FC  0EC1               	movlw	193
  6998  0077FE                     u2817:
  6999  0077FE  2EE8               	decfsz	wreg,f,c
  7000  007800  D7FE               	bra	u2817
  7001  007802  2E3D               	decfsz	??_Close_Lock& (0+255),f,c
  7002  007804  D7FC               	bra	u2817
  7003  007806  2E3E               	decfsz	(??_Close_Lock+1)& (0+255),f,c
  7004  007808  D7FA               	bra	u2817
  7005  00780A  D0A4               	goto	L13
  7006  00780C                     l3653:
  7007  00780C  0E7F               	movlw	127
  7008  00780E  6E3E               	movwf	(??_Close_Lock+1)& (0+255),c
  7009  007810  0ED4               	movlw	212
  7010  007812  6E3D               	movwf	??_Close_Lock& (0+255),c
  7011  007814  0E32               	movlw	50
  7012  007816                     u2827:
  7013  007816  2EE8               	decfsz	wreg,f,c
  7014  007818  D7FE               	bra	u2827
  7015  00781A  2E3D               	decfsz	??_Close_Lock& (0+255),f,c
  7016  00781C  D7FC               	bra	u2827
  7017  00781E  2E3E               	decfsz	(??_Close_Lock+1)& (0+255),f,c
  7018  007820  D7FA               	bra	u2827
  7019  007822  D135               	goto	l199
  7020  007824                     l3655:
  7021  007824  0E99               	movlw	153
  7022  007826  6E3E               	movwf	(??_Close_Lock+1)& (0+255),c
  7023  007828  0E31               	movlw	49
  7024  00782A  6E3D               	movwf	??_Close_Lock& (0+255),c
  7025  00782C  0EA2               	movlw	162
  7026  00782E                     u2837:
  7027  00782E  2EE8               	decfsz	wreg,f,c
  7028  007830  D7FE               	bra	u2837
  7029  007832  2E3D               	decfsz	??_Close_Lock& (0+255),f,c
  7030  007834  D7FC               	bra	u2837
  7031  007836  2E3E               	decfsz	(??_Close_Lock+1)& (0+255),f,c
  7032  007838  D7FA               	bra	u2837
  7033  00783A  D046               	goto	L12
  7034  00783C                     l3657:
  7035  00783C  0EB2               	movlw	178
  7036  00783E  6E3E               	movwf	(??_Close_Lock+1)& (0+255),c
  7037  007840  0E8F               	movlw	143
  7038  007842  6E3D               	movwf	??_Close_Lock& (0+255),c
  7039  007844  0E13               	movlw	19
  7040  007846                     u2847:
  7041  007846  2EE8               	decfsz	wreg,f,c
  7042  007848  D7FE               	bra	u2847
  7043  00784A  2E3D               	decfsz	??_Close_Lock& (0+255),f,c
  7044  00784C  D7FC               	bra	u2847
  7045  00784E  2E3E               	decfsz	(??_Close_Lock+1)& (0+255),f,c
  7046  007850  D7FA               	bra	u2847
  7047  007852  D080               	goto	L13
  7048  007854                     l3659:
  7049  007854  0ECB               	movlw	203
  7050  007856  6E3E               	movwf	(??_Close_Lock+1)& (0+255),c
  7051  007858  0EEC               	movlw	236
  7052  00785A  6E3D               	movwf	??_Close_Lock& (0+255),c
  7053  00785C  0E84               	movlw	132
  7054  00785E                     u2857:
  7055  00785E  2EE8               	decfsz	wreg,f,c
  7056  007860  D7FE               	bra	u2857
  7057  007862  2E3D               	decfsz	??_Close_Lock& (0+255),f,c
  7058  007864  D7FC               	bra	u2857
  7059  007866  2E3E               	decfsz	(??_Close_Lock+1)& (0+255),f,c
  7060  007868  D7FA               	bra	u2857
  7061  00786A  D02E               	goto	L12
  7062  00786C                     l3661:
  7063  00786C  0EE5               	movlw	229
  7064  00786E  6E3E               	movwf	(??_Close_Lock+1)& (0+255),c
  7065  007870  0E49               	movlw	73
  7066  007872  6E3D               	movwf	??_Close_Lock& (0+255),c
  7067  007874  0EF5               	movlw	245
  7068  007876                     u2867:
  7069  007876  2EE8               	decfsz	wreg,f,c
  7070  007878  D7FE               	bra	u2867
  7071  00787A  2E3D               	decfsz	??_Close_Lock& (0+255),f,c
  7072  00787C  D7FC               	bra	u2867
  7073  00787E  2E3E               	decfsz	(??_Close_Lock+1)& (0+255),f,c
  7074  007880  D7FA               	bra	u2867
  7075  007882  D068               	goto	L13
  7076  007884                     l3663:
  7077  007884  0EFE               	movlw	254
  7078  007886  6E3E               	movwf	(??_Close_Lock+1)& (0+255),c
  7079  007888  0EA7               	movlw	167
  7080  00788A  6E3D               	movwf	??_Close_Lock& (0+255),c
  7081  00788C  0E66               	movlw	102
  7082  00788E                     u2877:
  7083  00788E  2EE8               	decfsz	wreg,f,c
  7084  007890  D7FE               	bra	u2877
  7085  007892  2E3D               	decfsz	??_Close_Lock& (0+255),f,c
  7086  007894  D7FC               	bra	u2877
  7087  007896  2E3E               	decfsz	(??_Close_Lock+1)& (0+255),f,c
  7088  007898  D7FA               	bra	u2877
  7089  00789A  D0F9               	goto	l199
  7090  00789C                     l3665:
  7091  00789C  0EFE               	movlw	254
  7092  00789E  6E3E               	movwf	(??_Close_Lock+1)& (0+255),c
  7093  0078A0  0EA7               	movlw	167
  7094  0078A2  6E3D               	movwf	??_Close_Lock& (0+255),c
  7095  0078A4  0E66               	movlw	102
  7096  0078A6                     u2887:
  7097  0078A6  2EE8               	decfsz	wreg,f,c
  7098  0078A8  D7FE               	bra	u2887
  7099  0078AA  2E3D               	decfsz	??_Close_Lock& (0+255),f,c
  7100  0078AC  D7FC               	bra	u2887
  7101  0078AE  2E3E               	decfsz	(??_Close_Lock+1)& (0+255),f,c
  7102  0078B0  D7FA               	bra	u2887
  7103  0078B2  0E1A               	movlw	26
  7104  0078B4  6E3E               	movwf	(??_Close_Lock+1)& (0+255),c
  7105  0078B6  0E5E               	movlw	94
  7106  0078B8  6E3D               	movwf	??_Close_Lock& (0+255),c
  7107  0078BA  0E6E               	movlw	110
  7108  0078BC                     u2897:
  7109  0078BC  2EE8               	decfsz	wreg,f,c
  7110  0078BE  D7FE               	bra	u2897
  7111  0078C0  2E3D               	decfsz	??_Close_Lock& (0+255),f,c
  7112  0078C2  D7FC               	bra	u2897
  7113  0078C4  2E3E               	decfsz	(??_Close_Lock+1)& (0+255),f,c
  7114  0078C6  D7FA               	bra	u2897
  7115  0078C8                     L12:
  7116  0078C8  D000               	nop2	
  7117  0078CA  D0E1               	goto	l199
  7118  0078CC                     l3667:
  7119  0078CC  0EFE               	movlw	254
  7120  0078CE  6E3E               	movwf	(??_Close_Lock+1)& (0+255),c
  7121  0078D0  0EA7               	movlw	167
  7122  0078D2  6E3D               	movwf	??_Close_Lock& (0+255),c
  7123  0078D4  0E66               	movlw	102
  7124  0078D6                     u2907:
  7125  0078D6  2EE8               	decfsz	wreg,f,c
  7126  0078D8  D7FE               	bra	u2907
  7127  0078DA  2E3D               	decfsz	??_Close_Lock& (0+255),f,c
  7128  0078DC  D7FC               	bra	u2907
  7129  0078DE  2E3E               	decfsz	(??_Close_Lock+1)& (0+255),f,c
  7130  0078E0  D7FA               	bra	u2907
  7131  0078E2  0E33               	movlw	51
  7132  0078E4  6E3E               	movwf	(??_Close_Lock+1)& (0+255),c
  7133  0078E6  0EBB               	movlw	187
  7134  0078E8  6E3D               	movwf	??_Close_Lock& (0+255),c
  7135  0078EA  0EE0               	movlw	224
  7136  0078EC                     u2917:
  7137  0078EC  2EE8               	decfsz	wreg,f,c
  7138  0078EE  D7FE               	bra	u2917
  7139  0078F0  2E3D               	decfsz	??_Close_Lock& (0+255),f,c
  7140  0078F2  D7FC               	bra	u2917
  7141  0078F4  2E3E               	decfsz	(??_Close_Lock+1)& (0+255),f,c
  7142  0078F6  D7FA               	bra	u2917
  7143  0078F8  D0CA               	goto	l199
  7144  0078FA                     l3669:
  7145  0078FA  0EFE               	movlw	254
  7146  0078FC  6E3E               	movwf	(??_Close_Lock+1)& (0+255),c
  7147  0078FE  0EA7               	movlw	167
  7148  007900  6E3D               	movwf	??_Close_Lock& (0+255),c
  7149  007902  0E66               	movlw	102
  7150  007904                     u2927:
  7151  007904  2EE8               	decfsz	wreg,f,c
  7152  007906  D7FE               	bra	u2927
  7153  007908  2E3D               	decfsz	??_Close_Lock& (0+255),f,c
  7154  00790A  D7FC               	bra	u2927
  7155  00790C  2E3E               	decfsz	(??_Close_Lock+1)& (0+255),f,c
  7156  00790E  D7FA               	bra	u2927
  7157  007910  0E4D               	movlw	77
  7158  007912  6E3E               	movwf	(??_Close_Lock+1)& (0+255),c
  7159  007914  0E19               	movlw	25
  7160  007916  6E3D               	movwf	??_Close_Lock& (0+255),c
  7161  007918  0E50               	movlw	80
  7162  00791A                     u2937:
  7163  00791A  2EE8               	decfsz	wreg,f,c
  7164  00791C  D7FE               	bra	u2937
  7165  00791E  2E3D               	decfsz	??_Close_Lock& (0+255),f,c
  7166  007920  D7FC               	bra	u2937
  7167  007922  2E3E               	decfsz	(??_Close_Lock+1)& (0+255),f,c
  7168  007924  D7FA               	bra	u2937
  7169  007926  D0B3               	goto	l199
  7170  007928                     l3671:
  7171  007928  0EFE               	movlw	254
  7172  00792A  6E3E               	movwf	(??_Close_Lock+1)& (0+255),c
  7173  00792C  0EA7               	movlw	167
  7174  00792E  6E3D               	movwf	??_Close_Lock& (0+255),c
  7175  007930  0E66               	movlw	102
  7176  007932                     u2947:
  7177  007932  2EE8               	decfsz	wreg,f,c
  7178  007934  D7FE               	bra	u2947
  7179  007936  2E3D               	decfsz	??_Close_Lock& (0+255),f,c
  7180  007938  D7FC               	bra	u2947
  7181  00793A  2E3E               	decfsz	(??_Close_Lock+1)& (0+255),f,c
  7182  00793C  D7FA               	bra	u2947
  7183  00793E  0E66               	movlw	102
  7184  007940  6E3E               	movwf	(??_Close_Lock+1)& (0+255),c
  7185  007942  0E76               	movlw	118
  7186  007944  6E3D               	movwf	??_Close_Lock& (0+255),c
  7187  007946  0EC1               	movlw	193
  7188  007948                     u2957:
  7189  007948  2EE8               	decfsz	wreg,f,c
  7190  00794A  D7FE               	bra	u2957
  7191  00794C  2E3D               	decfsz	??_Close_Lock& (0+255),f,c
  7192  00794E  D7FC               	bra	u2957
  7193  007950  2E3E               	decfsz	(??_Close_Lock+1)& (0+255),f,c
  7194  007952  D7FA               	bra	u2957
  7195  007954                     L13:
  7196  007954  F000               	nop	
  7197  007956  D09B               	goto	l199
  7198  007958                     l3673:
  7199  007958  0EFE               	movlw	254
  7200  00795A  6E3E               	movwf	(??_Close_Lock+1)& (0+255),c
  7201  00795C  0EA7               	movlw	167
  7202  00795E  6E3D               	movwf	??_Close_Lock& (0+255),c
  7203  007960  0E66               	movlw	102
  7204  007962                     u2967:
  7205  007962  2EE8               	decfsz	wreg,f,c
  7206  007964  D7FE               	bra	u2967
  7207  007966  2E3D               	decfsz	??_Close_Lock& (0+255),f,c
  7208  007968  D7FC               	bra	u2967
  7209  00796A  2E3E               	decfsz	(??_Close_Lock+1)& (0+255),f,c
  7210  00796C  D7FA               	bra	u2967
  7211  00796E  0E7F               	movlw	127
  7212  007970  6E3E               	movwf	(??_Close_Lock+1)& (0+255),c
  7213  007972  0ED4               	movlw	212
  7214  007974  6E3D               	movwf	??_Close_Lock& (0+255),c
  7215  007976  0E32               	movlw	50
  7216  007978                     u2977:
  7217  007978  2EE8               	decfsz	wreg,f,c
  7218  00797A  D7FE               	bra	u2977
  7219  00797C  2E3D               	decfsz	??_Close_Lock& (0+255),f,c
  7220  00797E  D7FC               	bra	u2977
  7221  007980  2E3E               	decfsz	(??_Close_Lock+1)& (0+255),f,c
  7222  007982  D7FA               	bra	u2977
  7223  007984  D084               	goto	l199
  7224  007986                     l3679:
  7225  007986  C04A  F03D         	movff	_Time_Inductive_State,??_Close_Lock
  7226  00798A  C04B  F03E         	movff	_Time_Inductive_State+1,??_Close_Lock+1
  7227                           
  7228                           ; Switch on 2 bytes has been partitioned into a top level switch of size 1, and 16 sub-s
      +                          witches
  7229                           ; Switch size 1, requested type "simple"
  7230                           ; Number of cases is 16, Range of values is 0 to 58
  7231                           ; switch strategies available:
  7232                           ; Name         Instructions Cycles
  7233                           ; simple_byte           49    25 (average)
  7234                           ;	Chosen strategy is simple_byte
  7235  00798E  503E               	movf	??_Close_Lock+1,w,c
  7236  007990  0A00               	xorlw	0	; case 0
  7237  007992  B4D8               	btfsc	status,2,c
  7238  007994  D02E               	goto	l4209
  7239  007996  0A03               	xorlw	3	; case 3
  7240  007998  B4D8               	btfsc	status,2,c
  7241  00799A  D02E               	goto	l4211
  7242  00799C  0A04               	xorlw	4	; case 7
  7243  00799E  B4D8               	btfsc	status,2,c
  7244  0079A0  D030               	goto	l4213
  7245  0079A2  0A0C               	xorlw	12	; case 11
  7246  0079A4  B4D8               	btfsc	status,2,c
  7247  0079A6  D032               	goto	l4215
  7248  0079A8  0A04               	xorlw	4	; case 15
  7249  0079AA  B4D8               	btfsc	status,2,c
  7250  0079AC  D034               	goto	l4217
  7251  0079AE  0A1C               	xorlw	28	; case 19
  7252  0079B0  B4D8               	btfsc	status,2,c
  7253  0079B2  D036               	goto	l4219
  7254  0079B4  0A04               	xorlw	4	; case 23
  7255  0079B6  B4D8               	btfsc	status,2,c
  7256  0079B8  D038               	goto	l4221
  7257  0079BA  0A0C               	xorlw	12	; case 27
  7258  0079BC  B4D8               	btfsc	status,2,c
  7259  0079BE  D03A               	goto	l4223
  7260  0079C0  0A04               	xorlw	4	; case 31
  7261  0079C2  B4D8               	btfsc	status,2,c
  7262  0079C4  D03C               	goto	l4225
  7263  0079C6  0A3C               	xorlw	60	; case 35
  7264  0079C8  B4D8               	btfsc	status,2,c
  7265  0079CA  D03E               	goto	l4227
  7266  0079CC  0A04               	xorlw	4	; case 39
  7267  0079CE  B4D8               	btfsc	status,2,c
  7268  0079D0  D040               	goto	l4229
  7269  0079D2  0A0D               	xorlw	13	; case 42
  7270  0079D4  B4D8               	btfsc	status,2,c
  7271  0079D6  D042               	goto	l4231
  7272  0079D8  0A04               	xorlw	4	; case 46
  7273  0079DA  B4D8               	btfsc	status,2,c
  7274  0079DC  D044               	goto	l4233
  7275  0079DE  0A1C               	xorlw	28	; case 50
  7276  0079E0  B4D8               	btfsc	status,2,c
  7277  0079E2  D046               	goto	l4235
  7278  0079E4  0A04               	xorlw	4	; case 54
  7279  0079E6  B4D8               	btfsc	status,2,c
  7280  0079E8  D048               	goto	l4237
  7281  0079EA  0A0C               	xorlw	12	; case 58
  7282  0079EC  B4D8               	btfsc	status,2,c
  7283  0079EE  D04A               	goto	l4239
  7284  0079F0  D6D1               	goto	l3643
  7285  0079F2                     l4209:
  7286                           
  7287                           ; Switch size 1, requested type "simple"
  7288                           ; Number of cases is 1, Range of values is 0 to 0
  7289                           ; switch strategies available:
  7290                           ; Name         Instructions Cycles
  7291                           ; simple_byte            4     3 (average)
  7292                           ;	Chosen strategy is simple_byte
  7293  0079F2  503D               	movf	??_Close_Lock,w,c
  7294  0079F4  0A00               	xorlw	0	; case 0
  7295  0079F6  D6CE               	goto	l3643
  7296  0079F8                     l4211:
  7297                           
  7298                           ; Switch size 1, requested type "simple"
  7299                           ; Number of cases is 1, Range of values is 232 to 232
  7300                           ; switch strategies available:
  7301                           ; Name         Instructions Cycles
  7302                           ; simple_byte            4     3 (average)
  7303                           ;	Chosen strategy is simple_byte
  7304  0079F8  503D               	movf	??_Close_Lock,w,c
  7305  0079FA  0AE8               	xorlw	232	; case 232
  7306  0079FC  B4D8               	btfsc	status,2,c
  7307  0079FE  D6D6               	goto	l3645
  7308  007A00  D6C9               	goto	l3643
  7309  007A02                     l4213:
  7310                           
  7311                           ; Switch size 1, requested type "simple"
  7312                           ; Number of cases is 1, Range of values is 208 to 208
  7313                           ; switch strategies available:
  7314                           ; Name         Instructions Cycles
  7315                           ; simple_byte            4     3 (average)
  7316                           ;	Chosen strategy is simple_byte
  7317  007A02  503D               	movf	??_Close_Lock,w,c
  7318  007A04  0AD0               	xorlw	208	; case 208
  7319  007A06  B4D8               	btfsc	status,2,c
  7320  007A08  D6DD               	goto	l3647
  7321  007A0A  D6C4               	goto	l3643
  7322  007A0C                     l4215:
  7323                           
  7324                           ; Switch size 1, requested type "simple"
  7325                           ; Number of cases is 1, Range of values is 184 to 184
  7326                           ; switch strategies available:
  7327                           ; Name         Instructions Cycles
  7328                           ; simple_byte            4     3 (average)
  7329                           ;	Chosen strategy is simple_byte
  7330  007A0C  503D               	movf	??_Close_Lock,w,c
  7331  007A0E  0AB8               	xorlw	184	; case 184
  7332  007A10  B4D8               	btfsc	status,2,c
  7333  007A12  D6E4               	goto	l3649
  7334  007A14  D6BF               	goto	l3643
  7335  007A16                     l4217:
  7336                           
  7337                           ; Switch size 1, requested type "simple"
  7338                           ; Number of cases is 1, Range of values is 160 to 160
  7339                           ; switch strategies available:
  7340                           ; Name         Instructions Cycles
  7341                           ; simple_byte            4     3 (average)
  7342                           ;	Chosen strategy is simple_byte
  7343  007A16  503D               	movf	??_Close_Lock,w,c
  7344  007A18  0AA0               	xorlw	160	; case 160
  7345  007A1A  B4D8               	btfsc	status,2,c
  7346  007A1C  D6EB               	goto	l3651
  7347  007A1E  D6BA               	goto	l3643
  7348  007A20                     l4219:
  7349                           
  7350                           ; Switch size 1, requested type "simple"
  7351                           ; Number of cases is 1, Range of values is 136 to 136
  7352                           ; switch strategies available:
  7353                           ; Name         Instructions Cycles
  7354                           ; simple_byte            4     3 (average)
  7355                           ;	Chosen strategy is simple_byte
  7356  007A20  503D               	movf	??_Close_Lock,w,c
  7357  007A22  0A88               	xorlw	136	; case 136
  7358  007A24  B4D8               	btfsc	status,2,c
  7359  007A26  D6F2               	goto	l3653
  7360  007A28  D6B5               	goto	l3643
  7361  007A2A                     l4221:
  7362                           
  7363                           ; Switch size 1, requested type "simple"
  7364                           ; Number of cases is 1, Range of values is 112 to 112
  7365                           ; switch strategies available:
  7366                           ; Name         Instructions Cycles
  7367                           ; simple_byte            4     3 (average)
  7368                           ;	Chosen strategy is simple_byte
  7369  007A2A  503D               	movf	??_Close_Lock,w,c
  7370  007A2C  0A70               	xorlw	112	; case 112
  7371  007A2E  B4D8               	btfsc	status,2,c
  7372  007A30  D6F9               	goto	l3655
  7373  007A32  D6B0               	goto	l3643
  7374  007A34                     l4223:
  7375                           
  7376                           ; Switch size 1, requested type "simple"
  7377                           ; Number of cases is 1, Range of values is 88 to 88
  7378                           ; switch strategies available:
  7379                           ; Name         Instructions Cycles
  7380                           ; simple_byte            4     3 (average)
  7381                           ;	Chosen strategy is simple_byte
  7382  007A34  503D               	movf	??_Close_Lock,w,c
  7383  007A36  0A58               	xorlw	88	; case 88
  7384  007A38  B4D8               	btfsc	status,2,c
  7385  007A3A  D700               	goto	l3657
  7386  007A3C  D6AB               	goto	l3643
  7387  007A3E                     l4225:
  7388                           
  7389                           ; Switch size 1, requested type "simple"
  7390                           ; Number of cases is 1, Range of values is 64 to 64
  7391                           ; switch strategies available:
  7392                           ; Name         Instructions Cycles
  7393                           ; simple_byte            4     3 (average)
  7394                           ;	Chosen strategy is simple_byte
  7395  007A3E  503D               	movf	??_Close_Lock,w,c
  7396  007A40  0A40               	xorlw	64	; case 64
  7397  007A42  B4D8               	btfsc	status,2,c
  7398  007A44  D707               	goto	l3659
  7399  007A46  D6A6               	goto	l3643
  7400  007A48                     l4227:
  7401                           
  7402                           ; Switch size 1, requested type "simple"
  7403                           ; Number of cases is 1, Range of values is 40 to 40
  7404                           ; switch strategies available:
  7405                           ; Name         Instructions Cycles
  7406                           ; simple_byte            4     3 (average)
  7407                           ;	Chosen strategy is simple_byte
  7408  007A48  503D               	movf	??_Close_Lock,w,c
  7409  007A4A  0A28               	xorlw	40	; case 40
  7410  007A4C  B4D8               	btfsc	status,2,c
  7411  007A4E  D70E               	goto	l3661
  7412  007A50  D6A1               	goto	l3643
  7413  007A52                     l4229:
  7414                           
  7415                           ; Switch size 1, requested type "simple"
  7416                           ; Number of cases is 1, Range of values is 16 to 16
  7417                           ; switch strategies available:
  7418                           ; Name         Instructions Cycles
  7419                           ; simple_byte            4     3 (average)
  7420                           ;	Chosen strategy is simple_byte
  7421  007A52  503D               	movf	??_Close_Lock,w,c
  7422  007A54  0A10               	xorlw	16	; case 16
  7423  007A56  B4D8               	btfsc	status,2,c
  7424  007A58  D715               	goto	l3663
  7425  007A5A  D69C               	goto	l3643
  7426  007A5C                     l4231:
  7427                           
  7428                           ; Switch size 1, requested type "simple"
  7429                           ; Number of cases is 1, Range of values is 248 to 248
  7430                           ; switch strategies available:
  7431                           ; Name         Instructions Cycles
  7432                           ; simple_byte            4     3 (average)
  7433                           ;	Chosen strategy is simple_byte
  7434  007A5C  503D               	movf	??_Close_Lock,w,c
  7435  007A5E  0AF8               	xorlw	248	; case 248
  7436  007A60  B4D8               	btfsc	status,2,c
  7437  007A62  D71C               	goto	l3665
  7438  007A64  D697               	goto	l3643
  7439  007A66                     l4233:
  7440                           
  7441                           ; Switch size 1, requested type "simple"
  7442                           ; Number of cases is 1, Range of values is 224 to 224
  7443                           ; switch strategies available:
  7444                           ; Name         Instructions Cycles
  7445                           ; simple_byte            4     3 (average)
  7446                           ;	Chosen strategy is simple_byte
  7447  007A66  503D               	movf	??_Close_Lock,w,c
  7448  007A68  0AE0               	xorlw	224	; case 224
  7449  007A6A  B4D8               	btfsc	status,2,c
  7450  007A6C  D72F               	goto	l3667
  7451  007A6E  D692               	goto	l3643
  7452  007A70                     l4235:
  7453                           
  7454                           ; Switch size 1, requested type "simple"
  7455                           ; Number of cases is 1, Range of values is 200 to 200
  7456                           ; switch strategies available:
  7457                           ; Name         Instructions Cycles
  7458                           ; simple_byte            4     3 (average)
  7459                           ;	Chosen strategy is simple_byte
  7460  007A70  503D               	movf	??_Close_Lock,w,c
  7461  007A72  0AC8               	xorlw	200	; case 200
  7462  007A74  B4D8               	btfsc	status,2,c
  7463  007A76  D741               	goto	l3669
  7464  007A78  D68D               	goto	l3643
  7465  007A7A                     l4237:
  7466                           
  7467                           ; Switch size 1, requested type "simple"
  7468                           ; Number of cases is 1, Range of values is 176 to 176
  7469                           ; switch strategies available:
  7470                           ; Name         Instructions Cycles
  7471                           ; simple_byte            4     3 (average)
  7472                           ;	Chosen strategy is simple_byte
  7473  007A7A  503D               	movf	??_Close_Lock,w,c
  7474  007A7C  0AB0               	xorlw	176	; case 176
  7475  007A7E  B4D8               	btfsc	status,2,c
  7476  007A80  D753               	goto	l3671
  7477  007A82  D688               	goto	l3643
  7478  007A84                     l4239:
  7479                           
  7480                           ; Switch size 1, requested type "simple"
  7481                           ; Number of cases is 1, Range of values is 152 to 152
  7482                           ; switch strategies available:
  7483                           ; Name         Instructions Cycles
  7484                           ; simple_byte            4     3 (average)
  7485                           ;	Chosen strategy is simple_byte
  7486  007A84  503D               	movf	??_Close_Lock,w,c
  7487  007A86  0A98               	xorlw	152	; case 152
  7488  007A88  B4D8               	btfsc	status,2,c
  7489  007A8A  D766               	goto	l3673
  7490  007A8C  D683               	goto	l3643
  7491  007A8E                     l199:
  7492                           
  7493                           ;main.c: 205:             PORTCbits.RC1 = 1;
  7494  007A8E  8282               	bsf	3970,1,c	;volatile
  7495                           
  7496                           ;main.c: 206:             _delay((unsigned long)((1000)*(20000000/4000.0)));
  7497  007A90  0E1A               	movlw	26
  7498  007A92  6E3E               	movwf	(??_Close_Lock+1)& (0+255),c
  7499  007A94  0E5E               	movlw	94
  7500  007A96  6E3D               	movwf	??_Close_Lock& (0+255),c
  7501  007A98  0E6E               	movlw	110
  7502  007A9A                     u2987:
  7503  007A9A  2EE8               	decfsz	wreg,f,c
  7504  007A9C  D7FE               	bra	u2987
  7505  007A9E  2E3D               	decfsz	??_Close_Lock& (0+255),f,c
  7506  007AA0  D7FC               	bra	u2987
  7507  007AA2  2E3E               	decfsz	(??_Close_Lock+1)& (0+255),f,c
  7508  007AA4  D7FA               	bra	u2987
  7509  007AA6  D000               	nop2	
  7510                           
  7511                           ;main.c: 207:             Closing();
  7512  007AA8  EC04  F035         	call	_Closing	;wreg free
  7513  007AAC                     l3685:
  7514                           
  7515                           ;main.c: 218:     Last_Inductive_State = Inductive_State;
  7516  007AAC  C04E  F036         	movff	_Inductive_State,_Last_Inductive_State
  7517  007AB0  0012               	return		;funcret
  7518  007AB2                     __end_of_Close_Lock:
  7519                           	opt callstack 0
  7520                           
  7521 ;; *************** function _eeprom_readx *****************
  7522 ;; Defined at:
  7523 ;;		line 380 in file "main.c"
  7524 ;; Parameters:    Size  Location     Type
  7525 ;;  address         2    0[COMRAM] int 
  7526 ;; Auto vars:     Size  Location     Type
  7527 ;;		None
  7528 ;; Return value:  Size  Location     Type
  7529 ;;                  1    wreg      unsigned char 
  7530 ;; Registers used:
  7531 ;;		wreg, status,2
  7532 ;; Tracked objects:
  7533 ;;		On entry : 0/0
  7534 ;;		On exit  : 0/0
  7535 ;;		Unchanged: 0/0
  7536 ;; Data sizes:     COMRAM   BANK0   BANK1   BANK2   BANK3   BANK4   BANK5   BANK6   BANK7
  7537 ;;      Params:         2       0       0       0       0       0       0       0       0
  7538 ;;      Locals:         0       0       0       0       0       0       0       0       0
  7539 ;;      Temps:          0       0       0       0       0       0       0       0       0
  7540 ;;      Totals:         2       0       0       0       0       0       0       0       0
  7541 ;;Total ram usage:        2 bytes
  7542 ;; Hardware stack levels used:    1
  7543 ;; This function calls:
  7544 ;;		Nothing
  7545 ;; This function is called by:
  7546 ;;		_main
  7547 ;;		_Close_Lock
  7548 ;;		_Open_Lock
  7549 ;; This function uses a non-reentrant model
  7550 ;;
  7551                           
  7552                           	psect	text44
  7553  006130                     __ptext44:
  7554                           	opt callstack 0
  7555  006130                     _eeprom_readx:
  7556                           	opt callstack 30
  7557                           
  7558                           ;main.c: 381:     EEADR = address;
  7559                           
  7560                           ;incstack = 0
  7561  006130  C037  FFA9         	movff	eeprom_readx@address,4009	;volatile
  7562                           
  7563                           ;main.c: 382:     EECON1bits.EEPGD = 0;
  7564  006134  9EA6               	bcf	4006,7,c	;volsfr
  7565                           
  7566                           ;main.c: 383:     EECON1bits.CFGS = 0;
  7567  006136  9CA6               	bcf	4006,6,c	;volsfr
  7568                           
  7569                           ;main.c: 384:     EECON1bits.RD = 1;
  7570  006138  80A6               	bsf	4006,0,c	;volsfr
  7571                           
  7572                           ;main.c: 385:     return(EEDATA);
  7573  00613A  50A8               	movf	4008,w,c	;volatile
  7574  00613C  0012               	return		;funcret
  7575  00613E                     __end_of_eeprom_readx:
  7576                           	opt callstack 0
  7577                           
  7578 ;; *************** function ___wmul *****************
  7579 ;; Defined at:
  7580 ;;		line 15 in file "C:\Program Files (x86)\Microchip\xc8\v2.05\pic\sources\c99\common\Umul16.c"
  7581 ;; Parameters:    Size  Location     Type
  7582 ;;  multiplier      2    0[COMRAM] unsigned int 
  7583 ;;  multiplicand    2    2[COMRAM] unsigned int 
  7584 ;; Auto vars:     Size  Location     Type
  7585 ;;  product         2    4[COMRAM] unsigned int 
  7586 ;; Return value:  Size  Location     Type
  7587 ;;                  2    0[COMRAM] unsigned int 
  7588 ;; Registers used:
  7589 ;;		wreg, status,2, status,0, prodl, prodh
  7590 ;; Tracked objects:
  7591 ;;		On entry : 0/0
  7592 ;;		On exit  : 0/0
  7593 ;;		Unchanged: 0/0
  7594 ;; Data sizes:     COMRAM   BANK0   BANK1   BANK2   BANK3   BANK4   BANK5   BANK6   BANK7
  7595 ;;      Params:         4       0       0       0       0       0       0       0       0
  7596 ;;      Locals:         2       0       0       0       0       0       0       0       0
  7597 ;;      Temps:          0       0       0       0       0       0       0       0       0
  7598 ;;      Totals:         6       0       0       0       0       0       0       0       0
  7599 ;;Total ram usage:        6 bytes
  7600 ;; Hardware stack levels used:    1
  7601 ;; This function calls:
  7602 ;;		Nothing
  7603 ;; This function is called by:
  7604 ;;		_Close_Lock
  7605 ;;		_Open_Lock
  7606 ;; This function uses a non-reentrant model
  7607 ;;
  7608                           
  7609                           	psect	text45
  7610  006182                     __ptext45:
  7611                           	opt callstack 0
  7612  006182                     ___wmul:
  7613                           	opt callstack 29
  7614                           
  7615                           ;incstack = 0
  7616  006182  5037               	movf	___wmul@multiplier,w,c
  7617  006184  0239               	mulwf	___wmul@multiplicand,c
  7618  006186  CFF3 F03B          	movff	prodl,___wmul@product
  7619  00618A  CFF4 F03C          	movff	prodh,___wmul@product+1
  7620  00618E  5037               	movf	___wmul@multiplier,w,c
  7621  006190  023A               	mulwf	___wmul@multiplicand+1,c
  7622  006192  50F3               	movf	prodl,w,c
  7623  006194  263C               	addwf	___wmul@product+1,f,c
  7624  006196  5038               	movf	___wmul@multiplier+1,w,c
  7625  006198  0239               	mulwf	___wmul@multiplicand,c
  7626  00619A  50F3               	movf	prodl,w,c
  7627  00619C  263C               	addwf	___wmul@product+1,f,c
  7628  00619E  C03B  F037         	movff	___wmul@product,?___wmul
  7629  0061A2  C03C  F038         	movff	___wmul@product+1,?___wmul+1
  7630  0061A6  0012               	return		;funcret
  7631  0061A8                     __end_of___wmul:
  7632                           	opt callstack 0
  7633                           
  7634 ;; *************** function _Closing *****************
  7635 ;; Defined at:
  7636 ;;		line 305 in file "main.c"
  7637 ;; Parameters:    Size  Location     Type
  7638 ;;		None
  7639 ;; Auto vars:     Size  Location     Type
  7640 ;;		None
  7641 ;; Return value:  Size  Location     Type
  7642 ;;                  1    wreg      void 
  7643 ;; Registers used:
  7644 ;;		wreg, status,2, status,0, cstack
  7645 ;; Tracked objects:
  7646 ;;		On entry : 0/0
  7647 ;;		On exit  : 0/0
  7648 ;;		Unchanged: 0/0
  7649 ;; Data sizes:     COMRAM   BANK0   BANK1   BANK2   BANK3   BANK4   BANK5   BANK6   BANK7
  7650 ;;      Params:         0       0       0       0       0       0       0       0       0
  7651 ;;      Locals:         0       0       0       0       0       0       0       0       0
  7652 ;;      Temps:          2       0       0       0       0       0       0       0       0
  7653 ;;      Totals:         2       0       0       0       0       0       0       0       0
  7654 ;;Total ram usage:        2 bytes
  7655 ;; Hardware stack levels used:    1
  7656 ;; Hardware stack levels required when called:    2
  7657 ;; This function calls:
  7658 ;;		_Analog_Read
  7659 ;;		_Sense_Current
  7660 ;; This function is called by:
  7661 ;;		_Close_Lock
  7662 ;;		_Open_Lock
  7663 ;; This function uses a non-reentrant model
  7664 ;;
  7665                           
  7666                           	psect	text46
  7667  006A08                     __ptext46:
  7668                           	opt callstack 0
  7669  006A08                     _Closing:
  7670                           	opt callstack 27
  7671                           
  7672                           ;main.c: 306:     Count_Time_Close = 0;
  7673                           
  7674                           ;incstack = 0
  7675  006A08  0E00               	movlw	0
  7676  006A0A  6E1D               	movwf	_Count_Time_Close,c
  7677  006A0C  0E00               	movlw	0
  7678  006A0E  6E1E               	movwf	_Count_Time_Close+1,c
  7679  006A10  0E00               	movlw	0
  7680  006A12  6E1F               	movwf	_Count_Time_Close+2,c
  7681  006A14  0E00               	movlw	0
  7682  006A16  6E20               	movwf	_Count_Time_Close+3,c
  7683                           
  7684                           ;main.c: 307:     _delay((unsigned long)((1000)*(20000000/4000.0)));
  7685  006A18  0E1A               	movlw	26
  7686  006A1A  6E3A               	movwf	(??_Closing+1)& (0+255),c
  7687  006A1C  0E5E               	movlw	94
  7688  006A1E  6E39               	movwf	??_Closing& (0+255),c
  7689  006A20  0E6E               	movlw	110
  7690  006A22                     u2997:
  7691  006A22  2EE8               	decfsz	wreg,f,c
  7692  006A24  D7FE               	bra	u2997
  7693  006A26  2E39               	decfsz	??_Closing& (0+255),f,c
  7694  006A28  D7FC               	bra	u2997
  7695  006A2A  2E3A               	decfsz	(??_Closing+1)& (0+255),f,c
  7696  006A2C  D7FA               	bra	u2997
  7697  006A2E  D000               	nop2	
  7698  006A30                     l3453:
  7699                           
  7700                           ;main.c: 309:         PORTCbits.RC1 = 1;
  7701  006A30  8282               	bsf	3970,1,c	;volatile
  7702                           
  7703                           ;main.c: 310:         End_Stop_Close_State = PORTAbits.RA5;
  7704  006A32  AA80               	btfss	3968,5,c	;volatile
  7705  006A34  D002               	goto	u1260
  7706  006A36  0E01               	movlw	1
  7707  006A38  D001               	goto	u1266
  7708  006A3A                     u1260:
  7709  006A3A  0E00               	movlw	0
  7710  006A3C                     u1266:
  7711  006A3C  6E4D               	movwf	_End_Stop_Close_State,c
  7712                           
  7713                           ;main.c: 311:         Count_Time_Close++;
  7714  006A3E  0E01               	movlw	1
  7715  006A40  261D               	addwf	_Count_Time_Close,f,c
  7716  006A42  0E00               	movlw	0
  7717  006A44  221E               	addwfc	_Count_Time_Close+1,f,c
  7718  006A46  221F               	addwfc	_Count_Time_Close+2,f,c
  7719  006A48  2220               	addwfc	_Count_Time_Close+3,f,c
  7720                           
  7721                           ;main.c: 312:         Current = Analog_Read();
  7722  006A4A  ECD4  F030         	call	_Analog_Read	;wreg free
  7723  006A4E  C037  F029         	movff	?_Analog_Read,_Current
  7724  006A52  C038  F02A         	movff	?_Analog_Read+1,_Current+1
  7725                           
  7726                           ;main.c: 313:         Sense_Current();
  7727  006A56  ECE8  F030         	call	_Sense_Current	;wreg free
  7728                           
  7729                           ;main.c: 314:         if(Count_Time_Close == 250000) {
  7730  006A5A  0E90               	movlw	144
  7731  006A5C  181D               	xorwf	_Count_Time_Close,w,c
  7732  006A5E  E111               	bnz	l3469
  7733  006A60  0ED0               	movlw	208
  7734  006A62  181E               	xorwf	_Count_Time_Close+1,w,c
  7735  006A64  E10E               	bnz	l3469
  7736  006A66  0E03               	movlw	3
  7737  006A68  181F               	xorwf	_Count_Time_Close+2,w,c
  7738  006A6A  1020               	iorwf	_Count_Time_Close+3,w,c
  7739  006A6C  A4D8               	btfss	status,2,c
  7740  006A6E  D009               	goto	l3469
  7741                           
  7742                           ;main.c: 315:             Count_Time_Close = 0;
  7743  006A70  0E00               	movlw	0
  7744  006A72  6E1D               	movwf	_Count_Time_Close,c
  7745  006A74  0E00               	movlw	0
  7746  006A76  6E1E               	movwf	_Count_Time_Close+1,c
  7747  006A78  0E00               	movlw	0
  7748  006A7A  6E1F               	movwf	_Count_Time_Close+2,c
  7749  006A7C  0E00               	movlw	0
  7750  006A7E  6E20               	movwf	_Count_Time_Close+3,c
  7751                           
  7752                           ;main.c: 316:             break;
  7753  006A80  D01A               	goto	u1300
  7754  006A82                     l3469:
  7755  006A82  BE2A               	btfsc	_Current+1,7,c
  7756  006A84  D015               	goto	l3477
  7757  006A86  0E21               	movlw	33
  7758  006A88  5C29               	subwf	_Current,w,c
  7759  006A8A  0E02               	movlw	2
  7760  006A8C  582A               	subwfb	_Current+1,w,c
  7761  006A8E  A0D8               	btfss	status,0,c
  7762  006A90  D00F               	goto	l3477
  7763                           
  7764                           ;main.c: 318:             Count_Peake_Current++;
  7765  006A92  4A2B               	infsnz	_Count_Peake_Current,f,c
  7766  006A94  2A2C               	incf	_Count_Peake_Current+1,f,c
  7767                           
  7768                           ;main.c: 319:             if (Count_Peake_Current > 2000) {
  7769  006A96  BE2C               	btfsc	_Count_Peake_Current+1,7,c
  7770  006A98  D00B               	goto	l3477
  7771  006A9A  0ED1               	movlw	209
  7772  006A9C  5C2B               	subwf	_Count_Peake_Current,w,c
  7773  006A9E  0E07               	movlw	7
  7774  006AA0  582C               	subwfb	_Count_Peake_Current+1,w,c
  7775  006AA2  A0D8               	btfss	status,0,c
  7776  006AA4  D005               	goto	l3477
  7777                           
  7778                           ;main.c: 320:                 Count_Peake_Current = 0;
  7779  006AA6  0E00               	movlw	0
  7780  006AA8  6E2C               	movwf	_Count_Peake_Current+1,c
  7781  006AAA  0E00               	movlw	0
  7782  006AAC  6E2B               	movwf	_Count_Peake_Current,c
  7783                           
  7784                           ;main.c: 321:                 break;
  7785  006AAE  D003               	goto	u1300
  7786  006AB0                     l3477:
  7787                           
  7788                           ;main.c: 324:     } while(End_Stop_Close_State == 1);
  7789  006AB0  044D               	decf	_End_Stop_Close_State,w,c
  7790  006AB2  B4D8               	btfsc	status,2,c
  7791  006AB4  D7BD               	goto	l3453
  7792  006AB6                     u1300:
  7793                           
  7794                           ;main.c: 325:     PORTCbits.RC1 = 0;
  7795  006AB6  9282               	bcf	3970,1,c	;volatile
  7796                           
  7797                           ;main.c: 326:     Count_Time_Close = 0;
  7798  006AB8  0E00               	movlw	0
  7799  006ABA  6E1D               	movwf	_Count_Time_Close,c
  7800  006ABC  0E00               	movlw	0
  7801  006ABE  6E1E               	movwf	_Count_Time_Close+1,c
  7802  006AC0  0E00               	movlw	0
  7803  006AC2  6E1F               	movwf	_Count_Time_Close+2,c
  7804  006AC4  0E00               	movlw	0
  7805  006AC6  6E20               	movwf	_Count_Time_Close+3,c
  7806                           
  7807                           ;main.c: 327:     Count_Peake_Current = 0;
  7808  006AC8  0E00               	movlw	0
  7809  006ACA  6E2C               	movwf	_Count_Peake_Current+1,c
  7810  006ACC  0E00               	movlw	0
  7811  006ACE  6E2B               	movwf	_Count_Peake_Current,c
  7812                           
  7813                           ;main.c: 328:     Toggle_Up = 0;
  7814  006AD0  0E00               	movlw	0
  7815  006AD2  6E31               	movwf	_Toggle_Up,c
  7816                           
  7817                           ;main.c: 329:     Toggle_Down = 0;
  7818  006AD4  0E00               	movlw	0
  7819  006AD6  6E30               	movwf	_Toggle_Down,c
  7820  006AD8  0012               	return		;funcret
  7821  006ADA                     __end_of_Closing:
  7822                           	opt callstack 0
  7823                           
  7824 ;; *************** function _Sense_Current *****************
  7825 ;; Defined at:
  7826 ;;		line 349 in file "main.c"
  7827 ;; Parameters:    Size  Location     Type
  7828 ;;		None
  7829 ;; Auto vars:     Size  Location     Type
  7830 ;;		None
  7831 ;; Return value:  Size  Location     Type
  7832 ;;                  1    wreg      void 
  7833 ;; Registers used:
  7834 ;;		wreg, status,2, status,0, cstack
  7835 ;; Tracked objects:
  7836 ;;		On entry : 0/0
  7837 ;;		On exit  : 0/0
  7838 ;;		Unchanged: 0/0
  7839 ;; Data sizes:     COMRAM   BANK0   BANK1   BANK2   BANK3   BANK4   BANK5   BANK6   BANK7
  7840 ;;      Params:         0       0       0       0       0       0       0       0       0
  7841 ;;      Locals:         0       0       0       0       0       0       0       0       0
  7842 ;;      Temps:          0       0       0       0       0       0       0       0       0
  7843 ;;      Totals:         0       0       0       0       0       0       0       0       0
  7844 ;;Total ram usage:        0 bytes
  7845 ;; Hardware stack levels used:    1
  7846 ;; Hardware stack levels required when called:    1
  7847 ;; This function calls:
  7848 ;;		_Analog_Read
  7849 ;;		_Clear
  7850 ;;		_Draw_CL
  7851 ;; This function is called by:
  7852 ;;		_Open_Lock
  7853 ;;		_Closing
  7854 ;; This function uses a non-reentrant model
  7855 ;;
  7856                           
  7857                           	psect	text47
  7858  0061D0                     __ptext47:
  7859                           	opt callstack 0
  7860  0061D0                     _Sense_Current:
  7861                           	opt callstack 28
  7862                           
  7863                           ;main.c: 350:     Current = Analog_Read();
  7864                           
  7865                           ;incstack = 0
  7866  0061D0  ECD4  F030         	call	_Analog_Read	;wreg free
  7867  0061D4  C037  F029         	movff	?_Analog_Read,_Current
  7868  0061D8  C038  F02A         	movff	?_Analog_Read+1,_Current+1
  7869                           
  7870                           ;main.c: 351:         if (Current > 544) {
  7871  0061DC  BE2A               	btfsc	_Current+1,7,c
  7872  0061DE  D009               	goto	l2971
  7873  0061E0  0E21               	movlw	33
  7874  0061E2  5C29               	subwf	_Current,w,c
  7875  0061E4  0E02               	movlw	2
  7876  0061E6  582A               	subwfb	_Current+1,w,c
  7877  0061E8  A0D8               	btfss	status,0,c
  7878  0061EA  D003               	goto	l2971
  7879                           
  7880                           ;main.c: 352:             Draw_CL();
  7881  0061EC  EC9F  F030         	call	_Draw_CL	;wreg free
  7882                           
  7883                           ;main.c: 353:         } else {
  7884  0061F0  0012               	return	
  7885  0061F2                     l2971:
  7886                           
  7887                           ;main.c: 354:             Clear();
  7888  0061F2  EC93  F030         	call	_Clear	;wreg free
  7889  0061F6  0012               	return		;funcret
  7890  0061F8                     __end_of_Sense_Current:
  7891                           	opt callstack 0
  7892                           
  7893 ;; *************** function _Draw_CL *****************
  7894 ;; Defined at:
  7895 ;;		line 701 in file "main.c"
  7896 ;; Parameters:    Size  Location     Type
  7897 ;;		None
  7898 ;; Auto vars:     Size  Location     Type
  7899 ;;		None
  7900 ;; Return value:  Size  Location     Type
  7901 ;;                  1    wreg      void 
  7902 ;; Registers used:
  7903 ;;		wreg, status,2
  7904 ;; Tracked objects:
  7905 ;;		On entry : 0/0
  7906 ;;		On exit  : 0/0
  7907 ;;		Unchanged: 0/0
  7908 ;; Data sizes:     COMRAM   BANK0   BANK1   BANK2   BANK3   BANK4   BANK5   BANK6   BANK7
  7909 ;;      Params:         0       0       0       0       0       0       0       0       0
  7910 ;;      Locals:         0       0       0       0       0       0       0       0       0
  7911 ;;      Temps:          0       0       0       0       0       0       0       0       0
  7912 ;;      Totals:         0       0       0       0       0       0       0       0       0
  7913 ;;Total ram usage:        0 bytes
  7914 ;; Hardware stack levels used:    1
  7915 ;; This function calls:
  7916 ;;		Nothing
  7917 ;; This function is called by:
  7918 ;;		_Sense_Current
  7919 ;; This function uses a non-reentrant model
  7920 ;;
  7921                           
  7922                           	psect	text48
  7923  00613E                     __ptext48:
  7924                           	opt callstack 0
  7925  00613E                     _Draw_CL:
  7926                           	opt callstack 28
  7927                           
  7928                           ;main.c: 702:     PORTB = 0xAA;
  7929                           
  7930                           ;incstack = 0
  7931  00613E  0EAA               	movlw	170
  7932  006140  6E81               	movwf	3969,c	;volatile
  7933                           
  7934                           ;main.c: 703:     PORTCbits.RC7 = 1;
  7935  006142  8E82               	bsf	3970,7,c	;volatile
  7936                           
  7937                           ;main.c: 704:     _delay((unsigned long)((5)*(20000000/4000000.0)));
  7938  006144  0E08               	movlw	8
  7939  006146                     u3007:
  7940  006146  2EE8               	decfsz	wreg,f,c
  7941  006148  D7FE               	bra	u3007
  7942  00614A  F000               	nop	
  7943                           
  7944                           ;main.c: 705:     PORTCbits.RC7 = 0;
  7945  00614C  9E82               	bcf	3970,7,c	;volatile
  7946                           
  7947                           ;main.c: 706:     PORTB = 0xAB;
  7948  00614E  0EAB               	movlw	171
  7949  006150  6E81               	movwf	3969,c	;volatile
  7950                           
  7951                           ;main.c: 707:     PORTCbits.RC6 = 1;
  7952  006152  8C82               	bsf	3970,6,c	;volatile
  7953                           
  7954                           ;main.c: 708:     _delay((unsigned long)((5)*(20000000/4000000.0)));
  7955  006154  0E08               	movlw	8
  7956  006156                     u3017:
  7957  006156  2EE8               	decfsz	wreg,f,c
  7958  006158  D7FE               	bra	u3017
  7959  00615A  F000               	nop	
  7960                           
  7961                           ;main.c: 709:     PORTCbits.RC6 = 0;
  7962  00615C  9C82               	bcf	3970,6,c	;volatile
  7963  00615E  0012               	return		;funcret
  7964  006160                     __end_of_Draw_CL:
  7965                           	opt callstack 0
  7966                           
  7967 ;; *************** function _Clear *****************
  7968 ;; Defined at:
  7969 ;;		line 695 in file "main.c"
  7970 ;; Parameters:    Size  Location     Type
  7971 ;;		None
  7972 ;; Auto vars:     Size  Location     Type
  7973 ;;		None
  7974 ;; Return value:  Size  Location     Type
  7975 ;;                  1    wreg      void 
  7976 ;; Registers used:
  7977 ;;		wreg, status,2
  7978 ;; Tracked objects:
  7979 ;;		On entry : 0/0
  7980 ;;		On exit  : 0/0
  7981 ;;		Unchanged: 0/0
  7982 ;; Data sizes:     COMRAM   BANK0   BANK1   BANK2   BANK3   BANK4   BANK5   BANK6   BANK7
  7983 ;;      Params:         0       0       0       0       0       0       0       0       0
  7984 ;;      Locals:         0       0       0       0       0       0       0       0       0
  7985 ;;      Temps:          0       0       0       0       0       0       0       0       0
  7986 ;;      Totals:         0       0       0       0       0       0       0       0       0
  7987 ;;Total ram usage:        0 bytes
  7988 ;; Hardware stack levels used:    1
  7989 ;; This function calls:
  7990 ;;		Nothing
  7991 ;; This function is called by:
  7992 ;;		_Sense_Current
  7993 ;;		_Recording
  7994 ;; This function uses a non-reentrant model
  7995 ;;
  7996                           
  7997                           	psect	text49
  7998  006126                     __ptext49:
  7999                           	opt callstack 0
  8000  006126                     _Clear:
  8001                           	opt callstack 28
  8002                           
  8003                           ;main.c: 696:     PORTCbits.RC7 = 0;
  8004                           
  8005                           ;incstack = 0
  8006  006126  9E82               	bcf	3970,7,c	;volatile
  8007                           
  8008                           ;main.c: 697:     PORTCbits.RC6 = 0;
  8009  006128  9C82               	bcf	3970,6,c	;volatile
  8010                           
  8011                           ;main.c: 698:     PORTB = 0x11;
  8012  00612A  0E11               	movlw	17
  8013  00612C  6E81               	movwf	3969,c	;volatile
  8014  00612E  0012               	return		;funcret
  8015  006130                     __end_of_Clear:
  8016                           	opt callstack 0
  8017                           
  8018 ;; *************** function _Analog_Read *****************
  8019 ;; Defined at:
  8020 ;;		line 332 in file "main.c"
  8021 ;; Parameters:    Size  Location     Type
  8022 ;;		None
  8023 ;; Auto vars:     Size  Location     Type
  8024 ;;		None
  8025 ;; Return value:  Size  Location     Type
  8026 ;;                  2    0[COMRAM] int 
  8027 ;; Registers used:
  8028 ;;		wreg, status,2, status,0
  8029 ;; Tracked objects:
  8030 ;;		On entry : 0/0
  8031 ;;		On exit  : 0/0
  8032 ;;		Unchanged: 0/0
  8033 ;; Data sizes:     COMRAM   BANK0   BANK1   BANK2   BANK3   BANK4   BANK5   BANK6   BANK7
  8034 ;;      Params:         2       0       0       0       0       0       0       0       0
  8035 ;;      Locals:         0       0       0       0       0       0       0       0       0
  8036 ;;      Temps:          0       0       0       0       0       0       0       0       0
  8037 ;;      Totals:         2       0       0       0       0       0       0       0       0
  8038 ;;Total ram usage:        2 bytes
  8039 ;; Hardware stack levels used:    1
  8040 ;; This function calls:
  8041 ;;		Nothing
  8042 ;; This function is called by:
  8043 ;;		_Closing
  8044 ;;		_Sense_Current
  8045 ;; This function uses a non-reentrant model
  8046 ;;
  8047                           
  8048                           	psect	text50
  8049  0061A8                     __ptext50:
  8050                           	opt callstack 0
  8051  0061A8                     _Analog_Read:
  8052                           	opt callstack 28
  8053                           
  8054                           ;main.c: 333:     ADCON0bits.GO_nDONE = 1;
  8055                           
  8056                           ;incstack = 0
  8057  0061A8  82C2               	bsf	4034,1,c	;volatile
  8058  0061AA                     l264:
  8059                           
  8060                           ;main.c: 334:         while(ADCON0bits.GO_nDONE)
  8061  0061AA  B2C2               	btfsc	4034,1,c	;volatile
  8062  0061AC  D7FE               	goto	l264
  8063                           
  8064                           ;main.c: 336:             ADC = ADRESH;
  8065  0061AE  CFC4 F023          	movff	4036,_ADC	;volatile
  8066  0061B2  6A24               	clrf	_ADC+1,c
  8067                           
  8068                           ;main.c: 337:             ADC = ADC << 8;
  8069  0061B4  5023               	movf	_ADC,w,c
  8070  0061B6  6E24               	movwf	_ADC+1,c
  8071  0061B8  6A23               	clrf	_ADC,c
  8072                           
  8073                           ;main.c: 338:             ADC = ADC + ADRESL;
  8074  0061BA  50C3               	movf	4035,w,c	;volatile
  8075  0061BC  2423               	addwf	_ADC,w,c
  8076  0061BE  6E23               	movwf	_ADC,c
  8077  0061C0  0E00               	movlw	0
  8078  0061C2  2024               	addwfc	_ADC+1,w,c
  8079  0061C4  6E24               	movwf	_ADC+1,c
  8080                           
  8081                           ;main.c: 340:     return ADC;
  8082  0061C6  C023  F037         	movff	_ADC,?_Analog_Read
  8083  0061CA  C024  F038         	movff	_ADC+1,?_Analog_Read+1
  8084  0061CE  0012               	return		;funcret
  8085  0061D0                     __end_of_Analog_Read:
  8086                           	opt callstack 0
  8087  0000                     
  8088                           	psect	rparam
  8089  0000                     tosu	equ	0xFFF
  8090                           tosh	equ	0xFFE
  8091                           tosl	equ	0xFFD
  8092                           stkptr	equ	0xFFC
  8093                           pclatu	equ	0xFFB
  8094                           pclath	equ	0xFFA
  8095                           pcl	equ	0xFF9
  8096                           tblptru	equ	0xFF8
  8097                           tblptrh	equ	0xFF7
  8098                           tblptrl	equ	0xFF6
  8099                           tablat	equ	0xFF5
  8100                           prodh	equ	0xFF4
  8101                           prodl	equ	0xFF3
  8102                           indf0	equ	0xFEF
  8103                           postinc0	equ	0xFEE
  8104                           postdec0	equ	0xFED
  8105                           preinc0	equ	0xFEC
  8106                           plusw0	equ	0xFEB
  8107                           fsr0h	equ	0xFEA
  8108                           fsr0l	equ	0xFE9
  8109                           wreg	equ	0xFE8
  8110                           indf1	equ	0xFE7
  8111                           postinc1	equ	0xFE6
  8112                           postdec1	equ	0xFE5
  8113                           preinc1	equ	0xFE4
  8114                           plusw1	equ	0xFE3
  8115                           fsr1h	equ	0xFE2
  8116                           fsr1l	equ	0xFE1
  8117                           bsr	equ	0xFE0
  8118                           indf2	equ	0xFDF
  8119                           postinc2	equ	0xFDE
  8120                           postdec2	equ	0xFDD
  8121                           preinc2	equ	0xFDC
  8122                           plusw2	equ	0xFDB
  8123                           fsr2h	equ	0xFDA
  8124                           fsr2l	equ	0xFD9
  8125                           status	equ	0xFD8


Data Sizes:
    Strings     0
    Constant    0
    Data        7
    BSS         54
    Persistent  7
    Stack       0

Auto Spaces:
    Space          Size  Autos    Used
    COMRAM           95     17      85
    BANK0           160      0       0
    BANK1           256      0       0
    BANK2           256      0       0
    BANK3           256      0       0
    BANK4           256      0       0
    BANK5           256      0       0
    BANK6           256      0       0
    BANK7           256      0       0

Pointer List with Targets:

    None.

Critical Paths under _main in COMRAM

    _main->_Open_Lock
    _Open_Lock->___lmul
    _Menu_In->_Menu
    _Menu->_Menu_P1
    _Menu->_Menu_P2
    _Menu->_Menu_P3
    _Menu->_Menu_P4
    _Menu_P4->_Recording
    _Menu_P4->_eeprom_writex
    _Menu_P3->_Recording
    _Menu_P3->_eeprom_writex
    _Menu_P2->_Recording
    _Menu_P2->_eeprom_writex
    _Menu_P1->_Recording
    _Menu_P1->_eeprom_writex
    _Recording->_Draw_Save_Dot_One
    _Recording->_Draw_Save_Dot_Two
    _Close_Lock->___wmul
    _Closing->_Analog_Read
    _Sense_Current->_Analog_Read

Critical Paths under _main in BANK0

    None.

Critical Paths under _main in BANK1

    None.

Critical Paths under _main in BANK2

    None.

Critical Paths under _main in BANK3

    None.

Critical Paths under _main in BANK4

    None.

Critical Paths under _main in BANK5

    None.

Critical Paths under _main in BANK6

    None.

Critical Paths under _main in BANK7

    None.

Call Graph Tables:

 ---------------------------------------------------------------------------------
 (Depth) Function   	        Calls       Base Space   Used Autos Params    Refs
 ---------------------------------------------------------------------------------
 (0) _main                                                 1     1      0   32949
                                             16 COMRAM     1     1      0
                         _Close_Lock
                          _Indicator
                            _Menu_In
                          _Open_Lock
                       _eeprom_readx
 ---------------------------------------------------------------------------------
 (1) _Open_Lock                                            4     4      0    1410
                                             12 COMRAM     4     4      0
                            _Closing
                      _Sense_Current
                             ___lmul
                             ___wmul
                       _eeprom_readx
 ---------------------------------------------------------------------------------
 (2) ___lmul                                              12     4      8     370
                                              0 COMRAM    12     4      8
 ---------------------------------------------------------------------------------
 (1) _Menu_In                                              2     2      0   29968
                                              7 COMRAM     2     2      0
                               _Menu
 ---------------------------------------------------------------------------------
 (2) _Menu                                                 2     2      0   29968
                                              5 COMRAM     2     2      0
                            _Draw_P1
                            _Draw_P2
                            _Draw_P3
                            _Draw_P4
                     _Exit_Time_Menu
                            _Menu_P1
                            _Menu_P2
                            _Menu_P3
                            _Menu_P4
 ---------------------------------------------------------------------------------
 (3) _Menu_P4                                              2     2      0    7492
                                              3 COMRAM     2     2      0
                             _Draw_0
                             _Draw_1
                            _Draw_10
                            _Draw_11
                            _Draw_12
                            _Draw_13
                            _Draw_14
                            _Draw_15
                             _Draw_2
                             _Draw_3
                             _Draw_4
                             _Draw_5
                             _Draw_6
                             _Draw_7
                             _Draw_8
                             _Draw_9
                     _Exit_Time_Menu
                          _Recording
                      _eeprom_writex
 ---------------------------------------------------------------------------------
 (3) _Menu_P3                                              2     2      0    7492
                                              3 COMRAM     2     2      0
                            _Draw_10
                            _Draw_12
                            _Draw_14
                            _Draw_16
                            _Draw_18
                             _Draw_2
                            _Draw_20
                            _Draw_22
                            _Draw_24
                            _Draw_26
                            _Draw_28
                            _Draw_30
                             _Draw_4
                             _Draw_6
                             _Draw_8
                     _Exit_Time_Menu
                          _Recording
                      _eeprom_writex
 ---------------------------------------------------------------------------------
 (4) _Draw_30                                              1     1      0       0
                                              0 COMRAM     1     1      0
 ---------------------------------------------------------------------------------
 (4) _Draw_28                                              1     1      0       0
                                              0 COMRAM     1     1      0
 ---------------------------------------------------------------------------------
 (4) _Draw_26                                              1     1      0       0
                                              0 COMRAM     1     1      0
 ---------------------------------------------------------------------------------
 (4) _Draw_24                                              1     1      0       0
                                              0 COMRAM     1     1      0
 ---------------------------------------------------------------------------------
 (4) _Draw_22                                              1     1      0       0
                                              0 COMRAM     1     1      0
 ---------------------------------------------------------------------------------
 (4) _Draw_20                                              1     1      0       0
                                              0 COMRAM     1     1      0
 ---------------------------------------------------------------------------------
 (4) _Draw_18                                              1     1      0       0
                                              0 COMRAM     1     1      0
 ---------------------------------------------------------------------------------
 (4) _Draw_16                                              1     1      0       0
                                              0 COMRAM     1     1      0
 ---------------------------------------------------------------------------------
 (3) _Menu_P2                                              2     2      0    7492
                                              3 COMRAM     2     2      0
                             _Draw_0
                             _Draw_1
                            _Draw_10
                            _Draw_11
                            _Draw_12
                            _Draw_13
                            _Draw_14
                            _Draw_15
                             _Draw_2
                             _Draw_3
                             _Draw_4
                             _Draw_5
                             _Draw_6
                             _Draw_7
                             _Draw_8
                             _Draw_9
                     _Exit_Time_Menu
                          _Recording
                      _eeprom_writex
 ---------------------------------------------------------------------------------
 (4) _Draw_9                                               1     1      0       0
                                              0 COMRAM     1     1      0
 ---------------------------------------------------------------------------------
 (4) _Draw_8                                               1     1      0       0
                                              0 COMRAM     1     1      0
 ---------------------------------------------------------------------------------
 (4) _Draw_7                                               1     1      0       0
                                              0 COMRAM     1     1      0
 ---------------------------------------------------------------------------------
 (4) _Draw_6                                               1     1      0       0
                                              0 COMRAM     1     1      0
 ---------------------------------------------------------------------------------
 (4) _Draw_5                                               1     1      0       0
                                              0 COMRAM     1     1      0
 ---------------------------------------------------------------------------------
 (4) _Draw_4                                               1     1      0       0
                                              0 COMRAM     1     1      0
 ---------------------------------------------------------------------------------
 (4) _Draw_3                                               1     1      0       0
                                              0 COMRAM     1     1      0
 ---------------------------------------------------------------------------------
 (4) _Draw_2                                               1     1      0       0
                                              0 COMRAM     1     1      0
 ---------------------------------------------------------------------------------
 (4) _Draw_15                                              1     1      0       0
                                              0 COMRAM     1     1      0
 ---------------------------------------------------------------------------------
 (4) _Draw_14                                              1     1      0       0
                                              0 COMRAM     1     1      0
 ---------------------------------------------------------------------------------
 (4) _Draw_13                                              1     1      0       0
                                              0 COMRAM     1     1      0
 ---------------------------------------------------------------------------------
 (4) _Draw_12                                              1     1      0       0
                                              0 COMRAM     1     1      0
 ---------------------------------------------------------------------------------
 (4) _Draw_11                                              1     1      0       0
                                              0 COMRAM     1     1      0
 ---------------------------------------------------------------------------------
 (4) _Draw_10                                              1     1      0       0
                                              0 COMRAM     1     1      0
 ---------------------------------------------------------------------------------
 (3) _Menu_P1                                              2     2      0    7492
                                              3 COMRAM     2     2      0
                             _Draw_0
                             _Draw_1
                     _Exit_Time_Menu
                          _Recording
                      _eeprom_writex
 ---------------------------------------------------------------------------------
 (4) _eeprom_writex                                        3     0      3    7492
                                              0 COMRAM     3     0      3
 ---------------------------------------------------------------------------------
 (4) _Recording                                            2     2      0       0
                                              1 COMRAM     2     2      0
                              _Clear
                  _Draw_Save_Dot_One
                  _Draw_Save_Dot_Two
 ---------------------------------------------------------------------------------
 (5) _Draw_Save_Dot_Two                                    1     1      0       0
                                              0 COMRAM     1     1      0
 ---------------------------------------------------------------------------------
 (5) _Draw_Save_Dot_One                                    1     1      0       0
                                              0 COMRAM     1     1      0
 ---------------------------------------------------------------------------------
 (4) _Exit_Time_Menu                                       0     0      0       0
 ---------------------------------------------------------------------------------
 (4) _Draw_1                                               1     1      0       0
                                              0 COMRAM     1     1      0
 ---------------------------------------------------------------------------------
 (4) _Draw_0                                               1     1      0       0
                                              0 COMRAM     1     1      0
 ---------------------------------------------------------------------------------
 (3) _Draw_P4                                              1     1      0       0
                                              0 COMRAM     1     1      0
 ---------------------------------------------------------------------------------
 (3) _Draw_P3                                              1     1      0       0
                                              0 COMRAM     1     1      0
 ---------------------------------------------------------------------------------
 (3) _Draw_P2                                              1     1      0       0
                                              0 COMRAM     1     1      0
 ---------------------------------------------------------------------------------
 (3) _Draw_P1                                              1     1      0       0
                                              0 COMRAM     1     1      0
 ---------------------------------------------------------------------------------
 (1) _Indicator                                            0     0      0       0
 ---------------------------------------------------------------------------------
 (1) _Close_Lock                                           2     2      0    1017
                                              6 COMRAM     2     2      0
                            _Closing
                             ___wmul
                       _eeprom_readx
 ---------------------------------------------------------------------------------
 (1) _eeprom_readx                                         2     0      2     554
                                              0 COMRAM     2     0      2
 ---------------------------------------------------------------------------------
 (2) ___wmul                                               6     2      4     463
                                              0 COMRAM     6     2      4
 ---------------------------------------------------------------------------------
 (2) _Closing                                              2     2      0       0
                                              2 COMRAM     2     2      0
                        _Analog_Read
                      _Sense_Current
 ---------------------------------------------------------------------------------
 (2) _Sense_Current                                        0     0      0       0
                        _Analog_Read
                              _Clear
                            _Draw_CL
 ---------------------------------------------------------------------------------
 (3) _Draw_CL                                              0     0      0       0
 ---------------------------------------------------------------------------------
 (3) _Clear                                                0     0      0       0
 ---------------------------------------------------------------------------------
 (3) _Analog_Read                                          2     0      2       0
                                              0 COMRAM     2     0      2
 ---------------------------------------------------------------------------------
 Estimated maximum stack depth 5
 ---------------------------------------------------------------------------------

 Call Graph Graphs:

 _main (ROOT)
   _Close_Lock
     _Closing
       _Analog_Read
       _Sense_Current
         _Analog_Read
         _Clear
         _Draw_CL
     ___wmul
     _eeprom_readx
   _Indicator
   _Menu_In
     _Menu
       _Draw_P1
       _Draw_P2
       _Draw_P3
       _Draw_P4
       _Exit_Time_Menu
       _Menu_P1
         _Draw_0
         _Draw_1
         _Exit_Time_Menu
         _Recording
           _Clear
           _Draw_Save_Dot_One
           _Draw_Save_Dot_Two
         _eeprom_writex
       _Menu_P2
         _Draw_0
         _Draw_1
         _Draw_10
         _Draw_11
         _Draw_12
         _Draw_13
         _Draw_14
         _Draw_15
         _Draw_2
         _Draw_3
         _Draw_4
         _Draw_5
         _Draw_6
         _Draw_7
         _Draw_8
         _Draw_9
         _Exit_Time_Menu
         _Recording
           _Clear
           _Draw_Save_Dot_One
           _Draw_Save_Dot_Two
         _eeprom_writex
       _Menu_P3
         _Draw_10
         _Draw_12
         _Draw_14
         _Draw_16
         _Draw_18
         _Draw_2
         _Draw_20
         _Draw_22
         _Draw_24
         _Draw_26
         _Draw_28
         _Draw_30
         _Draw_4
         _Draw_6
         _Draw_8
         _Exit_Time_Menu
         _Recording
           _Clear
           _Draw_Save_Dot_One
           _Draw_Save_Dot_Two
         _eeprom_writex
       _Menu_P4
         _Draw_0
         _Draw_1
         _Draw_10
         _Draw_11
         _Draw_12
         _Draw_13
         _Draw_14
         _Draw_15
         _Draw_2
         _Draw_3
         _Draw_4
         _Draw_5
         _Draw_6
         _Draw_7
         _Draw_8
         _Draw_9
         _Exit_Time_Menu
         _Recording
           _Clear
           _Draw_Save_Dot_One
           _Draw_Save_Dot_Two
         _eeprom_writex
   _Open_Lock
     _Closing
       _Analog_Read
       _Sense_Current
         _Analog_Read
         _Clear
         _Draw_CL
     _Sense_Current
       _Analog_Read
       _Clear
       _Draw_CL
     ___lmul
     ___wmul
     _eeprom_readx
   _eeprom_readx

 Address spaces:
Name               Size   Autos  Total    Cost      Usage
BIGRAM             7FF      0       0      21        0.0%
EEDATA             100      0       0       0        0.0%
BITBANK7           100      0       0      18        0.0%
BANK7              100      0       0      19        0.0%
BITBANK6           100      0       0      16        0.0%
BANK6              100      0       0      17        0.0%
BITBANK5           100      0       0      14        0.0%
BANK5              100      0       0      15        0.0%
BITBANK4           100      0       0      12        0.0%
BANK4              100      0       0      13        0.0%
BITBANK3           100      0       0      10        0.0%
BANK3              100      0       0      11        0.0%
BITBANK2           100      0       0       8        0.0%
BANK2              100      0       0       9        0.0%
BITBANK1           100      0       0       6        0.0%
BANK1              100      0       0       7        0.0%
BITBANK0            A0      0       0       4        0.0%
BANK0               A0      0       0       5        0.0%
BITCOMRAM           5F      0       0       0        0.0%
COMRAM              5F     11      55       1       89.5%
BITSFR               0      0       0     200        0.0%
SFR                  0      0       0     200        0.0%
STACK                0      0       0       2        0.0%
NULL                 0      0       0       0        0.0%
ABS                  0      0      55      20        0.0%
DATA                 0      0      55       3        0.0%
CODE                 0      0       0       0        0.0%


Microchip Technology PIC18 Macro Assembler V2.05 build -831301201 
Symbol Table                                                                                   Sat Aug 08 06:39:17 2020

       _Last_Inductive_State 0036                           u40 69BE                           u50 69F2  
        ___wmul@multiplicand 0039                  __CFG_BORV$3 000000                 __CFG_CP0$OFF 000000  
               __CFG_CP1$OFF 000000                 __CFG_CP2$OFF 000000                 __CFG_CP3$OFF 000000  
                        l300 6E2A                          l313 67F0                          l323 6C94  
                        _ADC 0023                          l264 61AA                          l354 73DE  
                        l442 76CA                          l275 617C                          l199 7A8E  
                        l573 68E8                          l398 70F2                 __CFG_CPB$OFF 000000  
                        u500 6892                          u530 68BC                          u506 6894  
               __CFG_CPD$OFF 000000                          u540 68D2                          u550 68E2  
                        u490 6886                          u496 6888                          u980 6BF0  
                        u986 6BF2                 __CFG_BOR$OFF 000000                          wreg 000FE8  
               __CFG_FOSC$HS 000000          _Count_Peake_Current 002B                 __CFG_LVP$OFF 000000  
               __CFG_WDT$OFF 000000                         l3011 6C6A                         l3003 6C42  
                       l3005 6C52                         l3007 6C58                         l3015 6C74  
                       l3111 72AC                         l3103 7288                         l3031 710A  
                       l1361 69CE                         l1353 699A                         l3041 7128  
                       l3033 7110                         l3131 7306                         l3123 72E2  
                       l3115 72BE                         l3107 729A                         l3051 7146  
                       l3043 712E                         l3035 7116                         l3203 6EA0  
                       l3061 7164                         l3053 714C                         l3045 7134  
                       l3037 711C                         l3029 7104                         l3213 6F3A  
                       l3205 6F0E                         l3151 7360                         l3143 733C  
                       l3135 7318                         l3127 72F4                         l3119 72D0  
                       l3055 7152                         l3047 713A                         l3039 7122  
                       l3311 7408                         l3303 73F0                         l3057 7158  
                       l3049 7140                         l3065 716E                         l3241 6FB4  
                       l3233 6F90                         l3225 6F68                         l3401 75E0  
                       l3321 7426                         l3313 740E                         l3305 73F6  
                       l4211 79F8                         l2355 68C2                         l3147 734E  
                       l3139 732A                         l3091 7252                         l3155 736A  
                       l3075 720E                         l3059 715E                         l3067 71E2  
                       l3227 6F78                         l3171 6E42                         l3331 7444  
                       l3323 742C                         l3315 7414                         l3307 73FC  
                       l4221 7A2A                         l4213 7A02                         l2349 68A8  
                       l3261 700E                         l3253 6FEA                         l3245 6FC6  
                       l3237 6FA2                         l3229 6F7E                         l3181 6E60  
                       l3173 6E48                         l3421 763A                         l3413 7616  
                       l3405 75F2                         l3333 744A                         l3325 7432  
                       l3317 741A                         l3309 7402                         l3341 74CE  
                       l4231 7A5C                         l4223 7A34                         l4215 7A0C  
                       l3095 7264                         l3087 723C                         l3191 6E7E  
                       l3183 6E66                         l3175 6E4E                         l3335 7450  
                       l3327 7438                         l3319 7420                         l3503 6D20  
                       l4233 7A66                         l4225 7A3E                         l4217 7A16  
                       l4209 79F2                         l3089 724C                         l3281 7068  
                       l3273 7044                         l3265 7020                         l3257 6FFC  
                       l3249 6FD8                         l3193 6E84                         l3185 6E6C  
                       l3177 6E54                         l3169 6E3C                         l3425 764C  
                       l3417 7628                         l3409 7604                         l3361 7528  
                       l3329 743E                         l3513 6D4E                         l4161 7D9C  
                       l4235 7A70                         l4227 7A48                         l4219 7A20  
                       l3099 7276                         l3195 6E8A                         l3187 6E72  
                       l3179 6E5A                         l3363 7538                         l3339 745A  
                       l3531 6DBA                         l4171 7DCE                         l4163 7DA6  
                       l3453 6A30                         l4237 7A7A                         l4229 7A52  
                       l3285 707A                         l3277 7056                         l3269 7032  
                       l3197 6E90                         l3189 6E78                         l3381 7586  
                       l3373 7562                         l3365 753E                         l3429 7656  
                       l3349 74FA                         l3525 6D96                         l4181 7E00  
                       l4173 7DD8                         l4165 7DB0                         l4157 7D8C  
                       l4239 7A84                         l3199 6E96                         l3519 6D72  
                       l3543 6DFE                         l3615 6BAA                         l4183 7E0A  
                       l4175 7DE2                         l4167 7DBA                         l4159 7D92  
                       l3289 7084                         l3393 75BC                         l3385 7598  
                       l3377 7574                         l3369 7550                         l3537 6DDE  
                       l3481 6CA6                         l4185 7E14                         l4177 7DEC  
                       l4169 7DC4                         l3801 7CF2                         l3651 77F4  
                       l3643 7794                         l3483 6CAC                         l4187 7E1E  
                       l4179 7DF6                         l3477 6AB0                         l3469 6A82  
                       l3661 786C                         l3653 780C                         l3645 77AC  
                       l3397 75CE                         l3389 75AA                         l3485 6CB2  
                       l3493 6CC8                         l3565 6838                         l3805 7D20  
                       l3671 7928                         l3663 7884                         l3655 7824  
                       l3647 77C4                         l3487 6CB8                         l3495 6CF4  
                       l3831 7EA2                         l3807 7E26                         l3673 7958  
                       l3665 789C                         l3657 783C                         l3649 77DC  
                       l3489 6CBE                         l3593 6B40                         l3569 684C  
                       l3809 7E2A                         l2971 61F2                         l3667 78CC  
                       l3659 7854                         l3669 78FA                         l3685 7AAC  
                       l2973 6BB2                         l2981 6BC8                         l3853 7F70  
                       l3845 7EF8                         l3837 7ECA                         l3781 7BA6  
                       l3773 7B46                         l3679 7986                         l2991 6C14  
                       l2975 6BB8                         l2983 6BE8                         l3791 7C1E  
                       l3783 7BBE                         l3775 7B5E                         l3871 7FFA  
                       l2977 6BBE                         l3793 7C36                         l3785 7BD6  
                       l3777 7B76                         l3867 7FE4                         l3795 7C66  
                       l3787 7BEE                         l3779 7B8E                         l3797 7C94  
                       l3789 7C06                         l3981 696C                         l3799 7CC2  
             ??_eeprom_readx 0039                         u1010 6C20                         u1016 6C22  
                       u1120 6F16                         u1050 71EA                         u1300 6AB6  
                       u1220 7506                         u1150 6F46                         u1126 6F18  
                       u1310 6CFC                         u2007 7D12                         u1080 721A  
                       u1056 71EC                         u1400 6AE2                         u2017 7E78  
                       u1226 7508                         u2107 6DA8                         u2027 7E92  
                       u1260 6A3A                         u1500 76E2                         u1156 6F48  
                       u1340 6D2C                         u1316 6CFE                         u2117 6DCC  
                       u2037 7FC0                         u1086 721C                         u1190 74D6  
                       u1406 6AE4                         u3007 6146                         u2207 671A  
                       u2127 6DF0                         u2047 6AEC                         u1600 7AFE  
                       u3017 6156                         u2217 66D0                         u2137 6798  
                       u2057 6B30                         u1266 6A3C                         u1530 7726  
                       u1506 76E4                         u1346 6D2E                         u1450 6B4C  
                       u2307 63FA                         u2227 66E8                         u2147 67B0  
                       u2067 6B56                         u1196 74D8                         u1700 7EFE  
                       u2317 63B2                         u2237 669E                         u2157 6766  
                       u2077 6B9A                         u1710 7F20                         u1606 7B00  
                       u2407 630A                         u2327 63CA                         u2247 66B6  
                       u2167 677E                         u2087 6D60                         u1536 7728  
                       u1456 6B4E                         u1720 7F84                         u1640 7E34  
                       u2417 62C2                         u2337 6382                         u2257 666C  
                       u2177 6734                         u2097 6D84                         u1570 7ABA  
                       u2507 65BC                         u2427 62DA                         u2347 639A  
                       u2267 6684                         u2187 674C                         u1740 7FAA  
                       u1716 7F22                         u2517 6572                         u2437 6292  
                       u2357 6352                         u2277 663A                         u2197 6702  
                       u1726 7F86                         u1646 7E36                         u2607 6264  
                       u2527 658A                         u2447 62AA                         u2367 636A  
                       u2287 6652                         u1807 7AEA                         u1760 7FEA  
                       u1576 7ABC                         u2617 627A                         u2537 6540  
                       u2457 6608                         u2377 6322                         u2297 63E2  
                       u1817 7B50                         u1746 7FAC                         u1770 6940  
                       u2707 6446                         u2627 6232                         u2547 6558  
                       u2467 6620                         u2387 633A                         u1907 7C28  
                       u1827 7B68                         u1780 6942                         u2717 645E  
                       u2637 624A                         u2557 650E                         u2477 65D6  
                       u2397 62F2                         u1917 7C40                         u1837 7B80  
                       u2807 77E6                         u2727 6414                         u2647 6202  
                       u2567 6526                         u2487 65EE                         u1927 7C56  
                       u1847 7B98                         u2817 77FE                         u2737 642C  
                       u2657 621A                         u2577 698C                         u2497 65A4  
                       u1937 7C70                         u1857 7BB0                         u2907 78D6  
                       u2827 7816                         u2747 76F0                         u2667 64AA  
                       u2587 64DC                         u1947 7C86                         u1867 7BC8  
                       u2917 78EC                         u2837 782E                         u2757 7712  
                       u2677 64C2                         u2597 64F4                         u1957 7C9E  
                       u1877 7BE0                         u1797 7AC8                         u2927 7904  
                       u2847 7846                         u2767 7746                         u2687 6478  
                       u1967 7CB4                         u1887 7BF8                         u2937 791A  
                       u2857 785E                         u2777 779E                         u2697 6490  
                       u1977 7CCC                         u1897 7C10                         u2947 7932  
                       u2867 7876                         u2787 77B6                         u1987 7CE2  
                       u2957 7948                         u2877 788E                         u2797 77CE  
                       u1997 7CFC                         u2967 7962                         u2887 78A6  
                       u2977 7978                         u2897 78BC                         u2987 7A9A  
                       u2997 6A22                         _Menu 6CA4                         _main 68F6  
                       fsr1l 000FE1                         prodh 000FF4                         prodl 000FF3  
                       start 0000                __CFG_IESO$OFF 000000              __end_of_Draw_10 6534  
            __end_of_Draw_11 6566              __end_of_Draw_12 6598              __end_of_Draw_20 66C4  
            __end_of_Draw_13 65CA              __end_of_Draw_14 65FC              __end_of_Draw_22 66F6  
            __end_of_Draw_30 67BE              __end_of_Draw_15 662E              __end_of_Draw_16 6660  
            __end_of_Draw_24 6728              __end_of_Draw_18 6692              __end_of_Draw_26 675A  
            __end_of_Draw_28 678C              __end_of_Draw_P1 643A              __end_of_Draw_CL 6160  
            __end_of_Draw_P2 646C              __end_of_Draw_P3 649E              __end_of_Draw_P4 64D0  
              __CFG_MCLRE$ON 000000              __end_of_Closing 6ADA                 ___param_bank 000000  
                 _Flag_Latch 002E              __end_of_Menu_P1 6CA4              __end_of_Menu_P2 73EE  
            __end_of_Menu_P3 7102              __end_of_Menu_P4 76DA              __end_of_Menu_In 6BB0  
              __CFG_PLLDIV$1 000000                        ?_Menu 0037               __CFG_CCP2MX$ON 000000  
                      ?_main 0037                        _EEADR 000FA9        __end_of_Sense_Current 61F8  
                 _Close_Lock 76DA                        _PORTB 000F81                __CFG_USBDIV$1 000000  
                      _TRISB 000F93              ??_eeprom_writex 003A                __CFG_PWRT$OFF 000000  
                      _Clear 6126                __CFG_WRT0$OFF 000000                __CFG_WRT1$OFF 000000  
              __CFG_WRT2$OFF 000000          ___lmul@multiplicand 003B                __CFG_WRT3$OFF 000000  
                      _Latch 004C               __CFG_EBTR0$OFF 000000               __CFG_FCMEN$OFF 000000  
             __CFG_EBTR1$OFF 000000               __CFG_EBTR2$OFF 000000               __CFG_EBTR3$OFF 000000  
              __CFG_WRTB$OFF 000000                __CFG_WRTC$OFF 000000                __CFG_WRTD$OFF 000000  
             __CFG_EBTRB$OFF 000000                  _Analog_Read 61A8                        tablat 000FF5  
                      status 000FD8      __size_of_Exit_Time_Menu 0034                   _Count_Save 0015  
             __CFG_PBADEN$ON 000000              __initialization 67F2                 __end_of_Menu 6E3A  
               __end_of_main 697E                       ??_Menu 003C                       ??_main 0047  
              __activetblptr 000002                       ?_Clear 0037                       _ADCON1 000FC1  
                     _ADRESH 000FC4                       _ADRESL 000FC3                       _EEDATA 000FA8  
                     _EECON2 000FA7           __size_of_Indicator 0078          _End_Stop_Open_State 0034  
       _End_Stop_Close_State 004D                    ??_Draw_10 0037                    ??_Draw_11 0037  
                  ??_Draw_20 0037                    ??_Draw_12 0037                    ??_Draw_13 0037  
                  ??_Draw_30 0037                    ??_Draw_22 0037                    ??_Draw_14 0037  
                  ??_Draw_15 0037                    ??_Draw_24 0037                    ??_Draw_16 0037  
                  ??_Draw_26 0037                    ??_Draw_18 0037                    ??_Draw_28 0037  
                  ??_Draw_P1 0037                    ??_Draw_P2 0037                    ??_Draw_CL 0037  
                  ??_Draw_P3 0037                    ??_Draw_P4 0037                    ??_Closing 0039  
                  ??_Menu_P1 003A                    ??_Menu_P2 003A                    ??_Menu_P3 003A  
                  ??_Menu_P4 003A                    ??_Menu_In 003E                       _Draw_0 61F8  
                     _Draw_1 6228                       _Draw_2 6288                       _Draw_3 62B8  
                     _Draw_4 62E8                       _Draw_5 6318                       _Draw_6 6348  
                     _Draw_7 6378                       _Draw_8 63A8                       _Draw_9 63D8  
             __CFG_XINST$OFF 000000           __size_of_Recording 008A                       ___lmul 6828  
                     ___wmul 6182               __CFG_STVREN$ON 000000           __size_of_Open_Lock 054E  
        eeprom_readx@address 0037         __end_of_eeprom_readx 613E                       clear_0 6818  
                ?_Close_Lock 0037                 __pdataCOMRAM 004F       _Button_Menu_Down_State 0032  
                     tblptrh 000FF7                       tblptrl 000FF6                       tblptru 000FF8  
       Open_Lock@Value_Latch 0045                   __accesstop 0060      __end_of__initialization 681E  
              ___rparam_used 000001      _Last_Open_Contact_State 0055                __end_of_Clear 6130  
             __pcstackCOMRAM 0037            __end_of_Indicator 68F6                      ??_Clear 0037  
          __end_of_Recording 6A08            __end_of_Open_Lock 8000            eeprom_writex@data 0039  
             _Exit_Time_Menu 67BE    _Last_Button_Menu_Up_State 0054                   __pnvCOMRAM 0048  
                    ?_Draw_0 0037                      ?_Draw_1 0037                      ?_Draw_2 0037  
                    ?_Draw_3 0037                      ?_Draw_4 0037                      ?_Draw_5 0037  
                    ?_Draw_6 0037                      ?_Draw_7 0037                      ?_Draw_8 0037  
                    ?_Draw_9 0037          __size_of_Close_Lock 03D8                      ?___lmul 0037  
                    ?___wmul 0037              _Time_Auto_Close 004F            _Draw_Save_Dot_One 6258  
          _Draw_Save_Dot_Two 64D0               ___lmul@product 003F           ?_Draw_Save_Dot_One 0037  
         ?_Draw_Save_Dot_Two 0037          ??_Draw_Save_Dot_One 0037          ??_Draw_Save_Dot_Two 0037  
               ?_Analog_Read 0037           _Flag_End_Stop_Open 002D       __end_of_Exit_Time_Menu 67F2  
            __CFG_VREGEN$OFF 000000                      _Draw_10 6502                      _Draw_11 6534  
                    _Draw_20 6692                      _Draw_12 6566                      _Draw_13 6598  
                    _Draw_30 678C                      _Draw_22 66C4                      _Draw_14 65CA  
                    _Draw_15 65FC                      _Draw_24 66F6                      _Draw_16 662E  
                    _Draw_26 6728                      _Draw_18 6660                      _Draw_28 675A  
                    _Draw_P1 6408                      _Draw_CL 613E                      _Draw_P2 643A  
                    _Draw_P3 646C                      _Draw_P4 649E                      _Buffer1 0001  
                    _Closing 6A08                      _Menu_P1 6BB0                      _Menu_P2 7102  
                    _Menu_P3 6E3A                      _Menu_P4 73EE                      _Menu_In 6ADA  
                    _Current 0029              __size_of_Draw_0 0030              __size_of_Draw_1 0030  
            __size_of_Draw_2 0030              __size_of_Draw_3 0030              __size_of_Draw_4 0030  
            __size_of_Draw_5 0030              __size_of_Draw_6 0030              __size_of_Draw_7 0030  
            __size_of_Draw_8 0030              __size_of_Draw_9 0030                      __Hparam 0000  
                    __Lparam 0000        __size_of_eeprom_readx 000E    __end_of_Draw_Save_Dot_One 6288  
  __end_of_Draw_Save_Dot_Two 6502              __size_of___lmul 0056              __size_of___wmul 0026  
            _Time_Open_State 0048                      __pcinit 67F2                      __ramtop 0800  
                    __ptext0 68F6                      __ptext1 7AB2                      __ptext2 6828  
                    __ptext3 6ADA                      __ptext4 6CA4                      __ptext5 73EE  
                    __ptext6 6E3A                      __ptext7 678C                      __ptext8 675A  
                    __ptext9 6728              _Inductive_State 004E        __end_of_eeprom_writex 6182  
            ?_Exit_Time_Menu 0037         end_of_initialization 681E                  _Toggle_Down 0030  
               _eeprom_readx 6130                __Lmediumconst 0000            _Count_Push_Button 0027  
     __size_of_Sense_Current 0028                      postdec1 000FE5                      postinc0 000FEE  
                  _PORTAbits 000F80                    _PORTCbits 000F82                 ??_Close_Lock 003D  
                  _TRISAbits 000F92                    _TRISCbits 000F94         eeprom_writex@address 0037  
         __end_of_Close_Lock 7AB2               __end_of_Draw_0 6228               __end_of_Draw_1 6258  
             __end_of_Draw_2 62B8               __end_of_Draw_3 62E8               __end_of_Draw_4 6318  
             __end_of_Draw_5 6348               __end_of_Draw_6 6378               __end_of_Draw_7 63A8  
             __end_of_Draw_8 63D8               __end_of_Draw_9 6408                    _Flag_Menu 002F  
 __size_of_Draw_Save_Dot_One 0030   __size_of_Draw_Save_Dot_Two 0032           _Open_Contact_State 0035  
             __end_of___lmul 687E               __end_of___wmul 61A8                __pidataCOMRAM 611F  
                  _Count_Led 0025                _Sense_Current 61D0                    _Indicator 687E  
        start_initialization 67F2         __size_of_Analog_Read 0028                    _Recording 697E  
                  _Open_Lock 7AB2                     ??_Draw_0 0037                     ??_Draw_1 0037  
                   ??_Draw_2 0037                     ??_Draw_3 0037                     ??_Draw_4 0037  
                   ??_Draw_5 0037                     ??_Draw_6 0037                     ??_Draw_7 0037  
                   ??_Draw_8 0037                     ??_Draw_9 0037                     ??___lmul 003F  
                   ??___wmul 003B             _Count_Auto_Close 0019             __CFG_LPT1OSC$OFF 000000  
                  _Toggle_Up 0031               ?_Sense_Current 0037                   ?_Indicator 0037  
                __pbssCOMRAM 0001                     ?_Draw_10 0037                     ?_Draw_11 0037  
                   ?_Draw_20 0037                     ?_Draw_12 0037                     ?_Draw_13 0037  
                   ?_Draw_30 0037                     ?_Draw_22 0037                     ?_Draw_14 0037  
                   ?_Draw_15 0037                     ?_Draw_24 0037                     ?_Draw_16 0037  
                   ?_Draw_26 0037                     ?_Draw_18 0037                     ?_Draw_28 0037  
                 ?_Recording 0037                     ?_Draw_P1 0037                     ?_Draw_P2 0037  
                   ?_Draw_CL 0037                     ?_Draw_P3 0037                     ?_Draw_P4 0037  
                   ?_Closing 0037                   ?_Open_Lock 0037                     ?_Menu_P1 0037  
                   ?_Menu_P2 0037                     ?_Menu_P3 0037                     ?_Menu_P4 0037  
                   ?_Menu_In 0037                    _data_test 0021             _Count_Time_Close 001D  
           ??_Exit_Time_Menu 0037               __size_of_Clear 000A               ___wmul@product 003B  
           __CFG_WDTPS$32768 000000              ??_Sense_Current 0039                   _ADCON0bits 000FC2  
                 _ADCON2bits 000FC0            ___wmul@multiplier 0037                  ??_Indicator 0037  
       _Time_Inductive_State 004A            ___lmul@multiplier 0037                    copy_data0 6806  
                ??_Recording 0038  _Last_Button_Menu_Down_State 0053                  ??_Open_Lock 0043  
           __size_of_Draw_10 0032             __size_of_Draw_11 0032             __size_of_Draw_12 0032  
           __size_of_Draw_20 0032             __size_of_Draw_13 0032             __size_of_Draw_14 0032  
           __size_of_Draw_22 0032             __size_of_Draw_30 0032             __size_of_Draw_15 0032  
           __size_of_Draw_16 0032             __size_of_Draw_24 0032             __size_of_Draw_18 0032  
           __size_of_Draw_26 0032             __size_of_Draw_28 0032             __size_of_Draw_P1 0032  
           __size_of_Draw_CL 0022             __size_of_Draw_P2 0032             __size_of_Draw_P3 0032  
           __size_of_Draw_P4 0032                   _EECON1bits 000FA6             __size_of_Closing 00D2  
                   __Hrparam 0000             __size_of_Menu_P1 00F4             __size_of_Menu_P2 02EC  
           __size_of_Menu_P3 02C8             __size_of_Menu_P4 02EC             __size_of_Menu_In 00D6  
                   __Lrparam 0000       __size_of_eeprom_writex 0022              _Count_Exit_Menu 0011  
       _Button_Menu_Up_State 0033                     __ptext10 66F6                     __ptext11 66C4  
                   __ptext20 6318                     __ptext12 6692                     __ptext21 62E8  
                   __ptext13 6660                     __ptext30 6BB0                     __ptext22 62B8  
                   __ptext14 662E                     __ptext31 6160                     __ptext23 6288  
                   __ptext15 7102                     __ptext40 643A                     __ptext32 697E  
                   __ptext24 65FC                     __ptext16 63D8                     __ptext41 6408  
                   __ptext33 64D0                     __ptext25 65CA                     __ptext17 63A8  
                   __ptext50 61A8                     __ptext42 687E                     __ptext34 6258  
                   __ptext26 6598                     __ptext18 6378                     __ptext43 76DA  
                   __ptext35 67BE                     __ptext27 6566                     __ptext19 6348  
                   __ptext44 6130                     __ptext36 6228                     __ptext28 6534  
                   __ptext45 6182                     __ptext37 61F8                     __ptext29 6502  
                   __ptext46 6A08                     __ptext38 649E                     __ptext47 61D0  
                   __ptext39 646C                     __ptext48 613E                     __ptext49 6126  
              __size_of_Menu 0196                __size_of_main 0088        __CFG_CPUDIV$OSC1_PLL2 000000  
                 _INTCONbits 000FF2                ??_Analog_Read 0039                _eeprom_writex 6160  
             ?_eeprom_writex 0037                ?_eeprom_readx 0037          __end_of_Analog_Read 61D0  
