

Microchip MPLAB XC8 Assembler V2.05 build -831301201 
                                                                                               Thu Jul 25 17:27:52 2019

Microchip MPLAB XC8 C Compiler v2.05 (Free license) build 20181220022703 Og1 
     1                           	processor	18F2550
     2                           	fnconf	rparam,??,?,0
     3                           	opt	pw 120
     4                           	opt	flic
     5                           	psect	idataCOMRAM,global,class=CODE,delta=1,noexec
     6                           	psect	nvCOMRAM,global,class=COMRAM,space=1,delta=1,noexec
     7                           	psect	cinit,global,reloc=2,class=CODE,delta=1
     8                           	psect	bssCOMRAM,global,class=COMRAM,space=1,delta=1,noexec
     9                           	psect	dataCOMRAM,global,class=COMRAM,space=1,delta=1,noexec
    10                           	psect	cstackCOMRAM,global,class=COMRAM,space=1,delta=1,noexec
    11                           	psect	text0,global,reloc=2,class=CODE,delta=1
    12                           	psect	text1,global,reloc=2,class=CODE,delta=1
    13                           	psect	text2,global,reloc=2,class=CODE,delta=1
    14                           	psect	text3,global,reloc=2,class=CODE,delta=1
    15                           	psect	text4,global,reloc=2,class=CODE,delta=1
    16                           	psect	text5,global,reloc=2,class=CODE,delta=1
    17                           	psect	text6,global,reloc=2,class=CODE,delta=1
    18                           	psect	text7,global,reloc=2,class=CODE,delta=1
    19                           	psect	text8,global,reloc=2,class=CODE,delta=1
    20                           	psect	text9,global,reloc=2,class=CODE,delta=1
    21                           	psect	text10,global,reloc=2,class=CODE,delta=1
    22                           	psect	text11,global,reloc=2,class=CODE,delta=1
    23                           	psect	text12,global,reloc=2,class=CODE,delta=1
    24                           	psect	text13,global,reloc=2,class=CODE,delta=1
    25                           	psect	text14,global,reloc=2,class=CODE,delta=1
    26                           	psect	text15,global,reloc=2,class=CODE,delta=1
    27                           	psect	text16,global,reloc=2,class=CODE,delta=1
    28                           	psect	text17,global,reloc=2,class=CODE,delta=1
    29                           	psect	text18,global,reloc=2,class=CODE,delta=1
    30                           	psect	text19,global,reloc=2,class=CODE,delta=1
    31                           	psect	text20,global,reloc=2,class=CODE,delta=1
    32                           	psect	text21,global,reloc=2,class=CODE,delta=1
    33                           	psect	text22,global,reloc=2,class=CODE,delta=1
    34                           	psect	text23,global,reloc=2,class=CODE,delta=1
    35                           	psect	text24,global,reloc=2,class=CODE,delta=1
    36                           	psect	text25,global,reloc=2,class=CODE,delta=1
    37                           	psect	text26,global,reloc=2,class=CODE,delta=1
    38                           	psect	text27,global,reloc=2,class=CODE,delta=1
    39                           	psect	text28,global,reloc=2,class=CODE,delta=1
    40                           	psect	text29,global,reloc=2,class=CODE,delta=1
    41                           	psect	text30,global,reloc=2,class=CODE,delta=1
    42                           	psect	text31,global,reloc=2,class=CODE,delta=1
    43                           	psect	text32,global,reloc=2,class=CODE,delta=1
    44                           	psect	text33,global,reloc=2,class=CODE,delta=1
    45                           	psect	text34,global,reloc=2,class=CODE,delta=1
    46                           	psect	text35,global,reloc=2,class=CODE,delta=1,group=1
    47                           	psect	text36,global,reloc=2,class=CODE,delta=1
    48                           	psect	text37,global,reloc=2,class=CODE,delta=1
    49                           	psect	text38,global,reloc=2,class=CODE,delta=1
    50                           	psect	text39,global,reloc=2,class=CODE,delta=1
    51                           	psect	text40,global,reloc=2,class=CODE,delta=1
    52                           	psect	intsave_regs,global,class=BIGRAM,space=1,delta=1,noexec
    53                           	psect	rparam,global,class=COMRAM,space=1,delta=1,noexec
    54  0000                     
    55                           ; Version 2.05
    56                           ; Generated 20/12/2018 GMT
    57                           ; 
    58                           ; Copyright © 2018, Microchip Technology Inc. and its subsidiaries ("Microchip")
    59                           ; All rights reserved.
    60                           ; 
    61                           ; This software is developed by Microchip Technology Inc. and its subsidiaries ("Microch
      +                          ip").
    62                           ; 
    63                           ; Redistribution and use in source and binary forms, with or without modification, are
    64                           ; permitted provided that the following conditions are met:
    65                           ; 
    66                           ;     1. Redistributions of source code must retain the above copyright notice, this lis
      +                          t of
    67                           ;        conditions and the following disclaimer.
    68                           ; 
    69                           ;     2. Redistributions in binary form must reproduce the above copyright notice, this 
      +                          list
    70                           ;        of conditions and the following disclaimer in the documentation and/or other
    71                           ;        materials provided with the distribution.
    72                           ; 
    73                           ;     3. Microchip's name may not be used to endorse or promote products derived from th
      +                          is
    74                           ;        software without specific prior written permission.
    75                           ; 
    76                           ; THIS SOFTWARE IS PROVIDED BY MICROCHIP "AS IS" AND ANY EXPRESS OR IMPLIED WARRANTIES,
    77                           ; INCLUDING, BUT NOT LIMITED TO, THE IMPLIED WARRANTIES OF MERCHANTABILITY AND FITNESS F
      +                          OR
    78                           ; PURPOSE ARE DISCLAIMED.  IN NO EVENT SHALL MICROCHIP BE LIABLE FOR ANY DIRECT, INDIREC
      +                          T,
    79                           ; INCIDENTAL, SPECIAL, EXEMPLARY, OR CONSEQUENTIAL DAMAGES (INCLUDING BUT NOT LIMITED TO
    80                           ; PROCUREMENT OF SUBSTITUTE GOODS OR SERVICES; LOSS OF USE, DATA OR PROFITS; OR BUSINESS
    81                           ; INTERRUPTION) HOWSOEVER CAUSED AND ON ANY THEORY OF LIABILITY, WHETHER IN CONTRACT, ST
      +                          RICT
    82                           ; LIABILITY, OR TORT (INCLUDING NEGLIGENCE OR OTHERWISE) ARISING IN ANY WAY OUT OF THE U
      +                          SE OF
    83                           ; THIS SOFTWARE, EVEN IF ADVISED OF THE POSSIBILITY OF SUCH DAMAGE.
    84                           ; 
    85                           ; 
    86                           ; Code-generator required, PIC18F2550 Definitions
    87                           ; 
    88                           ; SFR Addresses
    89  0000                     
    90                           	psect	idataCOMRAM
    91  006999                     __pidataCOMRAM:
    92                           	opt callstack 0
    93                           
    94                           ;initializer for _Last_Button_Menu_Down_State
    95  006999  01                 	db	1
    96                           
    97                           ;initializer for _Last_Button_Menu_Up_State
    98  00699A  01                 	db	1
    99                           
   100                           ;initializer for _Last_Open_Contact_State
   101  00699B  01                 	db	1
   102                           
   103                           	psect	nvCOMRAM
   104  000040                     __pnvCOMRAM:
   105                           	opt callstack 0
   106  000040                     _Time_Inductive_State:
   107                           	opt callstack 0
   108  000040                     	ds	2
   109  000042                     _Latch:
   110                           	opt callstack 0
   111  000042                     	ds	1
   112  000043                     _Button_Menu_Up_State:
   113                           	opt callstack 0
   114  000043                     	ds	1
   115  0000                     _EECON2	set	4007
   116  0000                     _INTCONbits	set	4082
   117  0000                     _EECON1bits	set	4006
   118  0000                     _EEDATA	set	4008
   119  0000                     _EEADR	set	4009
   120  0000                     _ADRESL	set	4035
   121  0000                     _ADRESH	set	4036
   122  0000                     _PORTAbits	set	3968
   123  0000                     _PORTCbits	set	3970
   124  0000                     _PORTB	set	3969
   125  0000                     _TRISB	set	3987
   126  0000                     _ADCON2bits	set	4032
   127  0000                     _ADCON0bits	set	4034
   128  0000                     _TRISCbits	set	3988
   129  0000                     _TRISAbits	set	3986
   130  0000                     _ADCON1	set	4033
   131                           
   132                           ; #config settings
   133  0000                     
   134                           	psect	cinit
   135  006EEE                     __pcinit:
   136                           	opt callstack 0
   137  006EEE                     start_initialization:
   138                           	opt callstack 0
   139  006EEE                     __initialization:
   140                           	opt callstack 0
   141                           
   142                           ; Initialize objects allocated to COMRAM (3 bytes)
   143                           ; load TBLPTR registers with __pidataCOMRAM
   144  006EEE  0E99               	movlw	low __pidataCOMRAM
   145  006EF0  6EF6               	movwf	tblptrl,c
   146  006EF2  0E69               	movlw	high __pidataCOMRAM
   147  006EF4  6EF7               	movwf	tblptrh,c
   148  006EF6  0E00               	movlw	low (__pidataCOMRAM shr (0+16))
   149  006EF8  6EF8               	movwf	tblptru,c
   150  006EFA  0009               	tblrd		*+	;fetch initializer
   151  006EFC  CFF5 F044          	movff	tablat,__pdataCOMRAM
   152  006F00  0009               	tblrd		*+	;fetch initializer
   153  006F02  CFF5 F045          	movff	tablat,__pdataCOMRAM+1
   154  006F06  0009               	tblrd		*+	;fetch initializer
   155  006F08  CFF5 F046          	movff	tablat,__pdataCOMRAM+2
   156                           
   157                           ; Clear objects allocated to COMRAM (53 bytes)
   158  006F0C  EE00  F001         	lfsr	0,__pbssCOMRAM
   159  006F10  0E35               	movlw	53
   160  006F12                     clear_0:
   161  006F12  6AEE               	clrf	postinc0,c
   162  006F14  06E8               	decf	wreg,f,c
   163  006F16  E1FD               	bnz	clear_0
   164  006F18                     end_of_initialization:
   165                           	opt callstack 0
   166  006F18                     __end_of__initialization:
   167                           	opt callstack 0
   168  006F18  0E00               	movlw	low (__Lmediumconst shr (0+16))
   169  006F1A  6EF8               	movwf	tblptru,c
   170  006F1C  0100               	movlb	0
   171  006F1E  EF91  F037         	goto	_main	;jump to C main() function
   172                           
   173                           	psect	bssCOMRAM
   174  000001                     __pbssCOMRAM:
   175                           	opt callstack 0
   176  000001                     _Buffer1:
   177                           	opt callstack 0
   178  000001                     	ds	16
   179  000011                     _Count_Exit_Menu:
   180                           	opt callstack 0
   181  000011                     	ds	4
   182  000015                     _Count_Save:
   183                           	opt callstack 0
   184  000015                     	ds	4
   185  000019                     _Count_Auto_Close:
   186                           	opt callstack 0
   187  000019                     	ds	4
   188  00001D                     _Count_Time_Close:
   189                           	opt callstack 0
   190  00001D                     	ds	4
   191  000021                     _data_test:
   192                           	opt callstack 0
   193  000021                     	ds	2
   194  000023                     _ADC:
   195                           	opt callstack 0
   196  000023                     	ds	2
   197  000025                     _Count_Push_Button:
   198                           	opt callstack 0
   199  000025                     	ds	2
   200  000027                     _Current:
   201                           	opt callstack 0
   202  000027                     	ds	2
   203  000029                     _Count_Peake_Current:
   204                           	opt callstack 0
   205  000029                     	ds	2
   206  00002B                     _Flag_End_Stop_Open:
   207                           	opt callstack 0
   208  00002B                     	ds	1
   209  00002C                     _Flag_Latch:
   210                           	opt callstack 0
   211  00002C                     	ds	1
   212  00002D                     _Flag_Menu:
   213                           	opt callstack 0
   214  00002D                     	ds	1
   215  00002E                     _Toggle_Down:
   216                           	opt callstack 0
   217  00002E                     	ds	1
   218  00002F                     _Toggle_Up:
   219                           	opt callstack 0
   220  00002F                     	ds	1
   221  000030                     _Button_Menu_Down_State:
   222                           	opt callstack 0
   223  000030                     	ds	1
   224  000031                     _End_Stop_Open_State:
   225                           	opt callstack 0
   226  000031                     	ds	1
   227  000032                     _End_Stop_Close_State:
   228                           	opt callstack 0
   229  000032                     	ds	1
   230  000033                     _Open_Contact_State:
   231                           	opt callstack 0
   232  000033                     	ds	1
   233  000034                     _Inductive_State:
   234                           	opt callstack 0
   235  000034                     	ds	1
   236  000035                     _Last_Inductive_State:
   237                           	opt callstack 0
   238  000035                     	ds	1
   239                           
   240                           	psect	dataCOMRAM
   241  000044                     __pdataCOMRAM:
   242                           	opt callstack 0
   243  000044                     _Last_Button_Menu_Down_State:
   244                           	opt callstack 0
   245  000044                     	ds	1
   246  000045                     _Last_Button_Menu_Up_State:
   247                           	opt callstack 0
   248  000045                     	ds	1
   249  000046                     _Last_Open_Contact_State:
   250                           	opt callstack 0
   251  000046                     	ds	1
   252                           
   253                           	psect	cstackCOMRAM
   254  000036                     __pcstackCOMRAM:
   255                           	opt callstack 0
   256  000036                     ??_Draw_P1:
   257  000036                     ??_Draw_P2:
   258  000036                     ??_Draw_P3:
   259  000036                     ??_Draw_P4:
   260  000036                     ??_Draw_0:
   261  000036                     ??_Draw_1:
   262  000036                     ??_Draw_2:
   263  000036                     ??_Draw_3:
   264  000036                     ??_Draw_4:
   265  000036                     ??_Draw_5:
   266  000036                     ??_Draw_6:
   267  000036                     ??_Draw_7:
   268  000036                     ??_Draw_8:
   269  000036                     ??_Draw_9:
   270  000036                     ??_Draw_10:
   271  000036                     ??_Draw_11:
   272  000036                     ??_Draw_12:
   273  000036                     ??_Draw_13:
   274  000036                     ??_Draw_14:
   275  000036                     ??_Draw_15:
   276  000036                     ??_Draw_Save_Dot_One:
   277  000036                     ??_Draw_Save_Dot_Two:
   278  000036                     ?_Analog_Read:
   279                           	opt callstack 0
   280  000036                     ?___wmul:
   281                           	opt callstack 0
   282  000036                     eeprom_writex@address:
   283                           	opt callstack 0
   284  000036                     eeprom_readx@address:
   285                           	opt callstack 0
   286  000036                     ___wmul@multiplier:
   287                           	opt callstack 0
   288                           
   289                           ; 2 bytes @ 0x0
   290  000036                     	ds	1
   291  000037                     ??_Recording:
   292                           
   293                           ; 1 bytes @ 0x1
   294  000037                     	ds	1
   295  000038                     ??_Open_Lock:
   296  000038                     eeprom_writex@data:
   297                           	opt callstack 0
   298  000038                     ___wmul@multiplicand:
   299                           	opt callstack 0
   300                           
   301                           ; 2 bytes @ 0x2
   302  000038                     	ds	1
   303  000039                     ??_Menu_P1:
   304  000039                     ??_Menu_P2:
   305  000039                     ??_Menu_P3:
   306  000039                     ??_Menu_P4:
   307  000039                     
   308                           ; 1 bytes @ 0x3
   309  000039                     	ds	1
   310  00003A                     Open_Lock@Value_Latch:
   311                           	opt callstack 0
   312  00003A                     ___wmul@product:
   313                           	opt callstack 0
   314                           
   315                           ; 2 bytes @ 0x4
   316  00003A                     	ds	1
   317  00003B                     ??_Menu:
   318                           
   319                           ; 1 bytes @ 0x5
   320  00003B                     	ds	1
   321  00003C                     ??_Close_Lock:
   322                           
   323                           ; 1 bytes @ 0x6
   324  00003C                     	ds	1
   325  00003D                     ??_Menu_In:
   326                           
   327                           ; 1 bytes @ 0x7
   328  00003D                     	ds	2
   329  00003F                     ??_main:
   330                           
   331                           ; 1 bytes @ 0x9
   332  00003F                     	ds	1
   333                           
   334 ;;
   335 ;;Main: autosize = 0, tempsize = 1, incstack = 0, save=0
   336 ;;
   337 ;; *************** function _main *****************
   338 ;; Defined at:
   339 ;;		line 117 in file "main.c"
   340 ;; Parameters:    Size  Location     Type
   341 ;;		None
   342 ;; Auto vars:     Size  Location     Type
   343 ;;		None
   344 ;; Return value:  Size  Location     Type
   345 ;;                  1    wreg      void 
   346 ;; Registers used:
   347 ;;		wreg, status,2, status,0, prodl, prodh, cstack
   348 ;; Tracked objects:
   349 ;;		On entry : 0/0
   350 ;;		On exit  : 0/0
   351 ;;		Unchanged: 0/0
   352 ;; Data sizes:     COMRAM   BANK0   BANK1   BANK2   BANK3   BANK4   BANK5   BANK6   BANK7
   353 ;;      Params:         0       0       0       0       0       0       0       0       0
   354 ;;      Locals:         0       0       0       0       0       0       0       0       0
   355 ;;      Temps:          1       0       0       0       0       0       0       0       0
   356 ;;      Totals:         1       0       0       0       0       0       0       0       0
   357 ;;Total ram usage:        1 bytes
   358 ;; Hardware stack levels required when called:    5
   359 ;; This function calls:
   360 ;;		_Close_Lock
   361 ;;		_Menu_In
   362 ;;		_Open_Lock
   363 ;;		_eeprom_readx
   364 ;; This function is called by:
   365 ;;		Startup code after reset
   366 ;; This function uses a non-reentrant model
   367 ;;
   368                           
   369                           	psect	text0
   370  006F22                     __ptext0:
   371                           	opt callstack 0
   372  006F22                     _main:
   373                           	opt callstack 26
   374                           
   375                           ;main.c: 118:     ADCON1 = 0X0E;
   376                           
   377                           ;incstack = 0
   378  006F22  0E0E               	movlw	14
   379  006F24  6EC1               	movwf	4033,c	;volatile
   380                           
   381                           ;main.c: 120:     TRISAbits.RA0 = 1;
   382  006F26  8092               	bsf	3986,0,c	;volatile
   383                           
   384                           ;main.c: 122:     TRISAbits.RA1 = 1;
   385  006F28  8292               	bsf	3986,1,c	;volatile
   386                           
   387                           ;main.c: 123:     TRISAbits.RA4 = 1;
   388  006F2A  8892               	bsf	3986,4,c	;volatile
   389                           
   390                           ;main.c: 124:     TRISCbits.RC1 = 0;
   391  006F2C  9294               	bcf	3988,1,c	;volatile
   392                           
   393                           ;main.c: 125:     TRISCbits.RC2 = 0;
   394  006F2E  9494               	bcf	3988,2,c	;volatile
   395                           
   396                           ;main.c: 126:     TRISCbits.RC6 = 0;
   397  006F30  9C94               	bcf	3988,6,c	;volatile
   398                           
   399                           ;main.c: 127:     TRISCbits.RC7 = 0;
   400  006F32  9E94               	bcf	3988,7,c	;volatile
   401                           
   402                           ;main.c: 128:     TRISAbits.RA2 = 1;
   403  006F34  8492               	bsf	3986,2,c	;volatile
   404                           
   405                           ;main.c: 129:     TRISAbits.RA3 = 1;
   406  006F36  8692               	bsf	3986,3,c	;volatile
   407                           
   408                           ;main.c: 130:     TRISAbits.RA5 = 1;
   409  006F38  8A92               	bsf	3986,5,c	;volatile
   410                           
   411                           ;main.c: 131:     TRISCbits.RC0 = 1;
   412  006F3A  8094               	bsf	3988,0,c	;volatile
   413                           
   414                           ;main.c: 134:     ADCON0bits.CHS = 0;
   415  006F3C  0EC3               	movlw	-61
   416  006F3E  16C2               	andwf	4034,f,c	;volatile
   417                           
   418                           ;main.c: 137:     ADCON2bits.ADCS = 0b000;
   419  006F40  0EF8               	movlw	-8
   420  006F42  16C0               	andwf	4032,f,c	;volatile
   421                           
   422                           ;main.c: 138:     ADCON2bits.ADFM = 1;
   423  006F44  8EC0               	bsf	4032,7,c	;volatile
   424                           
   425                           ;main.c: 139:     ADCON0bits.ADON = 1;
   426  006F46  80C2               	bsf	4034,0,c	;volatile
   427                           
   428                           ;main.c: 141:     TRISB = 0x00;
   429  006F48  0E00               	movlw	0
   430  006F4A  6E93               	movwf	3987,c	;volatile
   431                           
   432                           ;main.c: 142:     PORTB = 0xFF;
   433  006F4C  6881               	setf	3969,c	;volatile
   434                           
   435                           ;main.c: 144:     PORTCbits.RC7 = 0;
   436  006F4E  9E82               	bcf	3970,7,c	;volatile
   437                           
   438                           ;main.c: 145:     PORTCbits.RC6 = 0;
   439  006F50  9C82               	bcf	3970,6,c	;volatile
   440                           
   441                           ;main.c: 146:     PORTCbits.RC1 = 0;
   442  006F52  9282               	bcf	3970,1,c	;volatile
   443                           
   444                           ;main.c: 147:     PORTCbits.RC2 = 0;
   445  006F54  9482               	bcf	3970,2,c	;volatile
   446                           
   447                           ;main.c: 149:     Latch = eeprom_readx(0x01);
   448  006F56  0E00               	movlw	0
   449  006F58  6E37               	movwf	eeprom_readx@address+1,c
   450  006F5A  0E01               	movlw	1
   451  006F5C  6E36               	movwf	eeprom_readx@address,c
   452  006F5E  ECD3  F034         	call	_eeprom_readx	;wreg free
   453  006F62  0900               	iorlw	0
   454  006F64  B4D8               	btfsc	status,2,c
   455  006F66  D002               	goto	u1660
   456  006F68  0E01               	movlw	1
   457  006F6A  D001               	goto	u1670
   458  006F6C                     u1660:
   459  006F6C  0E00               	movlw	0
   460  006F6E                     u1670:
   461  006F6E  6E42               	movwf	_Latch,c
   462                           
   463                           ;main.c: 150:     Time_Inductive_State = eeprom_readx(0x02);
   464  006F70  0E00               	movlw	0
   465  006F72  6E37               	movwf	eeprom_readx@address+1,c
   466  006F74  0E02               	movlw	2
   467  006F76  6E36               	movwf	eeprom_readx@address,c
   468  006F78  ECD3  F034         	call	_eeprom_readx	;wreg free
   469  006F7C  6E3F               	movwf	??_main& (0+255),c
   470  006F7E  503F               	movf	??_main,w,c
   471  006F80  6E40               	movwf	_Time_Inductive_State,c
   472  006F82  6A41               	clrf	_Time_Inductive_State+1,c
   473  006F84                     l3229:
   474                           
   475                           ;main.c: 153:         Menu_In();
   476  006F84  EC63  F038         	call	_Menu_In	;wreg free
   477                           
   478                           ;main.c: 154:         Close_Lock();
   479  006F88  EC41  F03E         	call	_Close_Lock	;wreg free
   480                           
   481                           ;main.c: 155:         Open_Lock();
   482  006F8C  EC7D  F03A         	call	_Open_Lock	;wreg free
   483  006F90  D7F9               	goto	l3229
   484  006F92                     __end_of_main:
   485                           	opt callstack 0
   486                           
   487 ;; *************** function _Open_Lock *****************
   488 ;; Defined at:
   489 ;;		line 242 in file "main.c"
   490 ;; Parameters:    Size  Location     Type
   491 ;;		None
   492 ;; Auto vars:     Size  Location     Type
   493 ;;  Value_Latch     2    4[COMRAM] int 
   494 ;; Return value:  Size  Location     Type
   495 ;;                  1    wreg      void 
   496 ;; Registers used:
   497 ;;		wreg, status,2, status,0, cstack
   498 ;; Tracked objects:
   499 ;;		On entry : 0/0
   500 ;;		On exit  : 0/0
   501 ;;		Unchanged: 0/0
   502 ;; Data sizes:     COMRAM   BANK0   BANK1   BANK2   BANK3   BANK4   BANK5   BANK6   BANK7
   503 ;;      Params:         0       0       0       0       0       0       0       0       0
   504 ;;      Locals:         2       0       0       0       0       0       0       0       0
   505 ;;      Temps:          2       0       0       0       0       0       0       0       0
   506 ;;      Totals:         4       0       0       0       0       0       0       0       0
   507 ;;Total ram usage:        4 bytes
   508 ;; Hardware stack levels used:    1
   509 ;; Hardware stack levels required when called:    3
   510 ;; This function calls:
   511 ;;		_Closing
   512 ;;		_Sense_Current
   513 ;;		_eeprom_readx
   514 ;; This function is called by:
   515 ;;		_main
   516 ;; This function uses a non-reentrant model
   517 ;;
   518                           
   519                           	psect	text1
   520  0074FA                     __ptext1:
   521                           	opt callstack 0
   522  0074FA                     _Open_Lock:
   523                           	opt callstack 27
   524                           
   525                           ;main.c: 243:     Open_Contact_State = PORTAbits.RA4;
   526                           
   527                           ;incstack = 0
   528  0074FA  A880               	btfss	3968,4,c	;volatile
   529  0074FC  D002               	goto	u1460
   530  0074FE  0E01               	movlw	1
   531  007500  D001               	goto	u1466
   532  007502                     u1460:
   533  007502  0E00               	movlw	0
   534  007504                     u1466:
   535  007504  6E33               	movwf	_Open_Contact_State,c
   536                           
   537                           ;main.c: 244:     _delay((unsigned long)((50)*(20000000/4000.0)));
   538  007506  0E02               	movlw	2
   539  007508  6E39               	movwf	(??_Open_Lock+1)& (0+255),c
   540  00750A  0E45               	movlw	69
   541  00750C  6E38               	movwf	??_Open_Lock& (0+255),c
   542  00750E  0EAA               	movlw	170
   543  007510                     u1687:
   544  007510  2EE8               	decfsz	wreg,f,c
   545  007512  D7FE               	bra	u1687
   546  007514  2E38               	decfsz	??_Open_Lock& (0+255),f,c
   547  007516  D7FC               	bra	u1687
   548  007518  2E39               	decfsz	(??_Open_Lock+1)& (0+255),f,c
   549  00751A  D7FA               	bra	u1687
   550                           
   551                           ;main.c: 245:     if(Open_Contact_State == 0 && Last_Open_Contact_State == 1) {
   552  00751C  5033               	movf	_Open_Contact_State,w,c
   553  00751E  A4D8               	btfss	status,2,c
   554  007520  D0D1               	goto	l3185
   555  007522  0446               	decf	_Last_Open_Contact_State,w,c
   556  007524  A4D8               	btfss	status,2,c
   557  007526  D0CE               	goto	l3185
   558                           
   559                           ;main.c: 246:         _delay((unsigned long)((50)*(20000000/4000.0)));
   560  007528  0E02               	movlw	2
   561  00752A  6E39               	movwf	(??_Open_Lock+1)& (0+255),c
   562  00752C  0E45               	movlw	69
   563  00752E  6E38               	movwf	??_Open_Lock& (0+255),c
   564  007530  0EAA               	movlw	170
   565  007532                     u1697:
   566  007532  2EE8               	decfsz	wreg,f,c
   567  007534  D7FE               	bra	u1697
   568  007536  2E38               	decfsz	??_Open_Lock& (0+255),f,c
   569  007538  D7FC               	bra	u1697
   570  00753A  2E39               	decfsz	(??_Open_Lock+1)& (0+255),f,c
   571  00753C  D7FA               	bra	u1697
   572                           
   573                           ;main.c: 247:         End_Stop_Open_State = PORTAbits.RA2;
   574  00753E  A480               	btfss	3968,2,c	;volatile
   575  007540  D002               	goto	u1490
   576  007542  0E01               	movlw	1
   577  007544  D001               	goto	u1496
   578  007546                     u1490:
   579  007546  0E00               	movlw	0
   580  007548                     u1496:
   581  007548  6E31               	movwf	_End_Stop_Open_State,c
   582                           
   583                           ;main.c: 248:         if(Open_Contact_State == 0 && Last_Open_Contact_State == 1 && End_
      +                          Stop_Open_State == 1) {
   584  00754A  5033               	movf	_Open_Contact_State,w,c
   585  00754C  A4D8               	btfss	status,2,c
   586  00754E  D0BA               	goto	l3185
   587  007550  0446               	decf	_Last_Open_Contact_State,w,c
   588  007552  A4D8               	btfss	status,2,c
   589  007554  D0B7               	goto	l3185
   590  007556  0431               	decf	_End_Stop_Open_State,w,c
   591  007558  A4D8               	btfss	status,2,c
   592  00755A  D0B4               	goto	l3185
   593                           
   594                           ;main.c: 249:             Flag_End_Stop_Open = 1;
   595  00755C  0E01               	movlw	1
   596  00755E  6E2B               	movwf	_Flag_End_Stop_Open,c
   597  007560                     l3131:
   598                           
   599                           ;main.c: 251:                 PORTCbits.RC2 = 1;
   600  007560  8482               	bsf	3970,2,c	;volatile
   601                           
   602                           ;main.c: 252:                 End_Stop_Open_State = PORTAbits.RA2;
   603  007562  A480               	btfss	3968,2,c	;volatile
   604  007564  D002               	goto	u1530
   605  007566  0E01               	movlw	1
   606  007568  D001               	goto	u1536
   607  00756A                     u1530:
   608  00756A  0E00               	movlw	0
   609  00756C                     u1536:
   610  00756C  6E31               	movwf	_End_Stop_Open_State,c
   611                           
   612                           ;main.c: 253:                 Count_Time_Close++;
   613  00756E  0E01               	movlw	1
   614  007570  261D               	addwf	_Count_Time_Close,f,c
   615  007572  0E00               	movlw	0
   616  007574  221E               	addwfc	_Count_Time_Close+1,f,c
   617  007576  221F               	addwfc	_Count_Time_Close+2,f,c
   618  007578  2220               	addwfc	_Count_Time_Close+3,f,c
   619                           
   620                           ;main.c: 254:                 Sense_Current();
   621  00757A  EC23  F035         	call	_Sense_Current	;wreg free
   622                           
   623                           ;main.c: 256:                 if (End_Stop_Open_State == 0) {
   624  00757E  5031               	movf	_End_Stop_Open_State,w,c
   625  007580  A4D8               	btfss	status,2,c
   626  007582  D029               	goto	l3153
   627                           
   628                           ;main.c: 257:                     Flag_End_Stop_Open = 0;
   629  007584  0E00               	movlw	0
   630  007586  6E2B               	movwf	_Flag_End_Stop_Open,c
   631                           
   632                           ;main.c: 258:                     int Value_Latch = eeprom_readx(0x01);
   633  007588  0E00               	movlw	0
   634  00758A  6E37               	movwf	eeprom_readx@address+1,c
   635  00758C  0E01               	movlw	1
   636  00758E  6E36               	movwf	eeprom_readx@address,c
   637  007590  ECD3  F034         	call	_eeprom_readx	;wreg free
   638  007594  6E38               	movwf	??_Open_Lock& (0+255),c
   639  007596  5038               	movf	??_Open_Lock,w,c
   640  007598  6E3A               	movwf	Open_Lock@Value_Latch,c
   641  00759A  6A3B               	clrf	Open_Lock@Value_Latch+1,c
   642                           
   643                           ;main.c: 259:                     if (Value_Latch == 1) {
   644  00759C  043A               	decf	Open_Lock@Value_Latch,w,c
   645  00759E  103B               	iorwf	Open_Lock@Value_Latch+1,w,c
   646  0075A0  A4D8               	btfss	status,2,c
   647  0075A2  D019               	goto	l3153
   648                           
   649                           ;main.c: 260:                         _delay((unsigned long)((2000)*(20000000/4000.0)));
   650  0075A4  0E33               	movlw	51
   651  0075A6  6E39               	movwf	(??_Open_Lock+1)& (0+255),c
   652  0075A8  0EBB               	movlw	187
   653  0075AA  6E38               	movwf	??_Open_Lock& (0+255),c
   654  0075AC  0EE0               	movlw	224
   655  0075AE                     u1707:
   656  0075AE  2EE8               	decfsz	wreg,f,c
   657  0075B0  D7FE               	bra	u1707
   658  0075B2  2E38               	decfsz	??_Open_Lock& (0+255),f,c
   659  0075B4  D7FC               	bra	u1707
   660  0075B6  2E39               	decfsz	(??_Open_Lock+1)& (0+255),f,c
   661  0075B8  D7FA               	bra	u1707
   662                           
   663                           ;main.c: 261:                         PORTCbits.RC2 = 0;
   664  0075BA  9482               	bcf	3970,2,c	;volatile
   665                           
   666                           ;main.c: 262:                         PORTCbits.RC1 = 1;
   667  0075BC  8282               	bsf	3970,1,c	;volatile
   668                           
   669                           ;main.c: 263:                         _delay((unsigned long)((100)*(20000000/4000.0)));
   670  0075BE  0E03               	movlw	3
   671  0075C0  6E39               	movwf	(??_Open_Lock+1)& (0+255),c
   672  0075C2  0E8A               	movlw	138
   673  0075C4  6E38               	movwf	??_Open_Lock& (0+255),c
   674  0075C6  0E56               	movlw	86
   675  0075C8                     u1717:
   676  0075C8  2EE8               	decfsz	wreg,f,c
   677  0075CA  D7FE               	bra	u1717
   678  0075CC  2E38               	decfsz	??_Open_Lock& (0+255),f,c
   679  0075CE  D7FC               	bra	u1717
   680  0075D0  2E39               	decfsz	(??_Open_Lock+1)& (0+255),f,c
   681  0075D2  D7FA               	bra	u1717
   682                           
   683                           ;main.c: 264:                         PORTCbits.RC1 = 0;
   684  0075D4  9282               	bcf	3970,1,c	;volatile
   685  0075D6                     l3153:
   686                           
   687                           ;main.c: 268:                 if(Count_Time_Close == 250000) {
   688  0075D6  0E90               	movlw	144
   689  0075D8  181D               	xorwf	_Count_Time_Close,w,c
   690  0075DA  E111               	bnz	l3159
   691  0075DC  0ED0               	movlw	208
   692  0075DE  181E               	xorwf	_Count_Time_Close+1,w,c
   693  0075E0  E10E               	bnz	l3159
   694  0075E2  0E03               	movlw	3
   695  0075E4  181F               	xorwf	_Count_Time_Close+2,w,c
   696  0075E6  1020               	iorwf	_Count_Time_Close+3,w,c
   697  0075E8  A4D8               	btfss	status,2,c
   698  0075EA  D009               	goto	l3159
   699                           
   700                           ;main.c: 269:                     Count_Time_Close = 0;
   701  0075EC  0E00               	movlw	0
   702  0075EE  6E1D               	movwf	_Count_Time_Close,c
   703  0075F0  0E00               	movlw	0
   704  0075F2  6E1E               	movwf	_Count_Time_Close+1,c
   705  0075F4  0E00               	movlw	0
   706  0075F6  6E1F               	movwf	_Count_Time_Close+2,c
   707  0075F8  0E00               	movlw	0
   708  0075FA  6E20               	movwf	_Count_Time_Close+3,c
   709                           
   710                           ;main.c: 270:                     break;
   711  0075FC  D01A               	goto	u1590
   712  0075FE                     l3159:
   713  0075FE  BE28               	btfsc	_Current+1,7,c
   714  007600  D015               	goto	l3167
   715  007602  0E21               	movlw	33
   716  007604  5C27               	subwf	_Current,w,c
   717  007606  0E02               	movlw	2
   718  007608  5828               	subwfb	_Current+1,w,c
   719  00760A  A0D8               	btfss	status,0,c
   720  00760C  D00F               	goto	l3167
   721                           
   722                           ;main.c: 272:                     Count_Peake_Current++;
   723  00760E  4A29               	infsnz	_Count_Peake_Current,f,c
   724  007610  2A2A               	incf	_Count_Peake_Current+1,f,c
   725                           
   726                           ;main.c: 273:                     if (Count_Peake_Current > 2000) {
   727  007612  BE2A               	btfsc	_Count_Peake_Current+1,7,c
   728  007614  D00B               	goto	l3167
   729  007616  0ED1               	movlw	209
   730  007618  5C29               	subwf	_Count_Peake_Current,w,c
   731  00761A  0E07               	movlw	7
   732  00761C  582A               	subwfb	_Count_Peake_Current+1,w,c
   733  00761E  A0D8               	btfss	status,0,c
   734  007620  D005               	goto	l3167
   735                           
   736                           ;main.c: 274:                         Count_Peake_Current = 0;
   737  007622  0E00               	movlw	0
   738  007624  6E2A               	movwf	_Count_Peake_Current+1,c
   739  007626  0E00               	movlw	0
   740  007628  6E29               	movwf	_Count_Peake_Current,c
   741                           
   742                           ;main.c: 275:                         break;
   743  00762A  D003               	goto	u1590
   744  00762C                     l3167:
   745                           
   746                           ;main.c: 279:             } while(Flag_End_Stop_Open == 1);
   747  00762C  042B               	decf	_Flag_End_Stop_Open,w,c
   748  00762E  B4D8               	btfsc	status,2,c
   749  007630  D797               	goto	l3131
   750  007632                     u1590:
   751                           
   752                           ;main.c: 280:             PORTCbits.RC2 = 0;
   753  007632  9482               	bcf	3970,2,c	;volatile
   754                           
   755                           ;main.c: 281:             Count_Time_Close = 0;
   756  007634  0E00               	movlw	0
   757  007636  6E1D               	movwf	_Count_Time_Close,c
   758  007638  0E00               	movlw	0
   759  00763A  6E1E               	movwf	_Count_Time_Close+1,c
   760  00763C  0E00               	movlw	0
   761  00763E  6E1F               	movwf	_Count_Time_Close+2,c
   762  007640  0E00               	movlw	0
   763  007642  6E20               	movwf	_Count_Time_Close+3,c
   764                           
   765                           ;main.c: 282:             Count_Peake_Current = 0;
   766  007644  0E00               	movlw	0
   767  007646  6E2A               	movwf	_Count_Peake_Current+1,c
   768  007648  0E00               	movlw	0
   769  00764A  6E29               	movwf	_Count_Peake_Current,c
   770                           
   771                           ;main.c: 283:             Inductive_State = PORTAbits.RA1;
   772  00764C  A280               	btfss	3968,1,c	;volatile
   773  00764E  D002               	goto	u1600
   774  007650  0E01               	movlw	1
   775  007652  D001               	goto	u1606
   776  007654                     u1600:
   777  007654  0E00               	movlw	0
   778  007656                     u1606:
   779  007656  6E34               	movwf	_Inductive_State,c
   780  007658                     l3171:
   781                           
   782                           ;main.c: 285:                 Count_Auto_Close++;
   783  007658  0E01               	movlw	1
   784  00765A  2619               	addwf	_Count_Auto_Close,f,c
   785  00765C  0E00               	movlw	0
   786  00765E  221A               	addwfc	_Count_Auto_Close+1,f,c
   787  007660  221B               	addwfc	_Count_Auto_Close+2,f,c
   788  007662  221C               	addwfc	_Count_Auto_Close+3,f,c
   789                           
   790                           ;main.c: 286:                 Inductive_State = PORTAbits.RA1;
   791  007664  A280               	btfss	3968,1,c	;volatile
   792  007666  D002               	goto	u1610
   793  007668  0E01               	movlw	1
   794  00766A  D001               	goto	u1616
   795  00766C                     u1610:
   796  00766C  0E00               	movlw	0
   797  00766E                     u1616:
   798  00766E  6E34               	movwf	_Inductive_State,c
   799                           
   800                           ;main.c: 287:                 if(Count_Auto_Close == 1000000) {
   801  007670  0E40               	movlw	64
   802  007672  1819               	xorwf	_Count_Auto_Close,w,c
   803  007674  E11C               	bnz	l3181
   804  007676  0E42               	movlw	66
   805  007678  181A               	xorwf	_Count_Auto_Close+1,w,c
   806  00767A  E119               	bnz	l3181
   807  00767C  0E0F               	movlw	15
   808  00767E  181B               	xorwf	_Count_Auto_Close+2,w,c
   809  007680  101C               	iorwf	_Count_Auto_Close+3,w,c
   810  007682  A4D8               	btfss	status,2,c
   811  007684  D014               	goto	l3181
   812                           
   813                           ;main.c: 288:                     End_Stop_Open_State = PORTAbits.RA2;
   814  007686  A480               	btfss	3968,2,c	;volatile
   815  007688  D002               	goto	u1630
   816  00768A  0E01               	movlw	1
   817  00768C  D001               	goto	u1636
   818  00768E                     u1630:
   819  00768E  0E00               	movlw	0
   820  007690                     u1636:
   821  007690  6E31               	movwf	_End_Stop_Open_State,c
   822                           
   823                           ;main.c: 289:                     if(End_Stop_Open_State == 0) {
   824  007692  5031               	movf	_End_Stop_Open_State,w,c
   825  007694  A4D8               	btfss	status,2,c
   826  007696  D00E               	goto	u1650
   827                           
   828                           ;main.c: 290:                         Closing();
   829  007698  EC0E  F038         	call	_Closing	;wreg free
   830                           
   831                           ;main.c: 291:                         Count_Auto_Close = 0;
   832  00769C  0E00               	movlw	0
   833  00769E  6E19               	movwf	_Count_Auto_Close,c
   834  0076A0  0E00               	movlw	0
   835  0076A2  6E1A               	movwf	_Count_Auto_Close+1,c
   836  0076A4  0E00               	movlw	0
   837  0076A6  6E1B               	movwf	_Count_Auto_Close+2,c
   838  0076A8  0E00               	movlw	0
   839  0076AA  6E1C               	movwf	_Count_Auto_Close+3,c
   840  0076AC  D003               	goto	u1650
   841  0076AE                     l3181:
   842                           
   843                           ;main.c: 295:             } while(Inductive_State == 1);
   844  0076AE  0434               	decf	_Inductive_State,w,c
   845  0076B0  B4D8               	btfsc	status,2,c
   846  0076B2  D7D2               	goto	l3171
   847  0076B4                     u1650:
   848                           
   849                           ;main.c: 296:             Count_Auto_Close = 0;
   850  0076B4  0E00               	movlw	0
   851  0076B6  6E19               	movwf	_Count_Auto_Close,c
   852  0076B8  0E00               	movlw	0
   853  0076BA  6E1A               	movwf	_Count_Auto_Close+1,c
   854  0076BC  0E00               	movlw	0
   855  0076BE  6E1B               	movwf	_Count_Auto_Close+2,c
   856  0076C0  0E00               	movlw	0
   857  0076C2  6E1C               	movwf	_Count_Auto_Close+3,c
   858  0076C4                     l3185:
   859                           
   860                           ;main.c: 299:     Last_Open_Contact_State = Open_Contact_State;
   861  0076C4  C033  F046         	movff	_Open_Contact_State,_Last_Open_Contact_State
   862  0076C8  0012               	return		;funcret
   863  0076CA                     __end_of_Open_Lock:
   864                           	opt callstack 0
   865                           
   866 ;; *************** function _Menu_In *****************
   867 ;; Defined at:
   868 ;;		line 383 in file "main.c"
   869 ;; Parameters:    Size  Location     Type
   870 ;;		None
   871 ;; Auto vars:     Size  Location     Type
   872 ;;		None
   873 ;; Return value:  Size  Location     Type
   874 ;;                  1    wreg      void 
   875 ;; Registers used:
   876 ;;		wreg, status,2, status,0, cstack
   877 ;; Tracked objects:
   878 ;;		On entry : 0/0
   879 ;;		On exit  : 0/0
   880 ;;		Unchanged: 0/0
   881 ;; Data sizes:     COMRAM   BANK0   BANK1   BANK2   BANK3   BANK4   BANK5   BANK6   BANK7
   882 ;;      Params:         0       0       0       0       0       0       0       0       0
   883 ;;      Locals:         0       0       0       0       0       0       0       0       0
   884 ;;      Temps:          2       0       0       0       0       0       0       0       0
   885 ;;      Totals:         2       0       0       0       0       0       0       0       0
   886 ;;Total ram usage:        2 bytes
   887 ;; Hardware stack levels used:    1
   888 ;; Hardware stack levels required when called:    4
   889 ;; This function calls:
   890 ;;		_Menu
   891 ;; This function is called by:
   892 ;;		_main
   893 ;; This function uses a non-reentrant model
   894 ;;
   895                           
   896                           	psect	text2
   897  0070C6                     __ptext2:
   898                           	opt callstack 0
   899  0070C6                     _Menu_In:
   900                           	opt callstack 26
   901                           
   902                           ;main.c: 384:     Button_Menu_Up_State = PORTAbits.RA5;
   903                           
   904                           ;incstack = 0
   905  0070C6  AA80               	btfss	3968,5,c	;volatile
   906  0070C8  D002               	goto	u1290
   907  0070CA  0E01               	movlw	1
   908  0070CC  D001               	goto	u1296
   909  0070CE                     u1290:
   910  0070CE  0E00               	movlw	0
   911  0070D0                     u1296:
   912  0070D0  6E43               	movwf	_Button_Menu_Up_State,c
   913                           
   914                           ;main.c: 385:     _delay((unsigned long)((1)*(20000000/4000.0)));
   915  0070D2  0E07               	movlw	7
   916  0070D4  6E3D               	movwf	??_Menu_In& (0+255),c
   917  0070D6  0E7D               	movlw	125
   918  0070D8                     u1727:
   919  0070D8  2EE8               	decfsz	wreg,f,c
   920  0070DA  D7FE               	bra	u1727
   921  0070DC  2E3D               	decfsz	??_Menu_In& (0+255),f,c
   922  0070DE  D7FC               	bra	u1727
   923  0070E0  F000               	nop	
   924                           
   925                           ;main.c: 386:     if (Button_Menu_Up_State == 0 && Last_Button_Menu_Up_State == 1) {
   926  0070E2  5043               	movf	_Button_Menu_Up_State,w,c
   927  0070E4  A4D8               	btfss	status,2,c
   928  0070E6  D022               	goto	l2963
   929  0070E8  0445               	decf	_Last_Button_Menu_Up_State,w,c
   930  0070EA  A4D8               	btfss	status,2,c
   931  0070EC  D01F               	goto	l2963
   932                           
   933                           ;main.c: 387:         Toggle_Up = 1;
   934  0070EE  0E01               	movlw	1
   935  0070F0  6E2F               	movwf	_Toggle_Up,c
   936                           
   937                           ;main.c: 388:         if (Toggle_Up == 1 && Toggle_Down == 1) {
   938  0070F2  042F               	decf	_Toggle_Up,w,c
   939  0070F4  A4D8               	btfss	status,2,c
   940  0070F6  D01A               	goto	l2963
   941  0070F8  042E               	decf	_Toggle_Down,w,c
   942  0070FA  A4D8               	btfss	status,2,c
   943  0070FC  D017               	goto	l2963
   944                           
   945                           ;main.c: 389:             Flag_Menu = 1;
   946  0070FE  0E01               	movlw	1
   947  007100  6E2D               	movwf	_Flag_Menu,c
   948                           
   949                           ;main.c: 390:             Toggle_Up = 0;
   950  007102  0E00               	movlw	0
   951  007104  6E2F               	movwf	_Toggle_Up,c
   952                           
   953                           ;main.c: 391:             Toggle_Down = 0;
   954  007106  0E00               	movlw	0
   955  007108  6E2E               	movwf	_Toggle_Down,c
   956                           
   957                           ;main.c: 392:             Count_Push_Button = 0;
   958  00710A  0E00               	movlw	0
   959  00710C  6E26               	movwf	_Count_Push_Button+1,c
   960  00710E  0E00               	movlw	0
   961  007110  6E25               	movwf	_Count_Push_Button,c
   962                           
   963                           ;main.c: 393:             _delay((unsigned long)((300)*(20000000/4000.0)));
   964  007112  0E08               	movlw	8
   965  007114  6E3E               	movwf	(??_Menu_In+1)& (0+255),c
   966  007116  0E9D               	movlw	157
   967  007118  6E3D               	movwf	??_Menu_In& (0+255),c
   968  00711A  0E06               	movlw	6
   969  00711C                     u1737:
   970  00711C  2EE8               	decfsz	wreg,f,c
   971  00711E  D7FE               	bra	u1737
   972  007120  2E3D               	decfsz	??_Menu_In& (0+255),f,c
   973  007122  D7FC               	bra	u1737
   974  007124  2E3E               	decfsz	(??_Menu_In+1)& (0+255),f,c
   975  007126  D7FA               	bra	u1737
   976                           
   977                           ;main.c: 394:             Menu();
   978  007128  ECB2  F039         	call	_Menu	;wreg free
   979  00712C                     l2963:
   980                           
   981                           ;main.c: 397:     Last_Button_Menu_Up_State = Button_Menu_Up_State;
   982  00712C  C043  F045         	movff	_Button_Menu_Up_State,_Last_Button_Menu_Up_State
   983                           
   984                           ;main.c: 399:     Button_Menu_Down_State = PORTCbits.RC0;
   985  007130  A082               	btfss	3970,0,c	;volatile
   986  007132  D002               	goto	u1340
   987  007134  0E01               	movlw	1
   988  007136  D001               	goto	u1346
   989  007138                     u1340:
   990  007138  0E00               	movlw	0
   991  00713A                     u1346:
   992  00713A  6E30               	movwf	_Button_Menu_Down_State,c
   993                           
   994                           ;main.c: 400:     _delay((unsigned long)((1)*(20000000/4000.0)));
   995  00713C  0E07               	movlw	7
   996  00713E  6E3D               	movwf	??_Menu_In& (0+255),c
   997  007140  0E7D               	movlw	125
   998  007142                     u1747:
   999  007142  2EE8               	decfsz	wreg,f,c
  1000  007144  D7FE               	bra	u1747
  1001  007146  2E3D               	decfsz	??_Menu_In& (0+255),f,c
  1002  007148  D7FC               	bra	u1747
  1003  00714A  F000               	nop	
  1004                           
  1005                           ;main.c: 401:     if (Button_Menu_Down_State == 0 && Last_Button_Menu_Down_State == 1) {
  1006  00714C  5030               	movf	_Button_Menu_Down_State,w,c
  1007  00714E  A4D8               	btfss	status,2,c
  1008  007150  D022               	goto	l2985
  1009  007152  0444               	decf	_Last_Button_Menu_Down_State,w,c
  1010  007154  A4D8               	btfss	status,2,c
  1011  007156  D01F               	goto	l2985
  1012                           
  1013                           ;main.c: 402:         Toggle_Down = 1;
  1014  007158  0E01               	movlw	1
  1015  00715A  6E2E               	movwf	_Toggle_Down,c
  1016                           
  1017                           ;main.c: 403:         if (Toggle_Down == 1 && Toggle_Up == 1) {
  1018  00715C  042E               	decf	_Toggle_Down,w,c
  1019  00715E  A4D8               	btfss	status,2,c
  1020  007160  D01A               	goto	l2985
  1021  007162  042F               	decf	_Toggle_Up,w,c
  1022  007164  A4D8               	btfss	status,2,c
  1023  007166  D017               	goto	l2985
  1024                           
  1025                           ;main.c: 404:             Flag_Menu = 1;
  1026  007168  0E01               	movlw	1
  1027  00716A  6E2D               	movwf	_Flag_Menu,c
  1028                           
  1029                           ;main.c: 405:             Toggle_Down = 0;
  1030  00716C  0E00               	movlw	0
  1031  00716E  6E2E               	movwf	_Toggle_Down,c
  1032                           
  1033                           ;main.c: 406:             Toggle_Up = 0;
  1034  007170  0E00               	movlw	0
  1035  007172  6E2F               	movwf	_Toggle_Up,c
  1036                           
  1037                           ;main.c: 407:             Count_Push_Button = 0;
  1038  007174  0E00               	movlw	0
  1039  007176  6E26               	movwf	_Count_Push_Button+1,c
  1040  007178  0E00               	movlw	0
  1041  00717A  6E25               	movwf	_Count_Push_Button,c
  1042                           
  1043                           ;main.c: 408:             _delay((unsigned long)((300)*(20000000/4000.0)));
  1044  00717C  0E08               	movlw	8
  1045  00717E  6E3E               	movwf	(??_Menu_In+1)& (0+255),c
  1046  007180  0E9D               	movlw	157
  1047  007182  6E3D               	movwf	??_Menu_In& (0+255),c
  1048  007184  0E06               	movlw	6
  1049  007186                     u1757:
  1050  007186  2EE8               	decfsz	wreg,f,c
  1051  007188  D7FE               	bra	u1757
  1052  00718A  2E3D               	decfsz	??_Menu_In& (0+255),f,c
  1053  00718C  D7FC               	bra	u1757
  1054  00718E  2E3E               	decfsz	(??_Menu_In+1)& (0+255),f,c
  1055  007190  D7FA               	bra	u1757
  1056                           
  1057                           ;main.c: 409:             Menu();
  1058  007192  ECB2  F039         	call	_Menu	;wreg free
  1059  007196                     l2985:
  1060                           
  1061                           ;main.c: 412:     Last_Button_Menu_Down_State = Button_Menu_Down_State;
  1062  007196  C030  F044         	movff	_Button_Menu_Down_State,_Last_Button_Menu_Down_State
  1063  00719A  0012               	return		;funcret
  1064  00719C                     __end_of_Menu_In:
  1065                           	opt callstack 0
  1066                           
  1067 ;; *************** function _Menu *****************
  1068 ;; Defined at:
  1069 ;;		line 415 in file "main.c"
  1070 ;; Parameters:    Size  Location     Type
  1071 ;;		None
  1072 ;; Auto vars:     Size  Location     Type
  1073 ;;		None
  1074 ;; Return value:  Size  Location     Type
  1075 ;;                  1    wreg      void 
  1076 ;; Registers used:
  1077 ;;		wreg, status,2, status,0, cstack
  1078 ;; Tracked objects:
  1079 ;;		On entry : 0/0
  1080 ;;		On exit  : 0/0
  1081 ;;		Unchanged: 0/0
  1082 ;; Data sizes:     COMRAM   BANK0   BANK1   BANK2   BANK3   BANK4   BANK5   BANK6   BANK7
  1083 ;;      Params:         0       0       0       0       0       0       0       0       0
  1084 ;;      Locals:         0       0       0       0       0       0       0       0       0
  1085 ;;      Temps:          2       0       0       0       0       0       0       0       0
  1086 ;;      Totals:         2       0       0       0       0       0       0       0       0
  1087 ;;Total ram usage:        2 bytes
  1088 ;; Hardware stack levels used:    1
  1089 ;; Hardware stack levels required when called:    3
  1090 ;; This function calls:
  1091 ;;		_Draw_P1
  1092 ;;		_Draw_P2
  1093 ;;		_Draw_P3
  1094 ;;		_Draw_P4
  1095 ;;		_Exit_Time_Menu
  1096 ;;		_Menu_P1
  1097 ;;		_Menu_P2
  1098 ;;		_Menu_P3
  1099 ;;		_Menu_P4
  1100 ;; This function is called by:
  1101 ;;		_Menu_In
  1102 ;; This function uses a non-reentrant model
  1103 ;;
  1104                           
  1105                           	psect	text3
  1106  007364                     __ptext3:
  1107                           	opt callstack 0
  1108  007364                     _Menu:
  1109                           	opt callstack 26
  1110                           
  1111                           ;main.c: 417:         switch (Count_Push_Button)
  1112                           
  1113                           ;incstack = 0
  1114                           ;main.c: 416:     do {
  1115  007364  D011               	goto	l2873
  1116  007366                     l2861:
  1117                           
  1118                           ;main.c: 420:             Draw_P1();
  1119  007366  EC37  F035         	call	_Draw_P1	;wreg free
  1120                           
  1121                           ;main.c: 421:             break;
  1122  00736A  D024               	goto	l2875
  1123  00736C                     l2863:
  1124                           
  1125                           ;main.c: 423:             Draw_P2();
  1126  00736C  EC50  F035         	call	_Draw_P2	;wreg free
  1127                           
  1128                           ;main.c: 424:             break;
  1129  007370  D021               	goto	l2875
  1130  007372                     l2865:
  1131                           
  1132                           ;main.c: 426:             Draw_P3();
  1133  007372  EC69  F035         	call	_Draw_P3	;wreg free
  1134                           
  1135                           ;main.c: 427:             break;
  1136  007376  D01E               	goto	l2875
  1137  007378                     l2867:
  1138                           
  1139                           ;main.c: 429:             Draw_P4();
  1140  007378  EC82  F035         	call	_Draw_P4	;wreg free
  1141                           
  1142                           ;main.c: 430:             break;
  1143  00737C  D01B               	goto	l2875
  1144  00737E                     l2869:
  1145                           
  1146                           ;main.c: 432:             Count_Push_Button = 0;
  1147  00737E  0E00               	movlw	0
  1148  007380  6E26               	movwf	_Count_Push_Button+1,c
  1149  007382  0E00               	movlw	0
  1150  007384  6E25               	movwf	_Count_Push_Button,c
  1151                           
  1152                           ;main.c: 433:             break;
  1153  007386  D016               	goto	l2875
  1154  007388                     l2873:
  1155  007388  C025  F03B         	movff	_Count_Push_Button,??_Menu
  1156  00738C  C026  F03C         	movff	_Count_Push_Button+1,??_Menu+1
  1157                           
  1158                           ; Switch on 2 bytes has been partitioned into a top level switch of size 1, and 1 sub-sw
      +                          itches
  1159                           ; Switch size 1, requested type "simple"
  1160                           ; Number of cases is 1, Range of values is 0 to 0
  1161                           ; switch strategies available:
  1162                           ; Name         Instructions Cycles
  1163                           ; simple_byte            4     3 (average)
  1164                           ;	Chosen strategy is simple_byte
  1165  007390  503C               	movf	??_Menu+1,w,c
  1166  007392  0A00               	xorlw	0	; case 0
  1167  007394  A4D8               	btfss	status,2,c
  1168  007396  D7F3               	goto	l2869
  1169                           
  1170                           ; Switch size 1, requested type "simple"
  1171                           ; Number of cases is 4, Range of values is 0 to 3
  1172                           ; switch strategies available:
  1173                           ; Name         Instructions Cycles
  1174                           ; simple_byte           13     7 (average)
  1175                           ;	Chosen strategy is simple_byte
  1176  007398  503B               	movf	??_Menu,w,c
  1177  00739A  0A00               	xorlw	0	; case 0
  1178  00739C  B4D8               	btfsc	status,2,c
  1179  00739E  D7E3               	goto	l2861
  1180  0073A0  0A01               	xorlw	1	; case 1
  1181  0073A2  B4D8               	btfsc	status,2,c
  1182  0073A4  D7E3               	goto	l2863
  1183  0073A6  0A03               	xorlw	3	; case 2
  1184  0073A8  B4D8               	btfsc	status,2,c
  1185  0073AA  D7E3               	goto	l2865
  1186  0073AC  0A01               	xorlw	1	; case 3
  1187  0073AE  B4D8               	btfsc	status,2,c
  1188  0073B0  D7E3               	goto	l2867
  1189  0073B2  D7E5               	goto	l2869
  1190  0073B4                     l2875:
  1191                           
  1192                           ;main.c: 436:         Button_Menu_Down_State = PORTCbits.RC0;
  1193  0073B4  A082               	btfss	3970,0,c	;volatile
  1194  0073B6  D002               	goto	u1220
  1195  0073B8  0E01               	movlw	1
  1196  0073BA  D001               	goto	u1226
  1197  0073BC                     u1220:
  1198  0073BC  0E00               	movlw	0
  1199  0073BE                     u1226:
  1200  0073BE  6E30               	movwf	_Button_Menu_Down_State,c
  1201                           
  1202                           ;main.c: 437:         if (Button_Menu_Down_State == 0 && Last_Button_Menu_Down_State == 
      +                          1) {
  1203  0073C0  5030               	movf	_Button_Menu_Down_State,w,c
  1204  0073C2  A4D8               	btfss	status,2,c
  1205  0073C4  D00D               	goto	l2883
  1206  0073C6  0444               	decf	_Last_Button_Menu_Down_State,w,c
  1207  0073C8  A4D8               	btfss	status,2,c
  1208  0073CA  D00A               	goto	l2883
  1209                           
  1210                           ;main.c: 438:             Count_Push_Button++;
  1211  0073CC  4A25               	infsnz	_Count_Push_Button,f,c
  1212  0073CE  2A26               	incf	_Count_Push_Button+1,f,c
  1213                           
  1214                           ;main.c: 439:             Count_Exit_Menu = 0;
  1215  0073D0  0E00               	movlw	0
  1216  0073D2  6E11               	movwf	_Count_Exit_Menu,c
  1217  0073D4  0E00               	movlw	0
  1218  0073D6  6E12               	movwf	_Count_Exit_Menu+1,c
  1219  0073D8  0E00               	movlw	0
  1220  0073DA  6E13               	movwf	_Count_Exit_Menu+2,c
  1221  0073DC  0E00               	movlw	0
  1222  0073DE  6E14               	movwf	_Count_Exit_Menu+3,c
  1223  0073E0                     l2883:
  1224                           
  1225                           ;main.c: 441:         Last_Button_Menu_Down_State = Button_Menu_Down_State;
  1226  0073E0  C030  F044         	movff	_Button_Menu_Down_State,_Last_Button_Menu_Down_State
  1227                           
  1228                           ;main.c: 444:         Button_Menu_Up_State = PORTAbits.RA5;
  1229  0073E4  AA80               	btfss	3968,5,c	;volatile
  1230  0073E6  D002               	goto	u1250
  1231  0073E8  0E01               	movlw	1
  1232  0073EA  D001               	goto	u1256
  1233  0073EC                     u1250:
  1234  0073EC  0E00               	movlw	0
  1235  0073EE                     u1256:
  1236  0073EE  6E43               	movwf	_Button_Menu_Up_State,c
  1237                           
  1238                           ;main.c: 445:         if (Button_Menu_Up_State == 0 && Last_Button_Menu_Up_State == 1) {
  1239  0073F0  5043               	movf	_Button_Menu_Up_State,w,c
  1240  0073F2  A4D8               	btfss	status,2,c
  1241  0073F4  D07A               	goto	l257
  1242  0073F6  0445               	decf	_Last_Button_Menu_Up_State,w,c
  1243  0073F8  A4D8               	btfss	status,2,c
  1244  0073FA  D077               	goto	l257
  1245                           
  1246                           ;main.c: 446:             Count_Exit_Menu = 0;
  1247  0073FC  0E00               	movlw	0
  1248  0073FE  6E11               	movwf	_Count_Exit_Menu,c
  1249  007400  0E00               	movlw	0
  1250  007402  6E12               	movwf	_Count_Exit_Menu+1,c
  1251  007404  0E00               	movlw	0
  1252  007406  6E13               	movwf	_Count_Exit_Menu+2,c
  1253  007408  0E00               	movlw	0
  1254  00740A  6E14               	movwf	_Count_Exit_Menu+3,c
  1255                           
  1256                           ;main.c: 447:             switch (Count_Push_Button)
  1257  00740C  D058               	goto	l2923
  1258  00740E                     l2893:
  1259                           
  1260                           ;main.c: 450:                 Count_Push_Button = 0;
  1261  00740E  0E00               	movlw	0
  1262  007410  6E26               	movwf	_Count_Push_Button+1,c
  1263  007412  0E00               	movlw	0
  1264  007414  6E25               	movwf	_Count_Push_Button,c
  1265                           
  1266                           ;main.c: 451:                 _delay((unsigned long)((300)*(20000000/4000.0)));
  1267  007416  0E08               	movlw	8
  1268  007418  6E3C               	movwf	(??_Menu+1)& (0+255),c
  1269  00741A  0E9D               	movlw	157
  1270  00741C  6E3B               	movwf	??_Menu& (0+255),c
  1271  00741E  0E06               	movlw	6
  1272  007420                     u1767:
  1273  007420  2EE8               	decfsz	wreg,f,c
  1274  007422  D7FE               	bra	u1767
  1275  007424  2E3B               	decfsz	??_Menu& (0+255),f,c
  1276  007426  D7FC               	bra	u1767
  1277  007428  2E3C               	decfsz	(??_Menu+1)& (0+255),f,c
  1278  00742A  D7FA               	bra	u1767
  1279                           
  1280                           ;main.c: 452:                 Menu_P1();
  1281  00742C  ECCE  F038         	call	_Menu_P1	;wreg free
  1282                           
  1283                           ;main.c: 453:                 break;
  1284  007430  D05C               	goto	l257
  1285  007432                     l2899:
  1286                           
  1287                           ;main.c: 455:                 Count_Push_Button = 0;
  1288  007432  0E00               	movlw	0
  1289  007434  6E26               	movwf	_Count_Push_Button+1,c
  1290  007436  0E00               	movlw	0
  1291  007438  6E25               	movwf	_Count_Push_Button,c
  1292                           
  1293                           ;main.c: 456:                 _delay((unsigned long)((300)*(20000000/4000.0)));
  1294  00743A  0E08               	movlw	8
  1295  00743C  6E3C               	movwf	(??_Menu+1)& (0+255),c
  1296  00743E  0E9D               	movlw	157
  1297  007440  6E3B               	movwf	??_Menu& (0+255),c
  1298  007442  0E06               	movlw	6
  1299  007444                     u1777:
  1300  007444  2EE8               	decfsz	wreg,f,c
  1301  007446  D7FE               	bra	u1777
  1302  007448  2E3B               	decfsz	??_Menu& (0+255),f,c
  1303  00744A  D7FC               	bra	u1777
  1304  00744C  2E3C               	decfsz	(??_Menu+1)& (0+255),f,c
  1305  00744E  D7FA               	bra	u1777
  1306                           
  1307                           ;main.c: 457:                 Menu_P2();
  1308  007450  EC65  F03B         	call	_Menu_P2	;wreg free
  1309                           
  1310                           ;main.c: 458:                 break;
  1311  007454  D04A               	goto	l257
  1312  007456                     l2905:
  1313                           
  1314                           ;main.c: 460:                 Count_Push_Button = 0;
  1315  007456  0E00               	movlw	0
  1316  007458  6E26               	movwf	_Count_Push_Button+1,c
  1317  00745A  0E00               	movlw	0
  1318  00745C  6E25               	movwf	_Count_Push_Button,c
  1319                           
  1320                           ;main.c: 461:                 _delay((unsigned long)((300)*(20000000/4000.0)));
  1321  00745E  0E08               	movlw	8
  1322  007460  6E3C               	movwf	(??_Menu+1)& (0+255),c
  1323  007462  0E9D               	movlw	157
  1324  007464  6E3B               	movwf	??_Menu& (0+255),c
  1325  007466  0E06               	movlw	6
  1326  007468                     u1787:
  1327  007468  2EE8               	decfsz	wreg,f,c
  1328  00746A  D7FE               	bra	u1787
  1329  00746C  2E3B               	decfsz	??_Menu& (0+255),f,c
  1330  00746E  D7FC               	bra	u1787
  1331  007470  2E3C               	decfsz	(??_Menu+1)& (0+255),f,c
  1332  007472  D7FA               	bra	u1787
  1333                           
  1334                           ;main.c: 462:                 Menu_P3();
  1335  007474  EC40  F039         	call	_Menu_P3	;wreg free
  1336                           
  1337                           ;main.c: 463:                 break;
  1338  007478  D038               	goto	l257
  1339  00747A                     l2911:
  1340                           
  1341                           ;main.c: 465:                 Count_Push_Button = 0;
  1342  00747A  0E00               	movlw	0
  1343  00747C  6E26               	movwf	_Count_Push_Button+1,c
  1344  00747E  0E00               	movlw	0
  1345  007480  6E25               	movwf	_Count_Push_Button,c
  1346                           
  1347                           ;main.c: 466:                 _delay((unsigned long)((300)*(20000000/4000.0)));
  1348  007482  0E08               	movlw	8
  1349  007484  6E3C               	movwf	(??_Menu+1)& (0+255),c
  1350  007486  0E9D               	movlw	157
  1351  007488  6E3B               	movwf	??_Menu& (0+255),c
  1352  00748A  0E06               	movlw	6
  1353  00748C                     u1797:
  1354  00748C  2EE8               	decfsz	wreg,f,c
  1355  00748E  D7FE               	bra	u1797
  1356  007490  2E3B               	decfsz	??_Menu& (0+255),f,c
  1357  007492  D7FC               	bra	u1797
  1358  007494  2E3C               	decfsz	(??_Menu+1)& (0+255),f,c
  1359  007496  D7FA               	bra	u1797
  1360                           
  1361                           ;main.c: 467:                 Menu_P4();
  1362  007498  ECD3  F03C         	call	_Menu_P4	;wreg free
  1363                           
  1364                           ;main.c: 468:                 break;
  1365  00749C  D026               	goto	l257
  1366  00749E                     l2917:
  1367                           
  1368                           ;main.c: 470:                 Count_Push_Button = 0;
  1369  00749E  0E00               	movlw	0
  1370  0074A0  6E26               	movwf	_Count_Push_Button+1,c
  1371  0074A2  0E00               	movlw	0
  1372  0074A4  6E25               	movwf	_Count_Push_Button,c
  1373                           
  1374                           ;main.c: 471:                 _delay((unsigned long)((300)*(20000000/4000.0)));
  1375  0074A6  0E08               	movlw	8
  1376  0074A8  6E3C               	movwf	(??_Menu+1)& (0+255),c
  1377  0074AA  0E9D               	movlw	157
  1378  0074AC  6E3B               	movwf	??_Menu& (0+255),c
  1379  0074AE  0E06               	movlw	6
  1380  0074B0                     u1807:
  1381  0074B0  2EE8               	decfsz	wreg,f,c
  1382  0074B2  D7FE               	bra	u1807
  1383  0074B4  2E3B               	decfsz	??_Menu& (0+255),f,c
  1384  0074B6  D7FC               	bra	u1807
  1385  0074B8  2E3C               	decfsz	(??_Menu+1)& (0+255),f,c
  1386  0074BA  D7FA               	bra	u1807
  1387                           
  1388                           ;main.c: 472:                 break;
  1389  0074BC  D016               	goto	l257
  1390  0074BE                     l2923:
  1391  0074BE  C025  F03B         	movff	_Count_Push_Button,??_Menu
  1392  0074C2  C026  F03C         	movff	_Count_Push_Button+1,??_Menu+1
  1393                           
  1394                           ; Switch on 2 bytes has been partitioned into a top level switch of size 1, and 1 sub-sw
      +                          itches
  1395                           ; Switch size 1, requested type "simple"
  1396                           ; Number of cases is 1, Range of values is 0 to 0
  1397                           ; switch strategies available:
  1398                           ; Name         Instructions Cycles
  1399                           ; simple_byte            4     3 (average)
  1400                           ;	Chosen strategy is simple_byte
  1401  0074C6  503C               	movf	??_Menu+1,w,c
  1402  0074C8  0A00               	xorlw	0	; case 0
  1403  0074CA  A4D8               	btfss	status,2,c
  1404  0074CC  D7E8               	goto	l2917
  1405                           
  1406                           ; Switch size 1, requested type "simple"
  1407                           ; Number of cases is 4, Range of values is 0 to 3
  1408                           ; switch strategies available:
  1409                           ; Name         Instructions Cycles
  1410                           ; simple_byte           13     7 (average)
  1411                           ;	Chosen strategy is simple_byte
  1412  0074CE  503B               	movf	??_Menu,w,c
  1413  0074D0  0A00               	xorlw	0	; case 0
  1414  0074D2  B4D8               	btfsc	status,2,c
  1415  0074D4  D79C               	goto	l2893
  1416  0074D6  0A01               	xorlw	1	; case 1
  1417  0074D8  B4D8               	btfsc	status,2,c
  1418  0074DA  D7AB               	goto	l2899
  1419  0074DC  0A03               	xorlw	3	; case 2
  1420  0074DE  B4D8               	btfsc	status,2,c
  1421  0074E0  D7BA               	goto	l2905
  1422  0074E2  0A01               	xorlw	1	; case 3
  1423  0074E4  B4D8               	btfsc	status,2,c
  1424  0074E6  D7C9               	goto	l2911
  1425  0074E8  D7DA               	goto	l2917
  1426  0074EA                     l257:
  1427                           
  1428                           ;main.c: 475:         Last_Button_Menu_Up_State = Button_Menu_Up_State;
  1429  0074EA  C043  F045         	movff	_Button_Menu_Up_State,_Last_Button_Menu_Up_State
  1430                           
  1431                           ;main.c: 476:         Exit_Time_Menu();
  1432  0074EE  EC5D  F037         	call	_Exit_Time_Menu	;wreg free
  1433                           
  1434                           ;main.c: 477:     } while(Flag_Menu == 1);
  1435  0074F2  042D               	decf	_Flag_Menu,w,c
  1436  0074F4  A4D8               	btfss	status,2,c
  1437  0074F6  0012               	return	
  1438  0074F8  D747               	goto	l2873
  1439  0074FA                     __end_of_Menu:
  1440                           	opt callstack 0
  1441                           
  1442 ;; *************** function _Menu_P4 *****************
  1443 ;; Defined at:
  1444 ;;		line 721 in file "main.c"
  1445 ;; Parameters:    Size  Location     Type
  1446 ;;		None
  1447 ;; Auto vars:     Size  Location     Type
  1448 ;;		None
  1449 ;; Return value:  Size  Location     Type
  1450 ;;                  1    wreg      void 
  1451 ;; Registers used:
  1452 ;;		wreg, status,2, status,0, cstack
  1453 ;; Tracked objects:
  1454 ;;		On entry : 0/0
  1455 ;;		On exit  : 0/0
  1456 ;;		Unchanged: 0/0
  1457 ;; Data sizes:     COMRAM   BANK0   BANK1   BANK2   BANK3   BANK4   BANK5   BANK6   BANK7
  1458 ;;      Params:         0       0       0       0       0       0       0       0       0
  1459 ;;      Locals:         0       0       0       0       0       0       0       0       0
  1460 ;;      Temps:          2       0       0       0       0       0       0       0       0
  1461 ;;      Totals:         2       0       0       0       0       0       0       0       0
  1462 ;;Total ram usage:        2 bytes
  1463 ;; Hardware stack levels used:    1
  1464 ;; Hardware stack levels required when called:    2
  1465 ;; This function calls:
  1466 ;;		_Draw_0
  1467 ;;		_Draw_1
  1468 ;;		_Draw_10
  1469 ;;		_Draw_11
  1470 ;;		_Draw_12
  1471 ;;		_Draw_13
  1472 ;;		_Draw_14
  1473 ;;		_Draw_15
  1474 ;;		_Draw_2
  1475 ;;		_Draw_3
  1476 ;;		_Draw_4
  1477 ;;		_Draw_5
  1478 ;;		_Draw_6
  1479 ;;		_Draw_7
  1480 ;;		_Draw_8
  1481 ;;		_Draw_9
  1482 ;;		_Exit_Time_Menu
  1483 ;;		_Recording
  1484 ;;		_eeprom_writex
  1485 ;; This function is called by:
  1486 ;;		_Menu
  1487 ;; This function uses a non-reentrant model
  1488 ;;
  1489                           
  1490                           	psect	text4
  1491  0079A6                     __ptext4:
  1492                           	opt callstack 0
  1493  0079A6                     _Menu_P4:
  1494                           	opt callstack 26
  1495                           
  1496                           ;main.c: 723:         switch (Count_Push_Button)
  1497                           
  1498                           ;incstack = 0
  1499                           ;main.c: 722:     do {
  1500  0079A6  D035               	goto	l2727
  1501  0079A8                     l2691:
  1502                           
  1503                           ;main.c: 726:             Draw_0();
  1504  0079A8  EC9B  F035         	call	_Draw_0	;wreg free
  1505                           
  1506                           ;main.c: 727:             break;
  1507  0079AC  D06C               	goto	l2729
  1508  0079AE                     l2693:
  1509                           
  1510                           ;main.c: 729:             Draw_1();
  1511  0079AE  ECB4  F035         	call	_Draw_1	;wreg free
  1512                           
  1513                           ;main.c: 730:             break;
  1514  0079B2  D069               	goto	l2729
  1515  0079B4                     l2695:
  1516                           
  1517                           ;main.c: 732:             Draw_2();
  1518  0079B4  EC95  F036         	call	_Draw_2	;wreg free
  1519                           
  1520                           ;main.c: 733:             break;
  1521  0079B8  D066               	goto	l2729
  1522  0079BA                     l2697:
  1523                           
  1524                           ;main.c: 735:             Draw_3();
  1525  0079BA  ECAE  F036         	call	_Draw_3	;wreg free
  1526                           
  1527                           ;main.c: 736:             break;
  1528  0079BE  D063               	goto	l2729
  1529  0079C0                     l2699:
  1530                           
  1531                           ;main.c: 738:             Draw_4();
  1532  0079C0  ECC7  F036         	call	_Draw_4	;wreg free
  1533                           
  1534                           ;main.c: 739:             break;
  1535  0079C4  D060               	goto	l2729
  1536  0079C6                     l2701:
  1537                           
  1538                           ;main.c: 741:             Draw_5();
  1539  0079C6  ECE0  F036         	call	_Draw_5	;wreg free
  1540                           
  1541                           ;main.c: 742:             break;
  1542  0079CA  D05D               	goto	l2729
  1543  0079CC                     l2703:
  1544                           
  1545                           ;main.c: 744:             Draw_6();
  1546  0079CC  ECF9  F036         	call	_Draw_6	;wreg free
  1547                           
  1548                           ;main.c: 745:             break;
  1549  0079D0  D05A               	goto	l2729
  1550  0079D2                     l2705:
  1551                           
  1552                           ;main.c: 747:             Draw_7();
  1553  0079D2  EC12  F037         	call	_Draw_7	;wreg free
  1554                           
  1555                           ;main.c: 748:             break;
  1556  0079D6  D057               	goto	l2729
  1557  0079D8                     l2707:
  1558                           
  1559                           ;main.c: 750:             Draw_8();
  1560  0079D8  EC2B  F037         	call	_Draw_8	;wreg free
  1561                           
  1562                           ;main.c: 751:             break;
  1563  0079DC  D054               	goto	l2729
  1564  0079DE                     l2709:
  1565                           
  1566                           ;main.c: 753:             Draw_9();
  1567  0079DE  EC44  F037         	call	_Draw_9	;wreg free
  1568                           
  1569                           ;main.c: 754:             break;
  1570  0079E2  D051               	goto	l2729
  1571  0079E4                     l2711:
  1572                           
  1573                           ;main.c: 756:             Draw_10();
  1574  0079E4  ECFF  F035         	call	_Draw_10	;wreg free
  1575                           
  1576                           ;main.c: 757:             break;
  1577  0079E8  D04E               	goto	l2729
  1578  0079EA                     l2713:
  1579                           
  1580                           ;main.c: 759:             Draw_11();
  1581  0079EA  EC18  F036         	call	_Draw_11	;wreg free
  1582                           
  1583                           ;main.c: 760:             break;
  1584  0079EE  D04B               	goto	l2729
  1585  0079F0                     l2715:
  1586                           
  1587                           ;main.c: 762:             Draw_12();
  1588  0079F0  EC31  F036         	call	_Draw_12	;wreg free
  1589                           
  1590                           ;main.c: 763:             break;
  1591  0079F4  D048               	goto	l2729
  1592  0079F6                     l2717:
  1593                           
  1594                           ;main.c: 765:             Draw_13();
  1595  0079F6  EC4A  F036         	call	_Draw_13	;wreg free
  1596                           
  1597                           ;main.c: 766:             break;
  1598  0079FA  D045               	goto	l2729
  1599  0079FC                     l2719:
  1600                           
  1601                           ;main.c: 768:             Draw_14();
  1602  0079FC  EC63  F036         	call	_Draw_14	;wreg free
  1603                           
  1604                           ;main.c: 769:             break;
  1605  007A00  D042               	goto	l2729
  1606  007A02                     l2721:
  1607                           
  1608                           ;main.c: 771:             Draw_15();
  1609  007A02  EC7C  F036         	call	_Draw_15	;wreg free
  1610                           
  1611                           ;main.c: 772:             break;
  1612  007A06  D03F               	goto	l2729
  1613  007A08                     l2723:
  1614                           
  1615                           ;main.c: 774:             Count_Push_Button = 0;
  1616  007A08  0E00               	movlw	0
  1617  007A0A  6E26               	movwf	_Count_Push_Button+1,c
  1618  007A0C  0E00               	movlw	0
  1619  007A0E  6E25               	movwf	_Count_Push_Button,c
  1620                           
  1621                           ;main.c: 775:             break;
  1622  007A10  D03A               	goto	l2729
  1623  007A12                     l2727:
  1624  007A12  C025  F039         	movff	_Count_Push_Button,??_Menu_P4
  1625  007A16  C026  F03A         	movff	_Count_Push_Button+1,??_Menu_P4+1
  1626                           
  1627                           ; Switch on 2 bytes has been partitioned into a top level switch of size 1, and 1 sub-sw
      +                          itches
  1628                           ; Switch size 1, requested type "simple"
  1629                           ; Number of cases is 1, Range of values is 0 to 0
  1630                           ; switch strategies available:
  1631                           ; Name         Instructions Cycles
  1632                           ; simple_byte            4     3 (average)
  1633                           ;	Chosen strategy is simple_byte
  1634  007A1A  503A               	movf	??_Menu_P4+1,w,c
  1635  007A1C  0A00               	xorlw	0	; case 0
  1636  007A1E  A4D8               	btfss	status,2,c
  1637  007A20  D7F3               	goto	l2723
  1638                           
  1639                           ; Switch size 1, requested type "simple"
  1640                           ; Number of cases is 16, Range of values is 0 to 15
  1641                           ; switch strategies available:
  1642                           ; Name         Instructions Cycles
  1643                           ; simple_byte           49    25 (average)
  1644                           ;	Chosen strategy is simple_byte
  1645  007A22  5039               	movf	??_Menu_P4,w,c
  1646  007A24  0A00               	xorlw	0	; case 0
  1647  007A26  B4D8               	btfsc	status,2,c
  1648  007A28  D7BF               	goto	l2691
  1649  007A2A  0A01               	xorlw	1	; case 1
  1650  007A2C  B4D8               	btfsc	status,2,c
  1651  007A2E  D7BF               	goto	l2693
  1652  007A30  0A03               	xorlw	3	; case 2
  1653  007A32  B4D8               	btfsc	status,2,c
  1654  007A34  D7BF               	goto	l2695
  1655  007A36  0A01               	xorlw	1	; case 3
  1656  007A38  B4D8               	btfsc	status,2,c
  1657  007A3A  D7BF               	goto	l2697
  1658  007A3C  0A07               	xorlw	7	; case 4
  1659  007A3E  B4D8               	btfsc	status,2,c
  1660  007A40  D7BF               	goto	l2699
  1661  007A42  0A01               	xorlw	1	; case 5
  1662  007A44  B4D8               	btfsc	status,2,c
  1663  007A46  D7BF               	goto	l2701
  1664  007A48  0A03               	xorlw	3	; case 6
  1665  007A4A  B4D8               	btfsc	status,2,c
  1666  007A4C  D7BF               	goto	l2703
  1667  007A4E  0A01               	xorlw	1	; case 7
  1668  007A50  B4D8               	btfsc	status,2,c
  1669  007A52  D7BF               	goto	l2705
  1670  007A54  0A0F               	xorlw	15	; case 8
  1671  007A56  B4D8               	btfsc	status,2,c
  1672  007A58  D7BF               	goto	l2707
  1673  007A5A  0A01               	xorlw	1	; case 9
  1674  007A5C  B4D8               	btfsc	status,2,c
  1675  007A5E  D7BF               	goto	l2709
  1676  007A60  0A03               	xorlw	3	; case 10
  1677  007A62  B4D8               	btfsc	status,2,c
  1678  007A64  D7BF               	goto	l2711
  1679  007A66  0A01               	xorlw	1	; case 11
  1680  007A68  B4D8               	btfsc	status,2,c
  1681  007A6A  D7BF               	goto	l2713
  1682  007A6C  0A07               	xorlw	7	; case 12
  1683  007A6E  B4D8               	btfsc	status,2,c
  1684  007A70  D7BF               	goto	l2715
  1685  007A72  0A01               	xorlw	1	; case 13
  1686  007A74  B4D8               	btfsc	status,2,c
  1687  007A76  D7BF               	goto	l2717
  1688  007A78  0A03               	xorlw	3	; case 14
  1689  007A7A  B4D8               	btfsc	status,2,c
  1690  007A7C  D7BF               	goto	l2719
  1691  007A7E  0A01               	xorlw	1	; case 15
  1692  007A80  B4D8               	btfsc	status,2,c
  1693  007A82  D7BF               	goto	l2721
  1694  007A84  D7C1               	goto	l2723
  1695  007A86                     l2729:
  1696                           
  1697                           ;main.c: 778:         Button_Menu_Down_State = PORTCbits.RC0;
  1698  007A86  A082               	btfss	3970,0,c	;volatile
  1699  007A88  D002               	goto	u1100
  1700  007A8A  0E01               	movlw	1
  1701  007A8C  D001               	goto	u1106
  1702  007A8E                     u1100:
  1703  007A8E  0E00               	movlw	0
  1704  007A90                     u1106:
  1705  007A90  6E30               	movwf	_Button_Menu_Down_State,c
  1706                           
  1707                           ;main.c: 779:         if (Button_Menu_Down_State == 0 && Last_Button_Menu_Down_State == 
      +                          1) {
  1708  007A92  5030               	movf	_Button_Menu_Down_State,w,c
  1709  007A94  A4D8               	btfss	status,2,c
  1710  007A96  D00D               	goto	l2737
  1711  007A98  0444               	decf	_Last_Button_Menu_Down_State,w,c
  1712  007A9A  A4D8               	btfss	status,2,c
  1713  007A9C  D00A               	goto	l2737
  1714                           
  1715                           ;main.c: 780:             Count_Push_Button++;
  1716  007A9E  4A25               	infsnz	_Count_Push_Button,f,c
  1717  007AA0  2A26               	incf	_Count_Push_Button+1,f,c
  1718                           
  1719                           ;main.c: 781:             Count_Exit_Menu = 0;
  1720  007AA2  0E00               	movlw	0
  1721  007AA4  6E11               	movwf	_Count_Exit_Menu,c
  1722  007AA6  0E00               	movlw	0
  1723  007AA8  6E12               	movwf	_Count_Exit_Menu+1,c
  1724  007AAA  0E00               	movlw	0
  1725  007AAC  6E13               	movwf	_Count_Exit_Menu+2,c
  1726  007AAE  0E00               	movlw	0
  1727  007AB0  6E14               	movwf	_Count_Exit_Menu+3,c
  1728  007AB2                     l2737:
  1729                           
  1730                           ;main.c: 783:         Last_Button_Menu_Down_State = Button_Menu_Down_State;
  1731  007AB2  C030  F044         	movff	_Button_Menu_Down_State,_Last_Button_Menu_Down_State
  1732                           
  1733                           ;main.c: 786:         Button_Menu_Up_State = PORTAbits.RA5;
  1734  007AB6  AA80               	btfss	3968,5,c	;volatile
  1735  007AB8  D002               	goto	u1130
  1736  007ABA  0E01               	movlw	1
  1737  007ABC  D001               	goto	u1136
  1738  007ABE                     u1130:
  1739  007ABE  0E00               	movlw	0
  1740  007AC0                     u1136:
  1741  007AC0  6E43               	movwf	_Button_Menu_Up_State,c
  1742                           
  1743                           ;main.c: 787:         if (Button_Menu_Up_State == 0 && Last_Button_Menu_Up_State == 1) {
  1744  007AC2  5043               	movf	_Button_Menu_Up_State,w,c
  1745  007AC4  A4D8               	btfss	status,2,c
  1746  007AC6  D0D5               	goto	l373
  1747  007AC8  0445               	decf	_Last_Button_Menu_Up_State,w,c
  1748  007ACA  B4D8               	btfsc	status,2,c
  1749  007ACC  D098               	goto	l2815
  1750  007ACE  D0D1               	goto	l373
  1751  007AD0                     l2747:
  1752                           
  1753                           ;main.c: 791:                 eeprom_writex(0x04, 0x00);
  1754  007AD0  0E00               	movlw	0
  1755  007AD2  6E37               	movwf	eeprom_writex@address+1,c
  1756  007AD4  0E04               	movlw	4
  1757  007AD6  6E36               	movwf	eeprom_writex@address,c
  1758  007AD8  0E00               	movlw	0
  1759  007ADA  6E38               	movwf	eeprom_writex@data,c
  1760  007ADC  ECEB  F034         	call	_eeprom_writex	;wreg free
  1761  007AE0                     l2749:
  1762                           
  1763                           ;main.c: 792:                 Recording();
  1764  007AE0  ECC9  F037         	call	_Recording	;wreg free
  1765                           
  1766                           ;main.c: 793:                 break;
  1767  007AE4  D0C6               	goto	l373
  1768  007AE6                     l2751:
  1769                           
  1770                           ;main.c: 795:                 eeprom_writex(0x04, 0x01);
  1771  007AE6  0E00               	movlw	0
  1772  007AE8  6E37               	movwf	eeprom_writex@address+1,c
  1773  007AEA  0E04               	movlw	4
  1774  007AEC  6E36               	movwf	eeprom_writex@address,c
  1775  007AEE  0E01               	movlw	1
  1776  007AF0  6E38               	movwf	eeprom_writex@data,c
  1777  007AF2  ECEB  F034         	call	_eeprom_writex	;wreg free
  1778  007AF6  D7F4               	goto	l2749
  1779  007AF8                     l2755:
  1780                           
  1781                           ;main.c: 799:                 eeprom_writex(0x04, 0x02);
  1782  007AF8  0E00               	movlw	0
  1783  007AFA  6E37               	movwf	eeprom_writex@address+1,c
  1784  007AFC  0E04               	movlw	4
  1785  007AFE  6E36               	movwf	eeprom_writex@address,c
  1786  007B00  0E02               	movlw	2
  1787  007B02  6E38               	movwf	eeprom_writex@data,c
  1788  007B04  ECEB  F034         	call	_eeprom_writex	;wreg free
  1789  007B08  D7EB               	goto	l2749
  1790  007B0A                     l2759:
  1791                           
  1792                           ;main.c: 803:                 eeprom_writex(0x04, 0x03);
  1793  007B0A  0E00               	movlw	0
  1794  007B0C  6E37               	movwf	eeprom_writex@address+1,c
  1795  007B0E  0E04               	movlw	4
  1796  007B10  6E36               	movwf	eeprom_writex@address,c
  1797  007B12  0E03               	movlw	3
  1798  007B14  6E38               	movwf	eeprom_writex@data,c
  1799  007B16  ECEB  F034         	call	_eeprom_writex	;wreg free
  1800  007B1A  D7E2               	goto	l2749
  1801  007B1C                     l2763:
  1802                           
  1803                           ;main.c: 807:                 eeprom_writex(0x04, 0x04);
  1804  007B1C  0E00               	movlw	0
  1805  007B1E  6E37               	movwf	eeprom_writex@address+1,c
  1806  007B20  0E04               	movlw	4
  1807  007B22  6E36               	movwf	eeprom_writex@address,c
  1808  007B24  0E04               	movlw	4
  1809  007B26  6E38               	movwf	eeprom_writex@data,c
  1810  007B28  ECEB  F034         	call	_eeprom_writex	;wreg free
  1811  007B2C  D7D9               	goto	l2749
  1812  007B2E                     l2767:
  1813                           
  1814                           ;main.c: 811:                 eeprom_writex(0x04, 0x05);
  1815  007B2E  0E00               	movlw	0
  1816  007B30  6E37               	movwf	eeprom_writex@address+1,c
  1817  007B32  0E04               	movlw	4
  1818  007B34  6E36               	movwf	eeprom_writex@address,c
  1819  007B36  0E05               	movlw	5
  1820  007B38  6E38               	movwf	eeprom_writex@data,c
  1821  007B3A  ECEB  F034         	call	_eeprom_writex	;wreg free
  1822  007B3E  D7D0               	goto	l2749
  1823  007B40                     l2771:
  1824                           
  1825                           ;main.c: 815:                 eeprom_writex(0x04, 0x06);
  1826  007B40  0E00               	movlw	0
  1827  007B42  6E37               	movwf	eeprom_writex@address+1,c
  1828  007B44  0E04               	movlw	4
  1829  007B46  6E36               	movwf	eeprom_writex@address,c
  1830  007B48  0E06               	movlw	6
  1831  007B4A  6E38               	movwf	eeprom_writex@data,c
  1832  007B4C  ECEB  F034         	call	_eeprom_writex	;wreg free
  1833  007B50  D7C7               	goto	l2749
  1834  007B52                     l2775:
  1835                           
  1836                           ;main.c: 819:                 eeprom_writex(0x04, 0x07);
  1837  007B52  0E00               	movlw	0
  1838  007B54  6E37               	movwf	eeprom_writex@address+1,c
  1839  007B56  0E04               	movlw	4
  1840  007B58  6E36               	movwf	eeprom_writex@address,c
  1841  007B5A  0E07               	movlw	7
  1842  007B5C  6E38               	movwf	eeprom_writex@data,c
  1843  007B5E  ECEB  F034         	call	_eeprom_writex	;wreg free
  1844  007B62  D7BE               	goto	l2749
  1845  007B64                     l2779:
  1846                           
  1847                           ;main.c: 823:                 eeprom_writex(0x04, 0x08);
  1848  007B64  0E00               	movlw	0
  1849  007B66  6E37               	movwf	eeprom_writex@address+1,c
  1850  007B68  0E04               	movlw	4
  1851  007B6A  6E36               	movwf	eeprom_writex@address,c
  1852  007B6C  0E08               	movlw	8
  1853  007B6E  6E38               	movwf	eeprom_writex@data,c
  1854  007B70  ECEB  F034         	call	_eeprom_writex	;wreg free
  1855  007B74  D7B5               	goto	l2749
  1856  007B76                     l2783:
  1857                           
  1858                           ;main.c: 827:                 eeprom_writex(0x04, 0x09);
  1859  007B76  0E00               	movlw	0
  1860  007B78  6E37               	movwf	eeprom_writex@address+1,c
  1861  007B7A  0E04               	movlw	4
  1862  007B7C  6E36               	movwf	eeprom_writex@address,c
  1863  007B7E  0E09               	movlw	9
  1864  007B80  6E38               	movwf	eeprom_writex@data,c
  1865  007B82  ECEB  F034         	call	_eeprom_writex	;wreg free
  1866  007B86  D7AC               	goto	l2749
  1867  007B88                     l2787:
  1868                           
  1869                           ;main.c: 831:                 eeprom_writex(0x04, 0x0A);
  1870  007B88  0E00               	movlw	0
  1871  007B8A  6E37               	movwf	eeprom_writex@address+1,c
  1872  007B8C  0E04               	movlw	4
  1873  007B8E  6E36               	movwf	eeprom_writex@address,c
  1874  007B90  0E0A               	movlw	10
  1875  007B92  6E38               	movwf	eeprom_writex@data,c
  1876  007B94  ECEB  F034         	call	_eeprom_writex	;wreg free
  1877  007B98  D7A3               	goto	l2749
  1878  007B9A                     l2791:
  1879                           
  1880                           ;main.c: 835:                 eeprom_writex(0x04, 0x0B);
  1881  007B9A  0E00               	movlw	0
  1882  007B9C  6E37               	movwf	eeprom_writex@address+1,c
  1883  007B9E  0E04               	movlw	4
  1884  007BA0  6E36               	movwf	eeprom_writex@address,c
  1885  007BA2  0E0B               	movlw	11
  1886  007BA4  6E38               	movwf	eeprom_writex@data,c
  1887  007BA6  ECEB  F034         	call	_eeprom_writex	;wreg free
  1888  007BAA  D79A               	goto	l2749
  1889  007BAC                     l2795:
  1890                           
  1891                           ;main.c: 839:                 eeprom_writex(0x04, 0x0C);
  1892  007BAC  0E00               	movlw	0
  1893  007BAE  6E37               	movwf	eeprom_writex@address+1,c
  1894  007BB0  0E04               	movlw	4
  1895  007BB2  6E36               	movwf	eeprom_writex@address,c
  1896  007BB4  0E0C               	movlw	12
  1897  007BB6  6E38               	movwf	eeprom_writex@data,c
  1898  007BB8  ECEB  F034         	call	_eeprom_writex	;wreg free
  1899  007BBC  D791               	goto	l2749
  1900  007BBE                     l2799:
  1901                           
  1902                           ;main.c: 843:                 eeprom_writex(0x04, 0x0D);
  1903  007BBE  0E00               	movlw	0
  1904  007BC0  6E37               	movwf	eeprom_writex@address+1,c
  1905  007BC2  0E04               	movlw	4
  1906  007BC4  6E36               	movwf	eeprom_writex@address,c
  1907  007BC6  0E0D               	movlw	13
  1908  007BC8  6E38               	movwf	eeprom_writex@data,c
  1909  007BCA  ECEB  F034         	call	_eeprom_writex	;wreg free
  1910  007BCE  D788               	goto	l2749
  1911  007BD0                     l2803:
  1912                           
  1913                           ;main.c: 847:                 eeprom_writex(0x04, 0x0E);
  1914  007BD0  0E00               	movlw	0
  1915  007BD2  6E37               	movwf	eeprom_writex@address+1,c
  1916  007BD4  0E04               	movlw	4
  1917  007BD6  6E36               	movwf	eeprom_writex@address,c
  1918  007BD8  0E0E               	movlw	14
  1919  007BDA  6E38               	movwf	eeprom_writex@data,c
  1920  007BDC  ECEB  F034         	call	_eeprom_writex	;wreg free
  1921  007BE0  D77F               	goto	l2749
  1922  007BE2                     l2807:
  1923                           
  1924                           ;main.c: 851:                 eeprom_writex(0x04, 0x0F);
  1925  007BE2  0E00               	movlw	0
  1926  007BE4  6E37               	movwf	eeprom_writex@address+1,c
  1927  007BE6  0E04               	movlw	4
  1928  007BE8  6E36               	movwf	eeprom_writex@address,c
  1929  007BEA  0E0F               	movlw	15
  1930  007BEC  6E38               	movwf	eeprom_writex@data,c
  1931  007BEE  ECEB  F034         	call	_eeprom_writex	;wreg free
  1932  007BF2  D776               	goto	l2749
  1933  007BF4                     l2811:
  1934                           
  1935                           ;main.c: 855:                 Count_Push_Button = 0;
  1936  007BF4  0E00               	movlw	0
  1937  007BF6  6E26               	movwf	_Count_Push_Button+1,c
  1938  007BF8  0E00               	movlw	0
  1939  007BFA  6E25               	movwf	_Count_Push_Button,c
  1940                           
  1941                           ;main.c: 856:                 break;
  1942  007BFC  D03A               	goto	l373
  1943  007BFE                     l2815:
  1944  007BFE  C025  F039         	movff	_Count_Push_Button,??_Menu_P4
  1945  007C02  C026  F03A         	movff	_Count_Push_Button+1,??_Menu_P4+1
  1946                           
  1947                           ; Switch on 2 bytes has been partitioned into a top level switch of size 1, and 1 sub-sw
      +                          itches
  1948                           ; Switch size 1, requested type "simple"
  1949                           ; Number of cases is 1, Range of values is 0 to 0
  1950                           ; switch strategies available:
  1951                           ; Name         Instructions Cycles
  1952                           ; simple_byte            4     3 (average)
  1953                           ;	Chosen strategy is simple_byte
  1954  007C06  503A               	movf	??_Menu_P4+1,w,c
  1955  007C08  0A00               	xorlw	0	; case 0
  1956  007C0A  A4D8               	btfss	status,2,c
  1957  007C0C  D7F3               	goto	l2811
  1958                           
  1959                           ; Switch size 1, requested type "simple"
  1960                           ; Number of cases is 16, Range of values is 0 to 15
  1961                           ; switch strategies available:
  1962                           ; Name         Instructions Cycles
  1963                           ; simple_byte           49    25 (average)
  1964                           ;	Chosen strategy is simple_byte
  1965  007C0E  5039               	movf	??_Menu_P4,w,c
  1966  007C10  0A00               	xorlw	0	; case 0
  1967  007C12  B4D8               	btfsc	status,2,c
  1968  007C14  D75D               	goto	l2747
  1969  007C16  0A01               	xorlw	1	; case 1
  1970  007C18  B4D8               	btfsc	status,2,c
  1971  007C1A  D765               	goto	l2751
  1972  007C1C  0A03               	xorlw	3	; case 2
  1973  007C1E  B4D8               	btfsc	status,2,c
  1974  007C20  D76B               	goto	l2755
  1975  007C22  0A01               	xorlw	1	; case 3
  1976  007C24  B4D8               	btfsc	status,2,c
  1977  007C26  D771               	goto	l2759
  1978  007C28  0A07               	xorlw	7	; case 4
  1979  007C2A  B4D8               	btfsc	status,2,c
  1980  007C2C  D777               	goto	l2763
  1981  007C2E  0A01               	xorlw	1	; case 5
  1982  007C30  B4D8               	btfsc	status,2,c
  1983  007C32  D77D               	goto	l2767
  1984  007C34  0A03               	xorlw	3	; case 6
  1985  007C36  B4D8               	btfsc	status,2,c
  1986  007C38  D783               	goto	l2771
  1987  007C3A  0A01               	xorlw	1	; case 7
  1988  007C3C  B4D8               	btfsc	status,2,c
  1989  007C3E  D789               	goto	l2775
  1990  007C40  0A0F               	xorlw	15	; case 8
  1991  007C42  B4D8               	btfsc	status,2,c
  1992  007C44  D78F               	goto	l2779
  1993  007C46  0A01               	xorlw	1	; case 9
  1994  007C48  B4D8               	btfsc	status,2,c
  1995  007C4A  D795               	goto	l2783
  1996  007C4C  0A03               	xorlw	3	; case 10
  1997  007C4E  B4D8               	btfsc	status,2,c
  1998  007C50  D79B               	goto	l2787
  1999  007C52  0A01               	xorlw	1	; case 11
  2000  007C54  B4D8               	btfsc	status,2,c
  2001  007C56  D7A1               	goto	l2791
  2002  007C58  0A07               	xorlw	7	; case 12
  2003  007C5A  B4D8               	btfsc	status,2,c
  2004  007C5C  D7A7               	goto	l2795
  2005  007C5E  0A01               	xorlw	1	; case 13
  2006  007C60  B4D8               	btfsc	status,2,c
  2007  007C62  D7AD               	goto	l2799
  2008  007C64  0A03               	xorlw	3	; case 14
  2009  007C66  B4D8               	btfsc	status,2,c
  2010  007C68  D7B3               	goto	l2803
  2011  007C6A  0A01               	xorlw	1	; case 15
  2012  007C6C  B4D8               	btfsc	status,2,c
  2013  007C6E  D7B9               	goto	l2807
  2014  007C70  D7C1               	goto	l2811
  2015  007C72                     l373:
  2016                           
  2017                           ;main.c: 859:         Last_Button_Menu_Up_State = Button_Menu_Up_State;
  2018  007C72  C043  F045         	movff	_Button_Menu_Up_State,_Last_Button_Menu_Up_State
  2019                           
  2020                           ;main.c: 860:         Exit_Time_Menu();
  2021  007C76  EC5D  F037         	call	_Exit_Time_Menu	;wreg free
  2022                           
  2023                           ;main.c: 861:     } while (Flag_Menu == 1);
  2024  007C7A  042D               	decf	_Flag_Menu,w,c
  2025  007C7C  A4D8               	btfss	status,2,c
  2026  007C7E  0012               	return	
  2027  007C80  D6C8               	goto	l2727
  2028  007C82                     __end_of_Menu_P4:
  2029                           	opt callstack 0
  2030                           
  2031 ;; *************** function _Menu_P3 *****************
  2032 ;; Defined at:
  2033 ;;		line 676 in file "main.c"
  2034 ;; Parameters:    Size  Location     Type
  2035 ;;		None
  2036 ;; Auto vars:     Size  Location     Type
  2037 ;;		None
  2038 ;; Return value:  Size  Location     Type
  2039 ;;                  1    wreg      void 
  2040 ;; Registers used:
  2041 ;;		wreg, status,2, status,0, cstack
  2042 ;; Tracked objects:
  2043 ;;		On entry : 0/0
  2044 ;;		On exit  : 0/0
  2045 ;;		Unchanged: 0/0
  2046 ;; Data sizes:     COMRAM   BANK0   BANK1   BANK2   BANK3   BANK4   BANK5   BANK6   BANK7
  2047 ;;      Params:         0       0       0       0       0       0       0       0       0
  2048 ;;      Locals:         0       0       0       0       0       0       0       0       0
  2049 ;;      Temps:          2       0       0       0       0       0       0       0       0
  2050 ;;      Totals:         2       0       0       0       0       0       0       0       0
  2051 ;;Total ram usage:        2 bytes
  2052 ;; Hardware stack levels used:    1
  2053 ;; Hardware stack levels required when called:    2
  2054 ;; This function calls:
  2055 ;;		_Draw_0
  2056 ;;		_Draw_1
  2057 ;;		_Exit_Time_Menu
  2058 ;;		_Recording
  2059 ;;		_eeprom_writex
  2060 ;; This function is called by:
  2061 ;;		_Menu
  2062 ;; This function uses a non-reentrant model
  2063 ;;
  2064                           
  2065                           	psect	text5
  2066  007280                     __ptext5:
  2067                           	opt callstack 0
  2068  007280                     _Menu_P3:
  2069                           	opt callstack 26
  2070                           
  2071                           ;main.c: 678:         switch (Count_Push_Button)
  2072                           
  2073                           ;incstack = 0
  2074                           ;main.c: 677:     do {
  2075  007280  D00B               	goto	l2645
  2076  007282                     l2637:
  2077                           
  2078                           ;main.c: 681:             Draw_0();
  2079  007282  EC9B  F035         	call	_Draw_0	;wreg free
  2080                           
  2081                           ;main.c: 682:             break;
  2082  007286  D018               	goto	l2647
  2083  007288                     l2639:
  2084                           
  2085                           ;main.c: 684:             Draw_1();
  2086  007288  ECB4  F035         	call	_Draw_1	;wreg free
  2087                           
  2088                           ;main.c: 685:             break;
  2089  00728C  D015               	goto	l2647
  2090  00728E                     l2641:
  2091                           
  2092                           ;main.c: 687:             Count_Push_Button = 0;
  2093  00728E  0E00               	movlw	0
  2094  007290  6E26               	movwf	_Count_Push_Button+1,c
  2095  007292  0E00               	movlw	0
  2096  007294  6E25               	movwf	_Count_Push_Button,c
  2097                           
  2098                           ;main.c: 688:             break;
  2099  007296  D010               	goto	l2647
  2100  007298                     l2645:
  2101  007298  C025  F039         	movff	_Count_Push_Button,??_Menu_P3
  2102  00729C  C026  F03A         	movff	_Count_Push_Button+1,??_Menu_P3+1
  2103                           
  2104                           ; Switch on 2 bytes has been partitioned into a top level switch of size 1, and 1 sub-sw
      +                          itches
  2105                           ; Switch size 1, requested type "simple"
  2106                           ; Number of cases is 1, Range of values is 0 to 0
  2107                           ; switch strategies available:
  2108                           ; Name         Instructions Cycles
  2109                           ; simple_byte            4     3 (average)
  2110                           ;	Chosen strategy is simple_byte
  2111  0072A0  503A               	movf	??_Menu_P3+1,w,c
  2112  0072A2  0A00               	xorlw	0	; case 0
  2113  0072A4  A4D8               	btfss	status,2,c
  2114  0072A6  D7F3               	goto	l2641
  2115                           
  2116                           ; Switch size 1, requested type "simple"
  2117                           ; Number of cases is 2, Range of values is 0 to 1
  2118                           ; switch strategies available:
  2119                           ; Name         Instructions Cycles
  2120                           ; simple_byte            7     4 (average)
  2121                           ;	Chosen strategy is simple_byte
  2122  0072A8  5039               	movf	??_Menu_P3,w,c
  2123  0072AA  0A00               	xorlw	0	; case 0
  2124  0072AC  B4D8               	btfsc	status,2,c
  2125  0072AE  D7E9               	goto	l2637
  2126  0072B0  0A01               	xorlw	1	; case 1
  2127  0072B2  B4D8               	btfsc	status,2,c
  2128  0072B4  D7E9               	goto	l2639
  2129  0072B6  D7EB               	goto	l2641
  2130  0072B8                     l2647:
  2131                           
  2132                           ;main.c: 691:         Button_Menu_Down_State = PORTCbits.RC0;
  2133  0072B8  A082               	btfss	3970,0,c	;volatile
  2134  0072BA  D002               	goto	u1030
  2135  0072BC  0E01               	movlw	1
  2136  0072BE  D001               	goto	u1036
  2137  0072C0                     u1030:
  2138  0072C0  0E00               	movlw	0
  2139  0072C2                     u1036:
  2140  0072C2  6E30               	movwf	_Button_Menu_Down_State,c
  2141                           
  2142                           ;main.c: 692:         if (Button_Menu_Down_State == 0 && Last_Button_Menu_Down_State == 
      +                          1) {
  2143  0072C4  5030               	movf	_Button_Menu_Down_State,w,c
  2144  0072C6  A4D8               	btfss	status,2,c
  2145  0072C8  D00D               	goto	l2655
  2146  0072CA  0444               	decf	_Last_Button_Menu_Down_State,w,c
  2147  0072CC  A4D8               	btfss	status,2,c
  2148  0072CE  D00A               	goto	l2655
  2149                           
  2150                           ;main.c: 693:             Count_Push_Button++;
  2151  0072D0  4A25               	infsnz	_Count_Push_Button,f,c
  2152  0072D2  2A26               	incf	_Count_Push_Button+1,f,c
  2153                           
  2154                           ;main.c: 694:             Count_Exit_Menu = 0;
  2155  0072D4  0E00               	movlw	0
  2156  0072D6  6E11               	movwf	_Count_Exit_Menu,c
  2157  0072D8  0E00               	movlw	0
  2158  0072DA  6E12               	movwf	_Count_Exit_Menu+1,c
  2159  0072DC  0E00               	movlw	0
  2160  0072DE  6E13               	movwf	_Count_Exit_Menu+2,c
  2161  0072E0  0E00               	movlw	0
  2162  0072E2  6E14               	movwf	_Count_Exit_Menu+3,c
  2163  0072E4                     l2655:
  2164                           
  2165                           ;main.c: 696:         Last_Button_Menu_Down_State = Button_Menu_Down_State;
  2166  0072E4  C030  F044         	movff	_Button_Menu_Down_State,_Last_Button_Menu_Down_State
  2167                           
  2168                           ;main.c: 699:         Button_Menu_Up_State = PORTAbits.RA5;
  2169  0072E8  AA80               	btfss	3968,5,c	;volatile
  2170  0072EA  D002               	goto	u1060
  2171  0072EC  0E01               	movlw	1
  2172  0072EE  D001               	goto	u1066
  2173  0072F0                     u1060:
  2174  0072F0  0E00               	movlw	0
  2175  0072F2                     u1066:
  2176  0072F2  6E43               	movwf	_Button_Menu_Up_State,c
  2177                           
  2178                           ;main.c: 700:         if (Button_Menu_Up_State == 0 && Last_Button_Menu_Up_State == 1) {
  2179  0072F4  5043               	movf	_Button_Menu_Up_State,w,c
  2180  0072F6  A4D8               	btfss	status,2,c
  2181  0072F8  D02D               	goto	l342
  2182  0072FA  0445               	decf	_Last_Button_Menu_Up_State,w,c
  2183  0072FC  B4D8               	btfsc	status,2,c
  2184  0072FE  D01A               	goto	l2677
  2185  007300  D029               	goto	l342
  2186  007302                     l2665:
  2187                           
  2188                           ;main.c: 704:                 eeprom_writex(0x03, 0x00);
  2189  007302  0E00               	movlw	0
  2190  007304  6E37               	movwf	eeprom_writex@address+1,c
  2191  007306  0E03               	movlw	3
  2192  007308  6E36               	movwf	eeprom_writex@address,c
  2193  00730A  0E00               	movlw	0
  2194  00730C  6E38               	movwf	eeprom_writex@data,c
  2195  00730E  ECEB  F034         	call	_eeprom_writex	;wreg free
  2196  007312                     l2667:
  2197                           
  2198                           ;main.c: 705:                 Recording();
  2199  007312  ECC9  F037         	call	_Recording	;wreg free
  2200                           
  2201                           ;main.c: 706:                 break;
  2202  007316  D01E               	goto	l342
  2203  007318                     l2669:
  2204                           
  2205                           ;main.c: 708:                 eeprom_writex(0x03, 0x01);
  2206  007318  0E00               	movlw	0
  2207  00731A  6E37               	movwf	eeprom_writex@address+1,c
  2208  00731C  0E03               	movlw	3
  2209  00731E  6E36               	movwf	eeprom_writex@address,c
  2210  007320  0E01               	movlw	1
  2211  007322  6E38               	movwf	eeprom_writex@data,c
  2212  007324  ECEB  F034         	call	_eeprom_writex	;wreg free
  2213  007328  D7F4               	goto	l2667
  2214  00732A                     l2673:
  2215                           
  2216                           ;main.c: 712:                 Count_Push_Button = 0;
  2217  00732A  0E00               	movlw	0
  2218  00732C  6E26               	movwf	_Count_Push_Button+1,c
  2219  00732E  0E00               	movlw	0
  2220  007330  6E25               	movwf	_Count_Push_Button,c
  2221                           
  2222                           ;main.c: 713:                 break;
  2223  007332  D010               	goto	l342
  2224  007334                     l2677:
  2225  007334  C025  F039         	movff	_Count_Push_Button,??_Menu_P3
  2226  007338  C026  F03A         	movff	_Count_Push_Button+1,??_Menu_P3+1
  2227                           
  2228                           ; Switch on 2 bytes has been partitioned into a top level switch of size 1, and 1 sub-sw
      +                          itches
  2229                           ; Switch size 1, requested type "simple"
  2230                           ; Number of cases is 1, Range of values is 0 to 0
  2231                           ; switch strategies available:
  2232                           ; Name         Instructions Cycles
  2233                           ; simple_byte            4     3 (average)
  2234                           ;	Chosen strategy is simple_byte
  2235  00733C  503A               	movf	??_Menu_P3+1,w,c
  2236  00733E  0A00               	xorlw	0	; case 0
  2237  007340  A4D8               	btfss	status,2,c
  2238  007342  D7F3               	goto	l2673
  2239                           
  2240                           ; Switch size 1, requested type "simple"
  2241                           ; Number of cases is 2, Range of values is 0 to 1
  2242                           ; switch strategies available:
  2243                           ; Name         Instructions Cycles
  2244                           ; simple_byte            7     4 (average)
  2245                           ;	Chosen strategy is simple_byte
  2246  007344  5039               	movf	??_Menu_P3,w,c
  2247  007346  0A00               	xorlw	0	; case 0
  2248  007348  B4D8               	btfsc	status,2,c
  2249  00734A  D7DB               	goto	l2665
  2250  00734C  0A01               	xorlw	1	; case 1
  2251  00734E  B4D8               	btfsc	status,2,c
  2252  007350  D7E3               	goto	l2669
  2253  007352  D7EB               	goto	l2673
  2254  007354                     l342:
  2255                           
  2256                           ;main.c: 716:         Last_Button_Menu_Up_State = Button_Menu_Up_State;
  2257  007354  C043  F045         	movff	_Button_Menu_Up_State,_Last_Button_Menu_Up_State
  2258                           
  2259                           ;main.c: 717:         Exit_Time_Menu();
  2260  007358  EC5D  F037         	call	_Exit_Time_Menu	;wreg free
  2261                           
  2262                           ;main.c: 718:     } while (Flag_Menu == 1);
  2263  00735C  042D               	decf	_Flag_Menu,w,c
  2264  00735E  A4D8               	btfss	status,2,c
  2265  007360  0012               	return	
  2266  007362  D79A               	goto	l2645
  2267  007364                     __end_of_Menu_P3:
  2268                           	opt callstack 0
  2269                           
  2270 ;; *************** function _Menu_P2 *****************
  2271 ;; Defined at:
  2272 ;;		line 533 in file "main.c"
  2273 ;; Parameters:    Size  Location     Type
  2274 ;;		None
  2275 ;; Auto vars:     Size  Location     Type
  2276 ;;		None
  2277 ;; Return value:  Size  Location     Type
  2278 ;;                  1    wreg      void 
  2279 ;; Registers used:
  2280 ;;		wreg, status,2, status,0, cstack
  2281 ;; Tracked objects:
  2282 ;;		On entry : 0/0
  2283 ;;		On exit  : 0/0
  2284 ;;		Unchanged: 0/0
  2285 ;; Data sizes:     COMRAM   BANK0   BANK1   BANK2   BANK3   BANK4   BANK5   BANK6   BANK7
  2286 ;;      Params:         0       0       0       0       0       0       0       0       0
  2287 ;;      Locals:         0       0       0       0       0       0       0       0       0
  2288 ;;      Temps:          2       0       0       0       0       0       0       0       0
  2289 ;;      Totals:         2       0       0       0       0       0       0       0       0
  2290 ;;Total ram usage:        2 bytes
  2291 ;; Hardware stack levels used:    1
  2292 ;; Hardware stack levels required when called:    2
  2293 ;; This function calls:
  2294 ;;		_Draw_0
  2295 ;;		_Draw_1
  2296 ;;		_Draw_10
  2297 ;;		_Draw_11
  2298 ;;		_Draw_12
  2299 ;;		_Draw_13
  2300 ;;		_Draw_14
  2301 ;;		_Draw_15
  2302 ;;		_Draw_2
  2303 ;;		_Draw_3
  2304 ;;		_Draw_4
  2305 ;;		_Draw_5
  2306 ;;		_Draw_6
  2307 ;;		_Draw_7
  2308 ;;		_Draw_8
  2309 ;;		_Draw_9
  2310 ;;		_Exit_Time_Menu
  2311 ;;		_Recording
  2312 ;;		_eeprom_writex
  2313 ;; This function is called by:
  2314 ;;		_Menu
  2315 ;; This function uses a non-reentrant model
  2316 ;;
  2317                           
  2318                           	psect	text6
  2319  0076CA                     __ptext6:
  2320                           	opt callstack 0
  2321  0076CA                     _Menu_P2:
  2322                           	opt callstack 26
  2323                           
  2324                           ;main.c: 535:         switch (Count_Push_Button)
  2325                           
  2326                           ;incstack = 0
  2327                           ;main.c: 534:     do {
  2328  0076CA  D035               	goto	l2535
  2329  0076CC                     l2499:
  2330                           
  2331                           ;main.c: 538:             Draw_0();
  2332  0076CC  EC9B  F035         	call	_Draw_0	;wreg free
  2333                           
  2334                           ;main.c: 539:             break;
  2335  0076D0  D06C               	goto	l2537
  2336  0076D2                     l2501:
  2337                           
  2338                           ;main.c: 541:             Draw_1();
  2339  0076D2  ECB4  F035         	call	_Draw_1	;wreg free
  2340                           
  2341                           ;main.c: 542:             break;
  2342  0076D6  D069               	goto	l2537
  2343  0076D8                     l2503:
  2344                           
  2345                           ;main.c: 544:             Draw_2();
  2346  0076D8  EC95  F036         	call	_Draw_2	;wreg free
  2347                           
  2348                           ;main.c: 545:             break;
  2349  0076DC  D066               	goto	l2537
  2350  0076DE                     l2505:
  2351                           
  2352                           ;main.c: 547:             Draw_3();
  2353  0076DE  ECAE  F036         	call	_Draw_3	;wreg free
  2354                           
  2355                           ;main.c: 548:             break;
  2356  0076E2  D063               	goto	l2537
  2357  0076E4                     l2507:
  2358                           
  2359                           ;main.c: 550:             Draw_4();
  2360  0076E4  ECC7  F036         	call	_Draw_4	;wreg free
  2361                           
  2362                           ;main.c: 551:             break;
  2363  0076E8  D060               	goto	l2537
  2364  0076EA                     l2509:
  2365                           
  2366                           ;main.c: 553:             Draw_5();
  2367  0076EA  ECE0  F036         	call	_Draw_5	;wreg free
  2368                           
  2369                           ;main.c: 554:             break;
  2370  0076EE  D05D               	goto	l2537
  2371  0076F0                     l2511:
  2372                           
  2373                           ;main.c: 556:             Draw_6();
  2374  0076F0  ECF9  F036         	call	_Draw_6	;wreg free
  2375                           
  2376                           ;main.c: 557:             break;
  2377  0076F4  D05A               	goto	l2537
  2378  0076F6                     l2513:
  2379                           
  2380                           ;main.c: 559:             Draw_7();
  2381  0076F6  EC12  F037         	call	_Draw_7	;wreg free
  2382                           
  2383                           ;main.c: 560:             break;
  2384  0076FA  D057               	goto	l2537
  2385  0076FC                     l2515:
  2386                           
  2387                           ;main.c: 562:             Draw_8();
  2388  0076FC  EC2B  F037         	call	_Draw_8	;wreg free
  2389                           
  2390                           ;main.c: 563:             break;
  2391  007700  D054               	goto	l2537
  2392  007702                     l2517:
  2393                           
  2394                           ;main.c: 565:             Draw_9();
  2395  007702  EC44  F037         	call	_Draw_9	;wreg free
  2396                           
  2397                           ;main.c: 566:             break;
  2398  007706  D051               	goto	l2537
  2399  007708                     l2519:
  2400                           
  2401                           ;main.c: 568:             Draw_10();
  2402  007708  ECFF  F035         	call	_Draw_10	;wreg free
  2403                           
  2404                           ;main.c: 569:             break;
  2405  00770C  D04E               	goto	l2537
  2406  00770E                     l2521:
  2407                           
  2408                           ;main.c: 571:             Draw_11();
  2409  00770E  EC18  F036         	call	_Draw_11	;wreg free
  2410                           
  2411                           ;main.c: 572:             break;
  2412  007712  D04B               	goto	l2537
  2413  007714                     l2523:
  2414                           
  2415                           ;main.c: 574:             Draw_12();
  2416  007714  EC31  F036         	call	_Draw_12	;wreg free
  2417                           
  2418                           ;main.c: 575:             break;
  2419  007718  D048               	goto	l2537
  2420  00771A                     l2525:
  2421                           
  2422                           ;main.c: 577:             Draw_13();
  2423  00771A  EC4A  F036         	call	_Draw_13	;wreg free
  2424                           
  2425                           ;main.c: 578:             break;
  2426  00771E  D045               	goto	l2537
  2427  007720                     l2527:
  2428                           
  2429                           ;main.c: 580:             Draw_14();
  2430  007720  EC63  F036         	call	_Draw_14	;wreg free
  2431                           
  2432                           ;main.c: 581:             break;
  2433  007724  D042               	goto	l2537
  2434  007726                     l2529:
  2435                           
  2436                           ;main.c: 583:             Draw_15();
  2437  007726  EC7C  F036         	call	_Draw_15	;wreg free
  2438                           
  2439                           ;main.c: 584:             break;
  2440  00772A  D03F               	goto	l2537
  2441  00772C                     l2531:
  2442                           
  2443                           ;main.c: 586:             Count_Push_Button = 0;
  2444  00772C  0E00               	movlw	0
  2445  00772E  6E26               	movwf	_Count_Push_Button+1,c
  2446  007730  0E00               	movlw	0
  2447  007732  6E25               	movwf	_Count_Push_Button,c
  2448                           
  2449                           ;main.c: 587:             break;
  2450  007734  D03A               	goto	l2537
  2451  007736                     l2535:
  2452  007736  C025  F039         	movff	_Count_Push_Button,??_Menu_P2
  2453  00773A  C026  F03A         	movff	_Count_Push_Button+1,??_Menu_P2+1
  2454                           
  2455                           ; Switch on 2 bytes has been partitioned into a top level switch of size 1, and 1 sub-sw
      +                          itches
  2456                           ; Switch size 1, requested type "simple"
  2457                           ; Number of cases is 1, Range of values is 0 to 0
  2458                           ; switch strategies available:
  2459                           ; Name         Instructions Cycles
  2460                           ; simple_byte            4     3 (average)
  2461                           ;	Chosen strategy is simple_byte
  2462  00773E  503A               	movf	??_Menu_P2+1,w,c
  2463  007740  0A00               	xorlw	0	; case 0
  2464  007742  A4D8               	btfss	status,2,c
  2465  007744  D7F3               	goto	l2531
  2466                           
  2467                           ; Switch size 1, requested type "simple"
  2468                           ; Number of cases is 16, Range of values is 0 to 15
  2469                           ; switch strategies available:
  2470                           ; Name         Instructions Cycles
  2471                           ; simple_byte           49    25 (average)
  2472                           ;	Chosen strategy is simple_byte
  2473  007746  5039               	movf	??_Menu_P2,w,c
  2474  007748  0A00               	xorlw	0	; case 0
  2475  00774A  B4D8               	btfsc	status,2,c
  2476  00774C  D7BF               	goto	l2499
  2477  00774E  0A01               	xorlw	1	; case 1
  2478  007750  B4D8               	btfsc	status,2,c
  2479  007752  D7BF               	goto	l2501
  2480  007754  0A03               	xorlw	3	; case 2
  2481  007756  B4D8               	btfsc	status,2,c
  2482  007758  D7BF               	goto	l2503
  2483  00775A  0A01               	xorlw	1	; case 3
  2484  00775C  B4D8               	btfsc	status,2,c
  2485  00775E  D7BF               	goto	l2505
  2486  007760  0A07               	xorlw	7	; case 4
  2487  007762  B4D8               	btfsc	status,2,c
  2488  007764  D7BF               	goto	l2507
  2489  007766  0A01               	xorlw	1	; case 5
  2490  007768  B4D8               	btfsc	status,2,c
  2491  00776A  D7BF               	goto	l2509
  2492  00776C  0A03               	xorlw	3	; case 6
  2493  00776E  B4D8               	btfsc	status,2,c
  2494  007770  D7BF               	goto	l2511
  2495  007772  0A01               	xorlw	1	; case 7
  2496  007774  B4D8               	btfsc	status,2,c
  2497  007776  D7BF               	goto	l2513
  2498  007778  0A0F               	xorlw	15	; case 8
  2499  00777A  B4D8               	btfsc	status,2,c
  2500  00777C  D7BF               	goto	l2515
  2501  00777E  0A01               	xorlw	1	; case 9
  2502  007780  B4D8               	btfsc	status,2,c
  2503  007782  D7BF               	goto	l2517
  2504  007784  0A03               	xorlw	3	; case 10
  2505  007786  B4D8               	btfsc	status,2,c
  2506  007788  D7BF               	goto	l2519
  2507  00778A  0A01               	xorlw	1	; case 11
  2508  00778C  B4D8               	btfsc	status,2,c
  2509  00778E  D7BF               	goto	l2521
  2510  007790  0A07               	xorlw	7	; case 12
  2511  007792  B4D8               	btfsc	status,2,c
  2512  007794  D7BF               	goto	l2523
  2513  007796  0A01               	xorlw	1	; case 13
  2514  007798  B4D8               	btfsc	status,2,c
  2515  00779A  D7BF               	goto	l2525
  2516  00779C  0A03               	xorlw	3	; case 14
  2517  00779E  B4D8               	btfsc	status,2,c
  2518  0077A0  D7BF               	goto	l2527
  2519  0077A2  0A01               	xorlw	1	; case 15
  2520  0077A4  B4D8               	btfsc	status,2,c
  2521  0077A6  D7BF               	goto	l2529
  2522  0077A8  D7C1               	goto	l2531
  2523  0077AA                     l2537:
  2524                           
  2525                           ;main.c: 590:         Button_Menu_Down_State = PORTCbits.RC0;
  2526  0077AA  A082               	btfss	3970,0,c	;volatile
  2527  0077AC  D002               	goto	u960
  2528  0077AE  0E01               	movlw	1
  2529  0077B0  D001               	goto	u966
  2530  0077B2                     u960:
  2531  0077B2  0E00               	movlw	0
  2532  0077B4                     u966:
  2533  0077B4  6E30               	movwf	_Button_Menu_Down_State,c
  2534                           
  2535                           ;main.c: 591:         if (Button_Menu_Down_State == 0 && Last_Button_Menu_Down_State == 
      +                          1) {
  2536  0077B6  5030               	movf	_Button_Menu_Down_State,w,c
  2537  0077B8  A4D8               	btfss	status,2,c
  2538  0077BA  D00D               	goto	l2545
  2539  0077BC  0444               	decf	_Last_Button_Menu_Down_State,w,c
  2540  0077BE  A4D8               	btfss	status,2,c
  2541  0077C0  D00A               	goto	l2545
  2542                           
  2543                           ;main.c: 592:             Count_Push_Button++;
  2544  0077C2  4A25               	infsnz	_Count_Push_Button,f,c
  2545  0077C4  2A26               	incf	_Count_Push_Button+1,f,c
  2546                           
  2547                           ;main.c: 593:             Count_Exit_Menu = 0;
  2548  0077C6  0E00               	movlw	0
  2549  0077C8  6E11               	movwf	_Count_Exit_Menu,c
  2550  0077CA  0E00               	movlw	0
  2551  0077CC  6E12               	movwf	_Count_Exit_Menu+1,c
  2552  0077CE  0E00               	movlw	0
  2553  0077D0  6E13               	movwf	_Count_Exit_Menu+2,c
  2554  0077D2  0E00               	movlw	0
  2555  0077D4  6E14               	movwf	_Count_Exit_Menu+3,c
  2556  0077D6                     l2545:
  2557                           
  2558                           ;main.c: 595:         Last_Button_Menu_Down_State = Button_Menu_Down_State;
  2559  0077D6  C030  F044         	movff	_Button_Menu_Down_State,_Last_Button_Menu_Down_State
  2560                           
  2561                           ;main.c: 598:         Button_Menu_Up_State = PORTAbits.RA5;
  2562  0077DA  AA80               	btfss	3968,5,c	;volatile
  2563  0077DC  D002               	goto	u990
  2564  0077DE  0E01               	movlw	1
  2565  0077E0  D001               	goto	u996
  2566  0077E2                     u990:
  2567  0077E2  0E00               	movlw	0
  2568  0077E4                     u996:
  2569  0077E4  6E43               	movwf	_Button_Menu_Up_State,c
  2570                           
  2571                           ;main.c: 599:         if (Button_Menu_Up_State == 0 && Last_Button_Menu_Up_State == 1) {
  2572  0077E6  5043               	movf	_Button_Menu_Up_State,w,c
  2573  0077E8  A4D8               	btfss	status,2,c
  2574  0077EA  D0D5               	goto	l311
  2575  0077EC  0445               	decf	_Last_Button_Menu_Up_State,w,c
  2576  0077EE  B4D8               	btfsc	status,2,c
  2577  0077F0  D098               	goto	l2623
  2578  0077F2  D0D1               	goto	l311
  2579  0077F4                     l2555:
  2580                           
  2581                           ;main.c: 603:                 eeprom_writex(0x02, 0x00);
  2582  0077F4  0E00               	movlw	0
  2583  0077F6  6E37               	movwf	eeprom_writex@address+1,c
  2584  0077F8  0E02               	movlw	2
  2585  0077FA  6E36               	movwf	eeprom_writex@address,c
  2586  0077FC  0E00               	movlw	0
  2587  0077FE  6E38               	movwf	eeprom_writex@data,c
  2588  007800  ECEB  F034         	call	_eeprom_writex	;wreg free
  2589  007804                     l2557:
  2590                           
  2591                           ;main.c: 604:                 Recording();
  2592  007804  ECC9  F037         	call	_Recording	;wreg free
  2593                           
  2594                           ;main.c: 605:                 break;
  2595  007808  D0C6               	goto	l311
  2596  00780A                     l2559:
  2597                           
  2598                           ;main.c: 607:                 eeprom_writex(0x02, 0x01);
  2599  00780A  0E00               	movlw	0
  2600  00780C  6E37               	movwf	eeprom_writex@address+1,c
  2601  00780E  0E02               	movlw	2
  2602  007810  6E36               	movwf	eeprom_writex@address,c
  2603  007812  0E01               	movlw	1
  2604  007814  6E38               	movwf	eeprom_writex@data,c
  2605  007816  ECEB  F034         	call	_eeprom_writex	;wreg free
  2606  00781A  D7F4               	goto	l2557
  2607  00781C                     l2563:
  2608                           
  2609                           ;main.c: 611:                 eeprom_writex(0x02, 0x02);
  2610  00781C  0E00               	movlw	0
  2611  00781E  6E37               	movwf	eeprom_writex@address+1,c
  2612  007820  0E02               	movlw	2
  2613  007822  6E36               	movwf	eeprom_writex@address,c
  2614  007824  0E02               	movlw	2
  2615  007826  6E38               	movwf	eeprom_writex@data,c
  2616  007828  ECEB  F034         	call	_eeprom_writex	;wreg free
  2617  00782C  D7EB               	goto	l2557
  2618  00782E                     l2567:
  2619                           
  2620                           ;main.c: 615:                 eeprom_writex(0x02, 0x03);
  2621  00782E  0E00               	movlw	0
  2622  007830  6E37               	movwf	eeprom_writex@address+1,c
  2623  007832  0E02               	movlw	2
  2624  007834  6E36               	movwf	eeprom_writex@address,c
  2625  007836  0E03               	movlw	3
  2626  007838  6E38               	movwf	eeprom_writex@data,c
  2627  00783A  ECEB  F034         	call	_eeprom_writex	;wreg free
  2628  00783E  D7E2               	goto	l2557
  2629  007840                     l2571:
  2630                           
  2631                           ;main.c: 619:                 eeprom_writex(0x02, 0x04);
  2632  007840  0E00               	movlw	0
  2633  007842  6E37               	movwf	eeprom_writex@address+1,c
  2634  007844  0E02               	movlw	2
  2635  007846  6E36               	movwf	eeprom_writex@address,c
  2636  007848  0E04               	movlw	4
  2637  00784A  6E38               	movwf	eeprom_writex@data,c
  2638  00784C  ECEB  F034         	call	_eeprom_writex	;wreg free
  2639  007850  D7D9               	goto	l2557
  2640  007852                     l2575:
  2641                           
  2642                           ;main.c: 623:                 eeprom_writex(0x02, 0x05);
  2643  007852  0E00               	movlw	0
  2644  007854  6E37               	movwf	eeprom_writex@address+1,c
  2645  007856  0E02               	movlw	2
  2646  007858  6E36               	movwf	eeprom_writex@address,c
  2647  00785A  0E05               	movlw	5
  2648  00785C  6E38               	movwf	eeprom_writex@data,c
  2649  00785E  ECEB  F034         	call	_eeprom_writex	;wreg free
  2650  007862  D7D0               	goto	l2557
  2651  007864                     l2579:
  2652                           
  2653                           ;main.c: 627:                 eeprom_writex(0x02, 0x06);
  2654  007864  0E00               	movlw	0
  2655  007866  6E37               	movwf	eeprom_writex@address+1,c
  2656  007868  0E02               	movlw	2
  2657  00786A  6E36               	movwf	eeprom_writex@address,c
  2658  00786C  0E06               	movlw	6
  2659  00786E  6E38               	movwf	eeprom_writex@data,c
  2660  007870  ECEB  F034         	call	_eeprom_writex	;wreg free
  2661  007874  D7C7               	goto	l2557
  2662  007876                     l2583:
  2663                           
  2664                           ;main.c: 631:                 eeprom_writex(0x02, 0x07);
  2665  007876  0E00               	movlw	0
  2666  007878  6E37               	movwf	eeprom_writex@address+1,c
  2667  00787A  0E02               	movlw	2
  2668  00787C  6E36               	movwf	eeprom_writex@address,c
  2669  00787E  0E07               	movlw	7
  2670  007880  6E38               	movwf	eeprom_writex@data,c
  2671  007882  ECEB  F034         	call	_eeprom_writex	;wreg free
  2672  007886  D7BE               	goto	l2557
  2673  007888                     l2587:
  2674                           
  2675                           ;main.c: 635:                 eeprom_writex(0x02, 0x08);
  2676  007888  0E00               	movlw	0
  2677  00788A  6E37               	movwf	eeprom_writex@address+1,c
  2678  00788C  0E02               	movlw	2
  2679  00788E  6E36               	movwf	eeprom_writex@address,c
  2680  007890  0E08               	movlw	8
  2681  007892  6E38               	movwf	eeprom_writex@data,c
  2682  007894  ECEB  F034         	call	_eeprom_writex	;wreg free
  2683  007898  D7B5               	goto	l2557
  2684  00789A                     l2591:
  2685                           
  2686                           ;main.c: 639:                 eeprom_writex(0x02, 0x09);
  2687  00789A  0E00               	movlw	0
  2688  00789C  6E37               	movwf	eeprom_writex@address+1,c
  2689  00789E  0E02               	movlw	2
  2690  0078A0  6E36               	movwf	eeprom_writex@address,c
  2691  0078A2  0E09               	movlw	9
  2692  0078A4  6E38               	movwf	eeprom_writex@data,c
  2693  0078A6  ECEB  F034         	call	_eeprom_writex	;wreg free
  2694  0078AA  D7AC               	goto	l2557
  2695  0078AC                     l2595:
  2696                           
  2697                           ;main.c: 643:                 eeprom_writex(0x02, 0x0A);
  2698  0078AC  0E00               	movlw	0
  2699  0078AE  6E37               	movwf	eeprom_writex@address+1,c
  2700  0078B0  0E02               	movlw	2
  2701  0078B2  6E36               	movwf	eeprom_writex@address,c
  2702  0078B4  0E0A               	movlw	10
  2703  0078B6  6E38               	movwf	eeprom_writex@data,c
  2704  0078B8  ECEB  F034         	call	_eeprom_writex	;wreg free
  2705  0078BC  D7A3               	goto	l2557
  2706  0078BE                     l2599:
  2707                           
  2708                           ;main.c: 647:                 eeprom_writex(0x02, 0x0B);
  2709  0078BE  0E00               	movlw	0
  2710  0078C0  6E37               	movwf	eeprom_writex@address+1,c
  2711  0078C2  0E02               	movlw	2
  2712  0078C4  6E36               	movwf	eeprom_writex@address,c
  2713  0078C6  0E0B               	movlw	11
  2714  0078C8  6E38               	movwf	eeprom_writex@data,c
  2715  0078CA  ECEB  F034         	call	_eeprom_writex	;wreg free
  2716  0078CE  D79A               	goto	l2557
  2717  0078D0                     l2603:
  2718                           
  2719                           ;main.c: 651:                 eeprom_writex(0x02, 0x0C);
  2720  0078D0  0E00               	movlw	0
  2721  0078D2  6E37               	movwf	eeprom_writex@address+1,c
  2722  0078D4  0E02               	movlw	2
  2723  0078D6  6E36               	movwf	eeprom_writex@address,c
  2724  0078D8  0E0C               	movlw	12
  2725  0078DA  6E38               	movwf	eeprom_writex@data,c
  2726  0078DC  ECEB  F034         	call	_eeprom_writex	;wreg free
  2727  0078E0  D791               	goto	l2557
  2728  0078E2                     l2607:
  2729                           
  2730                           ;main.c: 655:                 eeprom_writex(0x02, 0x0D);
  2731  0078E2  0E00               	movlw	0
  2732  0078E4  6E37               	movwf	eeprom_writex@address+1,c
  2733  0078E6  0E02               	movlw	2
  2734  0078E8  6E36               	movwf	eeprom_writex@address,c
  2735  0078EA  0E0D               	movlw	13
  2736  0078EC  6E38               	movwf	eeprom_writex@data,c
  2737  0078EE  ECEB  F034         	call	_eeprom_writex	;wreg free
  2738  0078F2  D788               	goto	l2557
  2739  0078F4                     l2611:
  2740                           
  2741                           ;main.c: 659:                 eeprom_writex(0x02, 0x0E);
  2742  0078F4  0E00               	movlw	0
  2743  0078F6  6E37               	movwf	eeprom_writex@address+1,c
  2744  0078F8  0E02               	movlw	2
  2745  0078FA  6E36               	movwf	eeprom_writex@address,c
  2746  0078FC  0E0E               	movlw	14
  2747  0078FE  6E38               	movwf	eeprom_writex@data,c
  2748  007900  ECEB  F034         	call	_eeprom_writex	;wreg free
  2749  007904  D77F               	goto	l2557
  2750  007906                     l2615:
  2751                           
  2752                           ;main.c: 663:                 eeprom_writex(0x02, 0x0F);
  2753  007906  0E00               	movlw	0
  2754  007908  6E37               	movwf	eeprom_writex@address+1,c
  2755  00790A  0E02               	movlw	2
  2756  00790C  6E36               	movwf	eeprom_writex@address,c
  2757  00790E  0E0F               	movlw	15
  2758  007910  6E38               	movwf	eeprom_writex@data,c
  2759  007912  ECEB  F034         	call	_eeprom_writex	;wreg free
  2760  007916  D776               	goto	l2557
  2761  007918                     l2619:
  2762                           
  2763                           ;main.c: 667:                 Count_Push_Button = 0;
  2764  007918  0E00               	movlw	0
  2765  00791A  6E26               	movwf	_Count_Push_Button+1,c
  2766  00791C  0E00               	movlw	0
  2767  00791E  6E25               	movwf	_Count_Push_Button,c
  2768                           
  2769                           ;main.c: 668:                 break;
  2770  007920  D03A               	goto	l311
  2771  007922                     l2623:
  2772  007922  C025  F039         	movff	_Count_Push_Button,??_Menu_P2
  2773  007926  C026  F03A         	movff	_Count_Push_Button+1,??_Menu_P2+1
  2774                           
  2775                           ; Switch on 2 bytes has been partitioned into a top level switch of size 1, and 1 sub-sw
      +                          itches
  2776                           ; Switch size 1, requested type "simple"
  2777                           ; Number of cases is 1, Range of values is 0 to 0
  2778                           ; switch strategies available:
  2779                           ; Name         Instructions Cycles
  2780                           ; simple_byte            4     3 (average)
  2781                           ;	Chosen strategy is simple_byte
  2782  00792A  503A               	movf	??_Menu_P2+1,w,c
  2783  00792C  0A00               	xorlw	0	; case 0
  2784  00792E  A4D8               	btfss	status,2,c
  2785  007930  D7F3               	goto	l2619
  2786                           
  2787                           ; Switch size 1, requested type "simple"
  2788                           ; Number of cases is 16, Range of values is 0 to 15
  2789                           ; switch strategies available:
  2790                           ; Name         Instructions Cycles
  2791                           ; simple_byte           49    25 (average)
  2792                           ;	Chosen strategy is simple_byte
  2793  007932  5039               	movf	??_Menu_P2,w,c
  2794  007934  0A00               	xorlw	0	; case 0
  2795  007936  B4D8               	btfsc	status,2,c
  2796  007938  D75D               	goto	l2555
  2797  00793A  0A01               	xorlw	1	; case 1
  2798  00793C  B4D8               	btfsc	status,2,c
  2799  00793E  D765               	goto	l2559
  2800  007940  0A03               	xorlw	3	; case 2
  2801  007942  B4D8               	btfsc	status,2,c
  2802  007944  D76B               	goto	l2563
  2803  007946  0A01               	xorlw	1	; case 3
  2804  007948  B4D8               	btfsc	status,2,c
  2805  00794A  D771               	goto	l2567
  2806  00794C  0A07               	xorlw	7	; case 4
  2807  00794E  B4D8               	btfsc	status,2,c
  2808  007950  D777               	goto	l2571
  2809  007952  0A01               	xorlw	1	; case 5
  2810  007954  B4D8               	btfsc	status,2,c
  2811  007956  D77D               	goto	l2575
  2812  007958  0A03               	xorlw	3	; case 6
  2813  00795A  B4D8               	btfsc	status,2,c
  2814  00795C  D783               	goto	l2579
  2815  00795E  0A01               	xorlw	1	; case 7
  2816  007960  B4D8               	btfsc	status,2,c
  2817  007962  D789               	goto	l2583
  2818  007964  0A0F               	xorlw	15	; case 8
  2819  007966  B4D8               	btfsc	status,2,c
  2820  007968  D78F               	goto	l2587
  2821  00796A  0A01               	xorlw	1	; case 9
  2822  00796C  B4D8               	btfsc	status,2,c
  2823  00796E  D795               	goto	l2591
  2824  007970  0A03               	xorlw	3	; case 10
  2825  007972  B4D8               	btfsc	status,2,c
  2826  007974  D79B               	goto	l2595
  2827  007976  0A01               	xorlw	1	; case 11
  2828  007978  B4D8               	btfsc	status,2,c
  2829  00797A  D7A1               	goto	l2599
  2830  00797C  0A07               	xorlw	7	; case 12
  2831  00797E  B4D8               	btfsc	status,2,c
  2832  007980  D7A7               	goto	l2603
  2833  007982  0A01               	xorlw	1	; case 13
  2834  007984  B4D8               	btfsc	status,2,c
  2835  007986  D7AD               	goto	l2607
  2836  007988  0A03               	xorlw	3	; case 14
  2837  00798A  B4D8               	btfsc	status,2,c
  2838  00798C  D7B3               	goto	l2611
  2839  00798E  0A01               	xorlw	1	; case 15
  2840  007990  B4D8               	btfsc	status,2,c
  2841  007992  D7B9               	goto	l2615
  2842  007994  D7C1               	goto	l2619
  2843  007996                     l311:
  2844                           
  2845                           ;main.c: 671:         Last_Button_Menu_Up_State = Button_Menu_Up_State;
  2846  007996  C043  F045         	movff	_Button_Menu_Up_State,_Last_Button_Menu_Up_State
  2847                           
  2848                           ;main.c: 672:         Exit_Time_Menu();
  2849  00799A  EC5D  F037         	call	_Exit_Time_Menu	;wreg free
  2850                           
  2851                           ;main.c: 673:     } while (Flag_Menu == 1);
  2852  00799E  042D               	decf	_Flag_Menu,w,c
  2853  0079A0  A4D8               	btfss	status,2,c
  2854  0079A2  0012               	return	
  2855  0079A4  D6C8               	goto	l2535
  2856  0079A6                     __end_of_Menu_P2:
  2857                           	opt callstack 0
  2858                           
  2859 ;; *************** function _Draw_9 *****************
  2860 ;; Defined at:
  2861 ;;		line 1024 in file "main.c"
  2862 ;; Parameters:    Size  Location     Type
  2863 ;;		None
  2864 ;; Auto vars:     Size  Location     Type
  2865 ;;		None
  2866 ;; Return value:  Size  Location     Type
  2867 ;;                  1    wreg      void 
  2868 ;; Registers used:
  2869 ;;		wreg, status,2
  2870 ;; Tracked objects:
  2871 ;;		On entry : 0/0
  2872 ;;		On exit  : 0/0
  2873 ;;		Unchanged: 0/0
  2874 ;; Data sizes:     COMRAM   BANK0   BANK1   BANK2   BANK3   BANK4   BANK5   BANK6   BANK7
  2875 ;;      Params:         0       0       0       0       0       0       0       0       0
  2876 ;;      Locals:         0       0       0       0       0       0       0       0       0
  2877 ;;      Temps:          1       0       0       0       0       0       0       0       0
  2878 ;;      Totals:         1       0       0       0       0       0       0       0       0
  2879 ;;Total ram usage:        1 bytes
  2880 ;; Hardware stack levels used:    1
  2881 ;; This function calls:
  2882 ;;		Nothing
  2883 ;; This function is called by:
  2884 ;;		_Menu_P2
  2885 ;;		_Menu_P4
  2886 ;; This function uses a non-reentrant model
  2887 ;;
  2888                           
  2889                           	psect	text7
  2890  006E88                     __ptext7:
  2891                           	opt callstack 0
  2892  006E88                     _Draw_9:
  2893                           	opt callstack 27
  2894                           
  2895                           ;main.c: 1025:     PORTB = 0x11;
  2896                           
  2897                           ;incstack = 0
  2898  006E88  0E11               	movlw	17
  2899  006E8A  6E81               	movwf	3969,c	;volatile
  2900                           
  2901                           ;main.c: 1026:     PORTCbits.RC7 = 0;
  2902  006E8C  9E82               	bcf	3970,7,c	;volatile
  2903                           
  2904                           ;main.c: 1027:     _delay((unsigned long)((1600)*(20000000/4000000.0)));
  2905  006E8E  0E0B               	movlw	11
  2906  006E90  6E36               	movwf	??_Draw_9& (0+255),c
  2907  006E92  0E62               	movlw	98
  2908  006E94                     u1817:
  2909  006E94  2EE8               	decfsz	wreg,f,c
  2910  006E96  D7FE               	bra	u1817
  2911  006E98  2E36               	decfsz	??_Draw_9& (0+255),f,c
  2912  006E9A  D7FC               	bra	u1817
  2913  006E9C  D000               	nop2	
  2914                           
  2915                           ;main.c: 1028:     PORTCbits.RC7 = 0;
  2916  006E9E  9E82               	bcf	3970,7,c	;volatile
  2917                           
  2918                           ;main.c: 1029:     PORTB = 0x21;
  2919  006EA0  0E21               	movlw	33
  2920  006EA2  6E81               	movwf	3969,c	;volatile
  2921                           
  2922                           ;main.c: 1030:     PORTCbits.RC6 = 1;
  2923  006EA4  8C82               	bsf	3970,6,c	;volatile
  2924                           
  2925                           ;main.c: 1031:     _delay((unsigned long)((1600)*(20000000/4000000.0)));
  2926  006EA6  0E0B               	movlw	11
  2927  006EA8  6E36               	movwf	??_Draw_9& (0+255),c
  2928  006EAA  0E62               	movlw	98
  2929  006EAC                     u1827:
  2930  006EAC  2EE8               	decfsz	wreg,f,c
  2931  006EAE  D7FE               	bra	u1827
  2932  006EB0  2E36               	decfsz	??_Draw_9& (0+255),f,c
  2933  006EB2  D7FC               	bra	u1827
  2934  006EB4  D000               	nop2	
  2935                           
  2936                           ;main.c: 1032:     PORTCbits.RC6 = 0;
  2937  006EB6  9C82               	bcf	3970,6,c	;volatile
  2938  006EB8  0012               	return		;funcret
  2939  006EBA                     __end_of_Draw_9:
  2940                           	opt callstack 0
  2941                           
  2942 ;; *************** function _Draw_8 *****************
  2943 ;; Defined at:
  2944 ;;		line 1013 in file "main.c"
  2945 ;; Parameters:    Size  Location     Type
  2946 ;;		None
  2947 ;; Auto vars:     Size  Location     Type
  2948 ;;		None
  2949 ;; Return value:  Size  Location     Type
  2950 ;;                  1    wreg      void 
  2951 ;; Registers used:
  2952 ;;		wreg, status,2
  2953 ;; Tracked objects:
  2954 ;;		On entry : 0/0
  2955 ;;		On exit  : 0/0
  2956 ;;		Unchanged: 0/0
  2957 ;; Data sizes:     COMRAM   BANK0   BANK1   BANK2   BANK3   BANK4   BANK5   BANK6   BANK7
  2958 ;;      Params:         0       0       0       0       0       0       0       0       0
  2959 ;;      Locals:         0       0       0       0       0       0       0       0       0
  2960 ;;      Temps:          1       0       0       0       0       0       0       0       0
  2961 ;;      Totals:         1       0       0       0       0       0       0       0       0
  2962 ;;Total ram usage:        1 bytes
  2963 ;; Hardware stack levels used:    1
  2964 ;; This function calls:
  2965 ;;		Nothing
  2966 ;; This function is called by:
  2967 ;;		_Menu_P2
  2968 ;;		_Menu_P4
  2969 ;; This function uses a non-reentrant model
  2970 ;;
  2971                           
  2972                           	psect	text8
  2973  006E56                     __ptext8:
  2974                           	opt callstack 0
  2975  006E56                     _Draw_8:
  2976                           	opt callstack 27
  2977                           
  2978                           ;main.c: 1014:     PORTB = 0x11;
  2979                           
  2980                           ;incstack = 0
  2981  006E56  0E11               	movlw	17
  2982  006E58  6E81               	movwf	3969,c	;volatile
  2983                           
  2984                           ;main.c: 1015:     PORTCbits.RC7 = 0;
  2985  006E5A  9E82               	bcf	3970,7,c	;volatile
  2986                           
  2987                           ;main.c: 1016:     _delay((unsigned long)((1600)*(20000000/4000000.0)));
  2988  006E5C  0E0B               	movlw	11
  2989  006E5E  6E36               	movwf	??_Draw_8& (0+255),c
  2990  006E60  0E62               	movlw	98
  2991  006E62                     u1837:
  2992  006E62  2EE8               	decfsz	wreg,f,c
  2993  006E64  D7FE               	bra	u1837
  2994  006E66  2E36               	decfsz	??_Draw_8& (0+255),f,c
  2995  006E68  D7FC               	bra	u1837
  2996  006E6A  D000               	nop2	
  2997                           
  2998                           ;main.c: 1017:     PORTCbits.RC7 = 0;
  2999  006E6C  9E82               	bcf	3970,7,c	;volatile
  3000                           
  3001                           ;main.c: 1018:     PORTB = 0x01;
  3002  006E6E  0E01               	movlw	1
  3003  006E70  6E81               	movwf	3969,c	;volatile
  3004                           
  3005                           ;main.c: 1019:     PORTCbits.RC6 = 1;
  3006  006E72  8C82               	bsf	3970,6,c	;volatile
  3007                           
  3008                           ;main.c: 1020:     _delay((unsigned long)((1600)*(20000000/4000000.0)));
  3009  006E74  0E0B               	movlw	11
  3010  006E76  6E36               	movwf	??_Draw_8& (0+255),c
  3011  006E78  0E62               	movlw	98
  3012  006E7A                     u1847:
  3013  006E7A  2EE8               	decfsz	wreg,f,c
  3014  006E7C  D7FE               	bra	u1847
  3015  006E7E  2E36               	decfsz	??_Draw_8& (0+255),f,c
  3016  006E80  D7FC               	bra	u1847
  3017  006E82  D000               	nop2	
  3018                           
  3019                           ;main.c: 1021:     PORTCbits.RC6 = 0;
  3020  006E84  9C82               	bcf	3970,6,c	;volatile
  3021  006E86  0012               	return		;funcret
  3022  006E88                     __end_of_Draw_8:
  3023                           	opt callstack 0
  3024                           
  3025 ;; *************** function _Draw_7 *****************
  3026 ;; Defined at:
  3027 ;;		line 1002 in file "main.c"
  3028 ;; Parameters:    Size  Location     Type
  3029 ;;		None
  3030 ;; Auto vars:     Size  Location     Type
  3031 ;;		None
  3032 ;; Return value:  Size  Location     Type
  3033 ;;                  1    wreg      void 
  3034 ;; Registers used:
  3035 ;;		wreg, status,2
  3036 ;; Tracked objects:
  3037 ;;		On entry : 0/0
  3038 ;;		On exit  : 0/0
  3039 ;;		Unchanged: 0/0
  3040 ;; Data sizes:     COMRAM   BANK0   BANK1   BANK2   BANK3   BANK4   BANK5   BANK6   BANK7
  3041 ;;      Params:         0       0       0       0       0       0       0       0       0
  3042 ;;      Locals:         0       0       0       0       0       0       0       0       0
  3043 ;;      Temps:          1       0       0       0       0       0       0       0       0
  3044 ;;      Totals:         1       0       0       0       0       0       0       0       0
  3045 ;;Total ram usage:        1 bytes
  3046 ;; Hardware stack levels used:    1
  3047 ;; This function calls:
  3048 ;;		Nothing
  3049 ;; This function is called by:
  3050 ;;		_Menu_P2
  3051 ;;		_Menu_P4
  3052 ;; This function uses a non-reentrant model
  3053 ;;
  3054                           
  3055                           	psect	text9
  3056  006E24                     __ptext9:
  3057                           	opt callstack 0
  3058  006E24                     _Draw_7:
  3059                           	opt callstack 27
  3060                           
  3061                           ;main.c: 1003:     PORTB = 0x11;
  3062                           
  3063                           ;incstack = 0
  3064  006E24  0E11               	movlw	17
  3065  006E26  6E81               	movwf	3969,c	;volatile
  3066                           
  3067                           ;main.c: 1004:     PORTCbits.RC7 = 0;
  3068  006E28  9E82               	bcf	3970,7,c	;volatile
  3069                           
  3070                           ;main.c: 1005:     _delay((unsigned long)((1600)*(20000000/4000000.0)));
  3071  006E2A  0E0B               	movlw	11
  3072  006E2C  6E36               	movwf	??_Draw_7& (0+255),c
  3073  006E2E  0E62               	movlw	98
  3074  006E30                     u1857:
  3075  006E30  2EE8               	decfsz	wreg,f,c
  3076  006E32  D7FE               	bra	u1857
  3077  006E34  2E36               	decfsz	??_Draw_7& (0+255),f,c
  3078  006E36  D7FC               	bra	u1857
  3079  006E38  D000               	nop2	
  3080                           
  3081                           ;main.c: 1006:     PORTCbits.RC7 = 0;
  3082  006E3A  9E82               	bcf	3970,7,c	;volatile
  3083                           
  3084                           ;main.c: 1007:     PORTB = 0xF1;
  3085  006E3C  0EF1               	movlw	241
  3086  006E3E  6E81               	movwf	3969,c	;volatile
  3087                           
  3088                           ;main.c: 1008:     PORTCbits.RC6 = 1;
  3089  006E40  8C82               	bsf	3970,6,c	;volatile
  3090                           
  3091                           ;main.c: 1009:     _delay((unsigned long)((1600)*(20000000/4000000.0)));
  3092  006E42  0E0B               	movlw	11
  3093  006E44  6E36               	movwf	??_Draw_7& (0+255),c
  3094  006E46  0E62               	movlw	98
  3095  006E48                     u1867:
  3096  006E48  2EE8               	decfsz	wreg,f,c
  3097  006E4A  D7FE               	bra	u1867
  3098  006E4C  2E36               	decfsz	??_Draw_7& (0+255),f,c
  3099  006E4E  D7FC               	bra	u1867
  3100  006E50  D000               	nop2	
  3101                           
  3102                           ;main.c: 1010:     PORTCbits.RC6 = 0;
  3103  006E52  9C82               	bcf	3970,6,c	;volatile
  3104  006E54  0012               	return		;funcret
  3105  006E56                     __end_of_Draw_7:
  3106                           	opt callstack 0
  3107                           
  3108 ;; *************** function _Draw_6 *****************
  3109 ;; Defined at:
  3110 ;;		line 991 in file "main.c"
  3111 ;; Parameters:    Size  Location     Type
  3112 ;;		None
  3113 ;; Auto vars:     Size  Location     Type
  3114 ;;		None
  3115 ;; Return value:  Size  Location     Type
  3116 ;;                  1    wreg      void 
  3117 ;; Registers used:
  3118 ;;		wreg, status,2
  3119 ;; Tracked objects:
  3120 ;;		On entry : 0/0
  3121 ;;		On exit  : 0/0
  3122 ;;		Unchanged: 0/0
  3123 ;; Data sizes:     COMRAM   BANK0   BANK1   BANK2   BANK3   BANK4   BANK5   BANK6   BANK7
  3124 ;;      Params:         0       0       0       0       0       0       0       0       0
  3125 ;;      Locals:         0       0       0       0       0       0       0       0       0
  3126 ;;      Temps:          1       0       0       0       0       0       0       0       0
  3127 ;;      Totals:         1       0       0       0       0       0       0       0       0
  3128 ;;Total ram usage:        1 bytes
  3129 ;; Hardware stack levels used:    1
  3130 ;; This function calls:
  3131 ;;		Nothing
  3132 ;; This function is called by:
  3133 ;;		_Menu_P2
  3134 ;;		_Menu_P4
  3135 ;; This function uses a non-reentrant model
  3136 ;;
  3137                           
  3138                           	psect	text10
  3139  006DF2                     __ptext10:
  3140                           	opt callstack 0
  3141  006DF2                     _Draw_6:
  3142                           	opt callstack 27
  3143                           
  3144                           ;main.c: 992:     PORTB = 0x11;
  3145                           
  3146                           ;incstack = 0
  3147  006DF2  0E11               	movlw	17
  3148  006DF4  6E81               	movwf	3969,c	;volatile
  3149                           
  3150                           ;main.c: 993:     PORTCbits.RC7 = 0;
  3151  006DF6  9E82               	bcf	3970,7,c	;volatile
  3152                           
  3153                           ;main.c: 994:     _delay((unsigned long)((1600)*(20000000/4000000.0)));
  3154  006DF8  0E0B               	movlw	11
  3155  006DFA  6E36               	movwf	??_Draw_6& (0+255),c
  3156  006DFC  0E62               	movlw	98
  3157  006DFE                     u1877:
  3158  006DFE  2EE8               	decfsz	wreg,f,c
  3159  006E00  D7FE               	bra	u1877
  3160  006E02  2E36               	decfsz	??_Draw_6& (0+255),f,c
  3161  006E04  D7FC               	bra	u1877
  3162  006E06  D000               	nop2	
  3163                           
  3164                           ;main.c: 995:     PORTCbits.RC7 = 0;
  3165  006E08  9E82               	bcf	3970,7,c	;volatile
  3166                           
  3167                           ;main.c: 996:     PORTB = 0x05;
  3168  006E0A  0E05               	movlw	5
  3169  006E0C  6E81               	movwf	3969,c	;volatile
  3170                           
  3171                           ;main.c: 997:     PORTCbits.RC6 = 1;
  3172  006E0E  8C82               	bsf	3970,6,c	;volatile
  3173                           
  3174                           ;main.c: 998:     _delay((unsigned long)((1600)*(20000000/4000000.0)));
  3175  006E10  0E0B               	movlw	11
  3176  006E12  6E36               	movwf	??_Draw_6& (0+255),c
  3177  006E14  0E62               	movlw	98
  3178  006E16                     u1887:
  3179  006E16  2EE8               	decfsz	wreg,f,c
  3180  006E18  D7FE               	bra	u1887
  3181  006E1A  2E36               	decfsz	??_Draw_6& (0+255),f,c
  3182  006E1C  D7FC               	bra	u1887
  3183  006E1E  D000               	nop2	
  3184                           
  3185                           ;main.c: 999:     PORTCbits.RC6 = 0;
  3186  006E20  9C82               	bcf	3970,6,c	;volatile
  3187  006E22  0012               	return		;funcret
  3188  006E24                     __end_of_Draw_6:
  3189                           	opt callstack 0
  3190                           
  3191 ;; *************** function _Draw_5 *****************
  3192 ;; Defined at:
  3193 ;;		line 980 in file "main.c"
  3194 ;; Parameters:    Size  Location     Type
  3195 ;;		None
  3196 ;; Auto vars:     Size  Location     Type
  3197 ;;		None
  3198 ;; Return value:  Size  Location     Type
  3199 ;;                  1    wreg      void 
  3200 ;; Registers used:
  3201 ;;		wreg, status,2
  3202 ;; Tracked objects:
  3203 ;;		On entry : 0/0
  3204 ;;		On exit  : 0/0
  3205 ;;		Unchanged: 0/0
  3206 ;; Data sizes:     COMRAM   BANK0   BANK1   BANK2   BANK3   BANK4   BANK5   BANK6   BANK7
  3207 ;;      Params:         0       0       0       0       0       0       0       0       0
  3208 ;;      Locals:         0       0       0       0       0       0       0       0       0
  3209 ;;      Temps:          1       0       0       0       0       0       0       0       0
  3210 ;;      Totals:         1       0       0       0       0       0       0       0       0
  3211 ;;Total ram usage:        1 bytes
  3212 ;; Hardware stack levels used:    1
  3213 ;; This function calls:
  3214 ;;		Nothing
  3215 ;; This function is called by:
  3216 ;;		_Menu_P2
  3217 ;;		_Menu_P4
  3218 ;; This function uses a non-reentrant model
  3219 ;;
  3220                           
  3221                           	psect	text11
  3222  006DC0                     __ptext11:
  3223                           	opt callstack 0
  3224  006DC0                     _Draw_5:
  3225                           	opt callstack 27
  3226                           
  3227                           ;main.c: 981:     PORTB = 0x11;
  3228                           
  3229                           ;incstack = 0
  3230  006DC0  0E11               	movlw	17
  3231  006DC2  6E81               	movwf	3969,c	;volatile
  3232                           
  3233                           ;main.c: 982:     PORTCbits.RC7 = 0;
  3234  006DC4  9E82               	bcf	3970,7,c	;volatile
  3235                           
  3236                           ;main.c: 983:     _delay((unsigned long)((1600)*(20000000/4000000.0)));
  3237  006DC6  0E0B               	movlw	11
  3238  006DC8  6E36               	movwf	??_Draw_5& (0+255),c
  3239  006DCA  0E62               	movlw	98
  3240  006DCC                     u1897:
  3241  006DCC  2EE8               	decfsz	wreg,f,c
  3242  006DCE  D7FE               	bra	u1897
  3243  006DD0  2E36               	decfsz	??_Draw_5& (0+255),f,c
  3244  006DD2  D7FC               	bra	u1897
  3245  006DD4  D000               	nop2	
  3246                           
  3247                           ;main.c: 984:     PORTCbits.RC7 = 0;
  3248  006DD6  9E82               	bcf	3970,7,c	;volatile
  3249                           
  3250                           ;main.c: 985:     PORTB = 0x25;
  3251  006DD8  0E25               	movlw	37
  3252  006DDA  6E81               	movwf	3969,c	;volatile
  3253                           
  3254                           ;main.c: 986:     PORTCbits.RC6 = 1;
  3255  006DDC  8C82               	bsf	3970,6,c	;volatile
  3256                           
  3257                           ;main.c: 987:     _delay((unsigned long)((1600)*(20000000/4000000.0)));
  3258  006DDE  0E0B               	movlw	11
  3259  006DE0  6E36               	movwf	??_Draw_5& (0+255),c
  3260  006DE2  0E62               	movlw	98
  3261  006DE4                     u1907:
  3262  006DE4  2EE8               	decfsz	wreg,f,c
  3263  006DE6  D7FE               	bra	u1907
  3264  006DE8  2E36               	decfsz	??_Draw_5& (0+255),f,c
  3265  006DEA  D7FC               	bra	u1907
  3266  006DEC  D000               	nop2	
  3267                           
  3268                           ;main.c: 988:     PORTCbits.RC6 = 0;
  3269  006DEE  9C82               	bcf	3970,6,c	;volatile
  3270  006DF0  0012               	return		;funcret
  3271  006DF2                     __end_of_Draw_5:
  3272                           	opt callstack 0
  3273                           
  3274 ;; *************** function _Draw_4 *****************
  3275 ;; Defined at:
  3276 ;;		line 969 in file "main.c"
  3277 ;; Parameters:    Size  Location     Type
  3278 ;;		None
  3279 ;; Auto vars:     Size  Location     Type
  3280 ;;		None
  3281 ;; Return value:  Size  Location     Type
  3282 ;;                  1    wreg      void 
  3283 ;; Registers used:
  3284 ;;		wreg, status,2
  3285 ;; Tracked objects:
  3286 ;;		On entry : 0/0
  3287 ;;		On exit  : 0/0
  3288 ;;		Unchanged: 0/0
  3289 ;; Data sizes:     COMRAM   BANK0   BANK1   BANK2   BANK3   BANK4   BANK5   BANK6   BANK7
  3290 ;;      Params:         0       0       0       0       0       0       0       0       0
  3291 ;;      Locals:         0       0       0       0       0       0       0       0       0
  3292 ;;      Temps:          1       0       0       0       0       0       0       0       0
  3293 ;;      Totals:         1       0       0       0       0       0       0       0       0
  3294 ;;Total ram usage:        1 bytes
  3295 ;; Hardware stack levels used:    1
  3296 ;; This function calls:
  3297 ;;		Nothing
  3298 ;; This function is called by:
  3299 ;;		_Menu_P2
  3300 ;;		_Menu_P4
  3301 ;; This function uses a non-reentrant model
  3302 ;;
  3303                           
  3304                           	psect	text12
  3305  006D8E                     __ptext12:
  3306                           	opt callstack 0
  3307  006D8E                     _Draw_4:
  3308                           	opt callstack 27
  3309                           
  3310                           ;main.c: 970:     PORTB = 0x11;
  3311                           
  3312                           ;incstack = 0
  3313  006D8E  0E11               	movlw	17
  3314  006D90  6E81               	movwf	3969,c	;volatile
  3315                           
  3316                           ;main.c: 971:     PORTCbits.RC7 = 0;
  3317  006D92  9E82               	bcf	3970,7,c	;volatile
  3318                           
  3319                           ;main.c: 972:     _delay((unsigned long)((1600)*(20000000/4000000.0)));
  3320  006D94  0E0B               	movlw	11
  3321  006D96  6E36               	movwf	??_Draw_4& (0+255),c
  3322  006D98  0E62               	movlw	98
  3323  006D9A                     u1917:
  3324  006D9A  2EE8               	decfsz	wreg,f,c
  3325  006D9C  D7FE               	bra	u1917
  3326  006D9E  2E36               	decfsz	??_Draw_4& (0+255),f,c
  3327  006DA0  D7FC               	bra	u1917
  3328  006DA2  D000               	nop2	
  3329                           
  3330                           ;main.c: 973:     PORTCbits.RC7 = 0;
  3331  006DA4  9E82               	bcf	3970,7,c	;volatile
  3332                           
  3333                           ;main.c: 974:     PORTB = 0x33;
  3334  006DA6  0E33               	movlw	51
  3335  006DA8  6E81               	movwf	3969,c	;volatile
  3336                           
  3337                           ;main.c: 975:     PORTCbits.RC6 = 1;
  3338  006DAA  8C82               	bsf	3970,6,c	;volatile
  3339                           
  3340                           ;main.c: 976:     _delay((unsigned long)((1600)*(20000000/4000000.0)));
  3341  006DAC  0E0B               	movlw	11
  3342  006DAE  6E36               	movwf	??_Draw_4& (0+255),c
  3343  006DB0  0E62               	movlw	98
  3344  006DB2                     u1927:
  3345  006DB2  2EE8               	decfsz	wreg,f,c
  3346  006DB4  D7FE               	bra	u1927
  3347  006DB6  2E36               	decfsz	??_Draw_4& (0+255),f,c
  3348  006DB8  D7FC               	bra	u1927
  3349  006DBA  D000               	nop2	
  3350                           
  3351                           ;main.c: 977:     PORTCbits.RC6 = 0;
  3352  006DBC  9C82               	bcf	3970,6,c	;volatile
  3353  006DBE  0012               	return		;funcret
  3354  006DC0                     __end_of_Draw_4:
  3355                           	opt callstack 0
  3356                           
  3357 ;; *************** function _Draw_3 *****************
  3358 ;; Defined at:
  3359 ;;		line 958 in file "main.c"
  3360 ;; Parameters:    Size  Location     Type
  3361 ;;		None
  3362 ;; Auto vars:     Size  Location     Type
  3363 ;;		None
  3364 ;; Return value:  Size  Location     Type
  3365 ;;                  1    wreg      void 
  3366 ;; Registers used:
  3367 ;;		wreg, status,2
  3368 ;; Tracked objects:
  3369 ;;		On entry : 0/0
  3370 ;;		On exit  : 0/0
  3371 ;;		Unchanged: 0/0
  3372 ;; Data sizes:     COMRAM   BANK0   BANK1   BANK2   BANK3   BANK4   BANK5   BANK6   BANK7
  3373 ;;      Params:         0       0       0       0       0       0       0       0       0
  3374 ;;      Locals:         0       0       0       0       0       0       0       0       0
  3375 ;;      Temps:          1       0       0       0       0       0       0       0       0
  3376 ;;      Totals:         1       0       0       0       0       0       0       0       0
  3377 ;;Total ram usage:        1 bytes
  3378 ;; Hardware stack levels used:    1
  3379 ;; This function calls:
  3380 ;;		Nothing
  3381 ;; This function is called by:
  3382 ;;		_Menu_P2
  3383 ;;		_Menu_P4
  3384 ;; This function uses a non-reentrant model
  3385 ;;
  3386                           
  3387                           	psect	text13
  3388  006D5C                     __ptext13:
  3389                           	opt callstack 0
  3390  006D5C                     _Draw_3:
  3391                           	opt callstack 27
  3392                           
  3393                           ;main.c: 959:     PORTB = 0x11;
  3394                           
  3395                           ;incstack = 0
  3396  006D5C  0E11               	movlw	17
  3397  006D5E  6E81               	movwf	3969,c	;volatile
  3398                           
  3399                           ;main.c: 960:     PORTCbits.RC7 = 0;
  3400  006D60  9E82               	bcf	3970,7,c	;volatile
  3401                           
  3402                           ;main.c: 961:     _delay((unsigned long)((1600)*(20000000/4000000.0)));
  3403  006D62  0E0B               	movlw	11
  3404  006D64  6E36               	movwf	??_Draw_3& (0+255),c
  3405  006D66  0E62               	movlw	98
  3406  006D68                     u1937:
  3407  006D68  2EE8               	decfsz	wreg,f,c
  3408  006D6A  D7FE               	bra	u1937
  3409  006D6C  2E36               	decfsz	??_Draw_3& (0+255),f,c
  3410  006D6E  D7FC               	bra	u1937
  3411  006D70  D000               	nop2	
  3412                           
  3413                           ;main.c: 962:     PORTCbits.RC7 = 0;
  3414  006D72  9E82               	bcf	3970,7,c	;volatile
  3415                           
  3416                           ;main.c: 963:     PORTB = 0x61;
  3417  006D74  0E61               	movlw	97
  3418  006D76  6E81               	movwf	3969,c	;volatile
  3419                           
  3420                           ;main.c: 964:     PORTCbits.RC6 = 1;
  3421  006D78  8C82               	bsf	3970,6,c	;volatile
  3422                           
  3423                           ;main.c: 965:     _delay((unsigned long)((1600)*(20000000/4000000.0)));
  3424  006D7A  0E0B               	movlw	11
  3425  006D7C  6E36               	movwf	??_Draw_3& (0+255),c
  3426  006D7E  0E62               	movlw	98
  3427  006D80                     u1947:
  3428  006D80  2EE8               	decfsz	wreg,f,c
  3429  006D82  D7FE               	bra	u1947
  3430  006D84  2E36               	decfsz	??_Draw_3& (0+255),f,c
  3431  006D86  D7FC               	bra	u1947
  3432  006D88  D000               	nop2	
  3433                           
  3434                           ;main.c: 966:     PORTCbits.RC6 = 0;
  3435  006D8A  9C82               	bcf	3970,6,c	;volatile
  3436  006D8C  0012               	return		;funcret
  3437  006D8E                     __end_of_Draw_3:
  3438                           	opt callstack 0
  3439                           
  3440 ;; *************** function _Draw_2 *****************
  3441 ;; Defined at:
  3442 ;;		line 947 in file "main.c"
  3443 ;; Parameters:    Size  Location     Type
  3444 ;;		None
  3445 ;; Auto vars:     Size  Location     Type
  3446 ;;		None
  3447 ;; Return value:  Size  Location     Type
  3448 ;;                  1    wreg      void 
  3449 ;; Registers used:
  3450 ;;		wreg, status,2
  3451 ;; Tracked objects:
  3452 ;;		On entry : 0/0
  3453 ;;		On exit  : 0/0
  3454 ;;		Unchanged: 0/0
  3455 ;; Data sizes:     COMRAM   BANK0   BANK1   BANK2   BANK3   BANK4   BANK5   BANK6   BANK7
  3456 ;;      Params:         0       0       0       0       0       0       0       0       0
  3457 ;;      Locals:         0       0       0       0       0       0       0       0       0
  3458 ;;      Temps:          1       0       0       0       0       0       0       0       0
  3459 ;;      Totals:         1       0       0       0       0       0       0       0       0
  3460 ;;Total ram usage:        1 bytes
  3461 ;; Hardware stack levels used:    1
  3462 ;; This function calls:
  3463 ;;		Nothing
  3464 ;; This function is called by:
  3465 ;;		_Menu_P2
  3466 ;;		_Menu_P4
  3467 ;; This function uses a non-reentrant model
  3468 ;;
  3469                           
  3470                           	psect	text14
  3471  006D2A                     __ptext14:
  3472                           	opt callstack 0
  3473  006D2A                     _Draw_2:
  3474                           	opt callstack 27
  3475                           
  3476                           ;main.c: 948:     PORTB = 0x11;
  3477                           
  3478                           ;incstack = 0
  3479  006D2A  0E11               	movlw	17
  3480  006D2C  6E81               	movwf	3969,c	;volatile
  3481                           
  3482                           ;main.c: 949:     PORTCbits.RC7 = 0;
  3483  006D2E  9E82               	bcf	3970,7,c	;volatile
  3484                           
  3485                           ;main.c: 950:     _delay((unsigned long)((1600)*(20000000/4000000.0)));
  3486  006D30  0E0B               	movlw	11
  3487  006D32  6E36               	movwf	??_Draw_2& (0+255),c
  3488  006D34  0E62               	movlw	98
  3489  006D36                     u1957:
  3490  006D36  2EE8               	decfsz	wreg,f,c
  3491  006D38  D7FE               	bra	u1957
  3492  006D3A  2E36               	decfsz	??_Draw_2& (0+255),f,c
  3493  006D3C  D7FC               	bra	u1957
  3494  006D3E  D000               	nop2	
  3495                           
  3496                           ;main.c: 951:     PORTCbits.RC7 = 0;
  3497  006D40  9E82               	bcf	3970,7,c	;volatile
  3498                           
  3499                           ;main.c: 952:     PORTB = 0x49;
  3500  006D42  0E49               	movlw	73
  3501  006D44  6E81               	movwf	3969,c	;volatile
  3502                           
  3503                           ;main.c: 953:     PORTCbits.RC6 = 1;
  3504  006D46  8C82               	bsf	3970,6,c	;volatile
  3505                           
  3506                           ;main.c: 954:     _delay((unsigned long)((1600)*(20000000/4000000.0)));
  3507  006D48  0E0B               	movlw	11
  3508  006D4A  6E36               	movwf	??_Draw_2& (0+255),c
  3509  006D4C  0E62               	movlw	98
  3510  006D4E                     u1967:
  3511  006D4E  2EE8               	decfsz	wreg,f,c
  3512  006D50  D7FE               	bra	u1967
  3513  006D52  2E36               	decfsz	??_Draw_2& (0+255),f,c
  3514  006D54  D7FC               	bra	u1967
  3515  006D56  D000               	nop2	
  3516                           
  3517                           ;main.c: 955:     PORTCbits.RC6 = 0;
  3518  006D58  9C82               	bcf	3970,6,c	;volatile
  3519  006D5A  0012               	return		;funcret
  3520  006D5C                     __end_of_Draw_2:
  3521                           	opt callstack 0
  3522                           
  3523 ;; *************** function _Draw_15 *****************
  3524 ;; Defined at:
  3525 ;;		line 1090 in file "main.c"
  3526 ;; Parameters:    Size  Location     Type
  3527 ;;		None
  3528 ;; Auto vars:     Size  Location     Type
  3529 ;;		None
  3530 ;; Return value:  Size  Location     Type
  3531 ;;                  1    wreg      void 
  3532 ;; Registers used:
  3533 ;;		wreg, status,2
  3534 ;; Tracked objects:
  3535 ;;		On entry : 0/0
  3536 ;;		On exit  : 0/0
  3537 ;;		Unchanged: 0/0
  3538 ;; Data sizes:     COMRAM   BANK0   BANK1   BANK2   BANK3   BANK4   BANK5   BANK6   BANK7
  3539 ;;      Params:         0       0       0       0       0       0       0       0       0
  3540 ;;      Locals:         0       0       0       0       0       0       0       0       0
  3541 ;;      Temps:          1       0       0       0       0       0       0       0       0
  3542 ;;      Totals:         1       0       0       0       0       0       0       0       0
  3543 ;;Total ram usage:        1 bytes
  3544 ;; Hardware stack levels used:    1
  3545 ;; This function calls:
  3546 ;;		Nothing
  3547 ;; This function is called by:
  3548 ;;		_Menu_P2
  3549 ;;		_Menu_P4
  3550 ;; This function uses a non-reentrant model
  3551 ;;
  3552                           
  3553                           	psect	text15
  3554  006CF8                     __ptext15:
  3555                           	opt callstack 0
  3556  006CF8                     _Draw_15:
  3557                           	opt callstack 27
  3558                           
  3559                           ;main.c: 1091:     PORTB = 0xF3;
  3560                           
  3561                           ;incstack = 0
  3562  006CF8  0EF3               	movlw	243
  3563  006CFA  6E81               	movwf	3969,c	;volatile
  3564                           
  3565                           ;main.c: 1092:     PORTCbits.RC7 = 1;
  3566  006CFC  8E82               	bsf	3970,7,c	;volatile
  3567                           
  3568                           ;main.c: 1093:     _delay((unsigned long)((1600)*(20000000/4000000.0)));
  3569  006CFE  0E0B               	movlw	11
  3570  006D00  6E36               	movwf	??_Draw_15& (0+255),c
  3571  006D02  0E62               	movlw	98
  3572  006D04                     u1977:
  3573  006D04  2EE8               	decfsz	wreg,f,c
  3574  006D06  D7FE               	bra	u1977
  3575  006D08  2E36               	decfsz	??_Draw_15& (0+255),f,c
  3576  006D0A  D7FC               	bra	u1977
  3577  006D0C  D000               	nop2	
  3578                           
  3579                           ;main.c: 1094:     PORTCbits.RC7 = 0;
  3580  006D0E  9E82               	bcf	3970,7,c	;volatile
  3581                           
  3582                           ;main.c: 1095:     PORTB = 0x25;
  3583  006D10  0E25               	movlw	37
  3584  006D12  6E81               	movwf	3969,c	;volatile
  3585                           
  3586                           ;main.c: 1096:     PORTCbits.RC6 = 1;
  3587  006D14  8C82               	bsf	3970,6,c	;volatile
  3588                           
  3589                           ;main.c: 1097:     _delay((unsigned long)((1600)*(20000000/4000000.0)));
  3590  006D16  0E0B               	movlw	11
  3591  006D18  6E36               	movwf	??_Draw_15& (0+255),c
  3592  006D1A  0E62               	movlw	98
  3593  006D1C                     u1987:
  3594  006D1C  2EE8               	decfsz	wreg,f,c
  3595  006D1E  D7FE               	bra	u1987
  3596  006D20  2E36               	decfsz	??_Draw_15& (0+255),f,c
  3597  006D22  D7FC               	bra	u1987
  3598  006D24  D000               	nop2	
  3599                           
  3600                           ;main.c: 1098:     PORTCbits.RC6 = 0;
  3601  006D26  9C82               	bcf	3970,6,c	;volatile
  3602  006D28  0012               	return		;funcret
  3603  006D2A                     __end_of_Draw_15:
  3604                           	opt callstack 0
  3605                           
  3606 ;; *************** function _Draw_14 *****************
  3607 ;; Defined at:
  3608 ;;		line 1079 in file "main.c"
  3609 ;; Parameters:    Size  Location     Type
  3610 ;;		None
  3611 ;; Auto vars:     Size  Location     Type
  3612 ;;		None
  3613 ;; Return value:  Size  Location     Type
  3614 ;;                  1    wreg      void 
  3615 ;; Registers used:
  3616 ;;		wreg, status,2
  3617 ;; Tracked objects:
  3618 ;;		On entry : 0/0
  3619 ;;		On exit  : 0/0
  3620 ;;		Unchanged: 0/0
  3621 ;; Data sizes:     COMRAM   BANK0   BANK1   BANK2   BANK3   BANK4   BANK5   BANK6   BANK7
  3622 ;;      Params:         0       0       0       0       0       0       0       0       0
  3623 ;;      Locals:         0       0       0       0       0       0       0       0       0
  3624 ;;      Temps:          1       0       0       0       0       0       0       0       0
  3625 ;;      Totals:         1       0       0       0       0       0       0       0       0
  3626 ;;Total ram usage:        1 bytes
  3627 ;; Hardware stack levels used:    1
  3628 ;; This function calls:
  3629 ;;		Nothing
  3630 ;; This function is called by:
  3631 ;;		_Menu_P2
  3632 ;;		_Menu_P4
  3633 ;; This function uses a non-reentrant model
  3634 ;;
  3635                           
  3636                           	psect	text16
  3637  006CC6                     __ptext16:
  3638                           	opt callstack 0
  3639  006CC6                     _Draw_14:
  3640                           	opt callstack 27
  3641                           
  3642                           ;main.c: 1080:     PORTB = 0xF3;
  3643                           
  3644                           ;incstack = 0
  3645  006CC6  0EF3               	movlw	243
  3646  006CC8  6E81               	movwf	3969,c	;volatile
  3647                           
  3648                           ;main.c: 1081:     PORTCbits.RC7 = 1;
  3649  006CCA  8E82               	bsf	3970,7,c	;volatile
  3650                           
  3651                           ;main.c: 1082:     _delay((unsigned long)((1600)*(20000000/4000000.0)));
  3652  006CCC  0E0B               	movlw	11
  3653  006CCE  6E36               	movwf	??_Draw_14& (0+255),c
  3654  006CD0  0E62               	movlw	98
  3655  006CD2                     u1997:
  3656  006CD2  2EE8               	decfsz	wreg,f,c
  3657  006CD4  D7FE               	bra	u1997
  3658  006CD6  2E36               	decfsz	??_Draw_14& (0+255),f,c
  3659  006CD8  D7FC               	bra	u1997
  3660  006CDA  D000               	nop2	
  3661                           
  3662                           ;main.c: 1083:     PORTCbits.RC7 = 0;
  3663  006CDC  9E82               	bcf	3970,7,c	;volatile
  3664                           
  3665                           ;main.c: 1084:     PORTB = 0x33;
  3666  006CDE  0E33               	movlw	51
  3667  006CE0  6E81               	movwf	3969,c	;volatile
  3668                           
  3669                           ;main.c: 1085:     PORTCbits.RC6 = 1;
  3670  006CE2  8C82               	bsf	3970,6,c	;volatile
  3671                           
  3672                           ;main.c: 1086:     _delay((unsigned long)((1600)*(20000000/4000000.0)));
  3673  006CE4  0E0B               	movlw	11
  3674  006CE6  6E36               	movwf	??_Draw_14& (0+255),c
  3675  006CE8  0E62               	movlw	98
  3676  006CEA                     u2007:
  3677  006CEA  2EE8               	decfsz	wreg,f,c
  3678  006CEC  D7FE               	bra	u2007
  3679  006CEE  2E36               	decfsz	??_Draw_14& (0+255),f,c
  3680  006CF0  D7FC               	bra	u2007
  3681  006CF2  D000               	nop2	
  3682                           
  3683                           ;main.c: 1087:     PORTCbits.RC6 = 0;
  3684  006CF4  9C82               	bcf	3970,6,c	;volatile
  3685  006CF6  0012               	return		;funcret
  3686  006CF8                     __end_of_Draw_14:
  3687                           	opt callstack 0
  3688                           
  3689 ;; *************** function _Draw_13 *****************
  3690 ;; Defined at:
  3691 ;;		line 1068 in file "main.c"
  3692 ;; Parameters:    Size  Location     Type
  3693 ;;		None
  3694 ;; Auto vars:     Size  Location     Type
  3695 ;;		None
  3696 ;; Return value:  Size  Location     Type
  3697 ;;                  1    wreg      void 
  3698 ;; Registers used:
  3699 ;;		wreg, status,2
  3700 ;; Tracked objects:
  3701 ;;		On entry : 0/0
  3702 ;;		On exit  : 0/0
  3703 ;;		Unchanged: 0/0
  3704 ;; Data sizes:     COMRAM   BANK0   BANK1   BANK2   BANK3   BANK4   BANK5   BANK6   BANK7
  3705 ;;      Params:         0       0       0       0       0       0       0       0       0
  3706 ;;      Locals:         0       0       0       0       0       0       0       0       0
  3707 ;;      Temps:          1       0       0       0       0       0       0       0       0
  3708 ;;      Totals:         1       0       0       0       0       0       0       0       0
  3709 ;;Total ram usage:        1 bytes
  3710 ;; Hardware stack levels used:    1
  3711 ;; This function calls:
  3712 ;;		Nothing
  3713 ;; This function is called by:
  3714 ;;		_Menu_P2
  3715 ;;		_Menu_P4
  3716 ;; This function uses a non-reentrant model
  3717 ;;
  3718                           
  3719                           	psect	text17
  3720  006C94                     __ptext17:
  3721                           	opt callstack 0
  3722  006C94                     _Draw_13:
  3723                           	opt callstack 27
  3724                           
  3725                           ;main.c: 1069:     PORTB = 0xF3;
  3726                           
  3727                           ;incstack = 0
  3728  006C94  0EF3               	movlw	243
  3729  006C96  6E81               	movwf	3969,c	;volatile
  3730                           
  3731                           ;main.c: 1070:     PORTCbits.RC7 = 1;
  3732  006C98  8E82               	bsf	3970,7,c	;volatile
  3733                           
  3734                           ;main.c: 1071:     _delay((unsigned long)((1600)*(20000000/4000000.0)));
  3735  006C9A  0E0B               	movlw	11
  3736  006C9C  6E36               	movwf	??_Draw_13& (0+255),c
  3737  006C9E  0E62               	movlw	98
  3738  006CA0                     u2017:
  3739  006CA0  2EE8               	decfsz	wreg,f,c
  3740  006CA2  D7FE               	bra	u2017
  3741  006CA4  2E36               	decfsz	??_Draw_13& (0+255),f,c
  3742  006CA6  D7FC               	bra	u2017
  3743  006CA8  D000               	nop2	
  3744                           
  3745                           ;main.c: 1072:     PORTCbits.RC7 = 0;
  3746  006CAA  9E82               	bcf	3970,7,c	;volatile
  3747                           
  3748                           ;main.c: 1073:     PORTB = 0x61;
  3749  006CAC  0E61               	movlw	97
  3750  006CAE  6E81               	movwf	3969,c	;volatile
  3751                           
  3752                           ;main.c: 1074:     PORTCbits.RC6 = 1;
  3753  006CB0  8C82               	bsf	3970,6,c	;volatile
  3754                           
  3755                           ;main.c: 1075:     _delay((unsigned long)((1600)*(20000000/4000000.0)));
  3756  006CB2  0E0B               	movlw	11
  3757  006CB4  6E36               	movwf	??_Draw_13& (0+255),c
  3758  006CB6  0E62               	movlw	98
  3759  006CB8                     u2027:
  3760  006CB8  2EE8               	decfsz	wreg,f,c
  3761  006CBA  D7FE               	bra	u2027
  3762  006CBC  2E36               	decfsz	??_Draw_13& (0+255),f,c
  3763  006CBE  D7FC               	bra	u2027
  3764  006CC0  D000               	nop2	
  3765                           
  3766                           ;main.c: 1076:     PORTCbits.RC6 = 0;
  3767  006CC2  9C82               	bcf	3970,6,c	;volatile
  3768  006CC4  0012               	return		;funcret
  3769  006CC6                     __end_of_Draw_13:
  3770                           	opt callstack 0
  3771                           
  3772 ;; *************** function _Draw_12 *****************
  3773 ;; Defined at:
  3774 ;;		line 1057 in file "main.c"
  3775 ;; Parameters:    Size  Location     Type
  3776 ;;		None
  3777 ;; Auto vars:     Size  Location     Type
  3778 ;;		None
  3779 ;; Return value:  Size  Location     Type
  3780 ;;                  1    wreg      void 
  3781 ;; Registers used:
  3782 ;;		wreg, status,2
  3783 ;; Tracked objects:
  3784 ;;		On entry : 0/0
  3785 ;;		On exit  : 0/0
  3786 ;;		Unchanged: 0/0
  3787 ;; Data sizes:     COMRAM   BANK0   BANK1   BANK2   BANK3   BANK4   BANK5   BANK6   BANK7
  3788 ;;      Params:         0       0       0       0       0       0       0       0       0
  3789 ;;      Locals:         0       0       0       0       0       0       0       0       0
  3790 ;;      Temps:          1       0       0       0       0       0       0       0       0
  3791 ;;      Totals:         1       0       0       0       0       0       0       0       0
  3792 ;;Total ram usage:        1 bytes
  3793 ;; Hardware stack levels used:    1
  3794 ;; This function calls:
  3795 ;;		Nothing
  3796 ;; This function is called by:
  3797 ;;		_Menu_P2
  3798 ;;		_Menu_P4
  3799 ;; This function uses a non-reentrant model
  3800 ;;
  3801                           
  3802                           	psect	text18
  3803  006C62                     __ptext18:
  3804                           	opt callstack 0
  3805  006C62                     _Draw_12:
  3806                           	opt callstack 27
  3807                           
  3808                           ;main.c: 1058:     PORTB = 0xF3;
  3809                           
  3810                           ;incstack = 0
  3811  006C62  0EF3               	movlw	243
  3812  006C64  6E81               	movwf	3969,c	;volatile
  3813                           
  3814                           ;main.c: 1059:     PORTCbits.RC7 = 1;
  3815  006C66  8E82               	bsf	3970,7,c	;volatile
  3816                           
  3817                           ;main.c: 1060:     _delay((unsigned long)((1600)*(20000000/4000000.0)));
  3818  006C68  0E0B               	movlw	11
  3819  006C6A  6E36               	movwf	??_Draw_12& (0+255),c
  3820  006C6C  0E62               	movlw	98
  3821  006C6E                     u2037:
  3822  006C6E  2EE8               	decfsz	wreg,f,c
  3823  006C70  D7FE               	bra	u2037
  3824  006C72  2E36               	decfsz	??_Draw_12& (0+255),f,c
  3825  006C74  D7FC               	bra	u2037
  3826  006C76  D000               	nop2	
  3827                           
  3828                           ;main.c: 1061:     PORTCbits.RC7 = 0;
  3829  006C78  9E82               	bcf	3970,7,c	;volatile
  3830                           
  3831                           ;main.c: 1062:     PORTB = 0x49;
  3832  006C7A  0E49               	movlw	73
  3833  006C7C  6E81               	movwf	3969,c	;volatile
  3834                           
  3835                           ;main.c: 1063:     PORTCbits.RC6 = 1;
  3836  006C7E  8C82               	bsf	3970,6,c	;volatile
  3837                           
  3838                           ;main.c: 1064:     _delay((unsigned long)((1600)*(20000000/4000000.0)));
  3839  006C80  0E0B               	movlw	11
  3840  006C82  6E36               	movwf	??_Draw_12& (0+255),c
  3841  006C84  0E62               	movlw	98
  3842  006C86                     u2047:
  3843  006C86  2EE8               	decfsz	wreg,f,c
  3844  006C88  D7FE               	bra	u2047
  3845  006C8A  2E36               	decfsz	??_Draw_12& (0+255),f,c
  3846  006C8C  D7FC               	bra	u2047
  3847  006C8E  D000               	nop2	
  3848                           
  3849                           ;main.c: 1065:     PORTCbits.RC6 = 0;
  3850  006C90  9C82               	bcf	3970,6,c	;volatile
  3851  006C92  0012               	return		;funcret
  3852  006C94                     __end_of_Draw_12:
  3853                           	opt callstack 0
  3854                           
  3855 ;; *************** function _Draw_11 *****************
  3856 ;; Defined at:
  3857 ;;		line 1046 in file "main.c"
  3858 ;; Parameters:    Size  Location     Type
  3859 ;;		None
  3860 ;; Auto vars:     Size  Location     Type
  3861 ;;		None
  3862 ;; Return value:  Size  Location     Type
  3863 ;;                  1    wreg      void 
  3864 ;; Registers used:
  3865 ;;		wreg, status,2
  3866 ;; Tracked objects:
  3867 ;;		On entry : 0/0
  3868 ;;		On exit  : 0/0
  3869 ;;		Unchanged: 0/0
  3870 ;; Data sizes:     COMRAM   BANK0   BANK1   BANK2   BANK3   BANK4   BANK5   BANK6   BANK7
  3871 ;;      Params:         0       0       0       0       0       0       0       0       0
  3872 ;;      Locals:         0       0       0       0       0       0       0       0       0
  3873 ;;      Temps:          1       0       0       0       0       0       0       0       0
  3874 ;;      Totals:         1       0       0       0       0       0       0       0       0
  3875 ;;Total ram usage:        1 bytes
  3876 ;; Hardware stack levels used:    1
  3877 ;; This function calls:
  3878 ;;		Nothing
  3879 ;; This function is called by:
  3880 ;;		_Menu_P2
  3881 ;;		_Menu_P4
  3882 ;; This function uses a non-reentrant model
  3883 ;;
  3884                           
  3885                           	psect	text19
  3886  006C30                     __ptext19:
  3887                           	opt callstack 0
  3888  006C30                     _Draw_11:
  3889                           	opt callstack 27
  3890                           
  3891                           ;main.c: 1047:     PORTB = 0xF3;
  3892                           
  3893                           ;incstack = 0
  3894  006C30  0EF3               	movlw	243
  3895  006C32  6E81               	movwf	3969,c	;volatile
  3896                           
  3897                           ;main.c: 1048:     PORTCbits.RC7 = 1;
  3898  006C34  8E82               	bsf	3970,7,c	;volatile
  3899                           
  3900                           ;main.c: 1049:     _delay((unsigned long)((1600)*(20000000/4000000.0)));
  3901  006C36  0E0B               	movlw	11
  3902  006C38  6E36               	movwf	??_Draw_11& (0+255),c
  3903  006C3A  0E62               	movlw	98
  3904  006C3C                     u2057:
  3905  006C3C  2EE8               	decfsz	wreg,f,c
  3906  006C3E  D7FE               	bra	u2057
  3907  006C40  2E36               	decfsz	??_Draw_11& (0+255),f,c
  3908  006C42  D7FC               	bra	u2057
  3909  006C44  D000               	nop2	
  3910                           
  3911                           ;main.c: 1050:     PORTCbits.RC7 = 0;
  3912  006C46  9E82               	bcf	3970,7,c	;volatile
  3913                           
  3914                           ;main.c: 1051:     PORTB = 0xF3;
  3915  006C48  0EF3               	movlw	243
  3916  006C4A  6E81               	movwf	3969,c	;volatile
  3917                           
  3918                           ;main.c: 1052:     PORTCbits.RC6 = 1;
  3919  006C4C  8C82               	bsf	3970,6,c	;volatile
  3920                           
  3921                           ;main.c: 1053:     _delay((unsigned long)((1600)*(20000000/4000000.0)));
  3922  006C4E  0E0B               	movlw	11
  3923  006C50  6E36               	movwf	??_Draw_11& (0+255),c
  3924  006C52  0E62               	movlw	98
  3925  006C54                     u2067:
  3926  006C54  2EE8               	decfsz	wreg,f,c
  3927  006C56  D7FE               	bra	u2067
  3928  006C58  2E36               	decfsz	??_Draw_11& (0+255),f,c
  3929  006C5A  D7FC               	bra	u2067
  3930  006C5C  D000               	nop2	
  3931                           
  3932                           ;main.c: 1054:     PORTCbits.RC6 = 0;
  3933  006C5E  9C82               	bcf	3970,6,c	;volatile
  3934  006C60  0012               	return		;funcret
  3935  006C62                     __end_of_Draw_11:
  3936                           	opt callstack 0
  3937                           
  3938 ;; *************** function _Draw_10 *****************
  3939 ;; Defined at:
  3940 ;;		line 1035 in file "main.c"
  3941 ;; Parameters:    Size  Location     Type
  3942 ;;		None
  3943 ;; Auto vars:     Size  Location     Type
  3944 ;;		None
  3945 ;; Return value:  Size  Location     Type
  3946 ;;                  1    wreg      void 
  3947 ;; Registers used:
  3948 ;;		wreg, status,2
  3949 ;; Tracked objects:
  3950 ;;		On entry : 0/0
  3951 ;;		On exit  : 0/0
  3952 ;;		Unchanged: 0/0
  3953 ;; Data sizes:     COMRAM   BANK0   BANK1   BANK2   BANK3   BANK4   BANK5   BANK6   BANK7
  3954 ;;      Params:         0       0       0       0       0       0       0       0       0
  3955 ;;      Locals:         0       0       0       0       0       0       0       0       0
  3956 ;;      Temps:          1       0       0       0       0       0       0       0       0
  3957 ;;      Totals:         1       0       0       0       0       0       0       0       0
  3958 ;;Total ram usage:        1 bytes
  3959 ;; Hardware stack levels used:    1
  3960 ;; This function calls:
  3961 ;;		Nothing
  3962 ;; This function is called by:
  3963 ;;		_Menu_P2
  3964 ;;		_Menu_P4
  3965 ;; This function uses a non-reentrant model
  3966 ;;
  3967                           
  3968                           	psect	text20
  3969  006BFE                     __ptext20:
  3970                           	opt callstack 0
  3971  006BFE                     _Draw_10:
  3972                           	opt callstack 27
  3973                           
  3974                           ;main.c: 1036:     PORTB = 0xF3;
  3975                           
  3976                           ;incstack = 0
  3977  006BFE  0EF3               	movlw	243
  3978  006C00  6E81               	movwf	3969,c	;volatile
  3979                           
  3980                           ;main.c: 1037:     PORTCbits.RC7 = 1;
  3981  006C02  8E82               	bsf	3970,7,c	;volatile
  3982                           
  3983                           ;main.c: 1038:     _delay((unsigned long)((1600)*(20000000/4000000.0)));
  3984  006C04  0E0B               	movlw	11
  3985  006C06  6E36               	movwf	??_Draw_10& (0+255),c
  3986  006C08  0E62               	movlw	98
  3987  006C0A                     u2077:
  3988  006C0A  2EE8               	decfsz	wreg,f,c
  3989  006C0C  D7FE               	bra	u2077
  3990  006C0E  2E36               	decfsz	??_Draw_10& (0+255),f,c
  3991  006C10  D7FC               	bra	u2077
  3992  006C12  D000               	nop2	
  3993                           
  3994                           ;main.c: 1039:     PORTCbits.RC7 = 0;
  3995  006C14  9E82               	bcf	3970,7,c	;volatile
  3996                           
  3997                           ;main.c: 1040:     PORTB = 0x81;
  3998  006C16  0E81               	movlw	129
  3999  006C18  6E81               	movwf	3969,c	;volatile
  4000                           
  4001                           ;main.c: 1041:     PORTCbits.RC6 = 1;
  4002  006C1A  8C82               	bsf	3970,6,c	;volatile
  4003                           
  4004                           ;main.c: 1042:     _delay((unsigned long)((1600)*(20000000/4000000.0)));
  4005  006C1C  0E0B               	movlw	11
  4006  006C1E  6E36               	movwf	??_Draw_10& (0+255),c
  4007  006C20  0E62               	movlw	98
  4008  006C22                     u2087:
  4009  006C22  2EE8               	decfsz	wreg,f,c
  4010  006C24  D7FE               	bra	u2087
  4011  006C26  2E36               	decfsz	??_Draw_10& (0+255),f,c
  4012  006C28  D7FC               	bra	u2087
  4013  006C2A  D000               	nop2	
  4014                           
  4015                           ;main.c: 1043:     PORTCbits.RC6 = 0;
  4016  006C2C  9C82               	bcf	3970,6,c	;volatile
  4017  006C2E  0012               	return		;funcret
  4018  006C30                     __end_of_Draw_10:
  4019                           	opt callstack 0
  4020                           
  4021 ;; *************** function _Menu_P1 *****************
  4022 ;; Defined at:
  4023 ;;		line 488 in file "main.c"
  4024 ;; Parameters:    Size  Location     Type
  4025 ;;		None
  4026 ;; Auto vars:     Size  Location     Type
  4027 ;;		None
  4028 ;; Return value:  Size  Location     Type
  4029 ;;                  1    wreg      void 
  4030 ;; Registers used:
  4031 ;;		wreg, status,2, status,0, cstack
  4032 ;; Tracked objects:
  4033 ;;		On entry : 0/0
  4034 ;;		On exit  : 0/0
  4035 ;;		Unchanged: 0/0
  4036 ;; Data sizes:     COMRAM   BANK0   BANK1   BANK2   BANK3   BANK4   BANK5   BANK6   BANK7
  4037 ;;      Params:         0       0       0       0       0       0       0       0       0
  4038 ;;      Locals:         0       0       0       0       0       0       0       0       0
  4039 ;;      Temps:          2       0       0       0       0       0       0       0       0
  4040 ;;      Totals:         2       0       0       0       0       0       0       0       0
  4041 ;;Total ram usage:        2 bytes
  4042 ;; Hardware stack levels used:    1
  4043 ;; Hardware stack levels required when called:    2
  4044 ;; This function calls:
  4045 ;;		_Draw_0
  4046 ;;		_Draw_1
  4047 ;;		_Exit_Time_Menu
  4048 ;;		_Recording
  4049 ;;		_eeprom_writex
  4050 ;; This function is called by:
  4051 ;;		_Menu
  4052 ;; This function uses a non-reentrant model
  4053 ;;
  4054                           
  4055                           	psect	text21
  4056  00719C                     __ptext21:
  4057                           	opt callstack 0
  4058  00719C                     _Menu_P1:
  4059                           	opt callstack 26
  4060                           
  4061                           ;main.c: 490:         switch (Count_Push_Button)
  4062                           
  4063                           ;incstack = 0
  4064                           ;main.c: 489:     do {
  4065  00719C  D00B               	goto	l2453
  4066  00719E                     l2445:
  4067                           
  4068                           ;main.c: 493:             Draw_0();
  4069  00719E  EC9B  F035         	call	_Draw_0	;wreg free
  4070                           
  4071                           ;main.c: 494:             break;
  4072  0071A2  D018               	goto	l2455
  4073  0071A4                     l2447:
  4074                           
  4075                           ;main.c: 496:             Draw_1();
  4076  0071A4  ECB4  F035         	call	_Draw_1	;wreg free
  4077                           
  4078                           ;main.c: 497:             break;
  4079  0071A8  D015               	goto	l2455
  4080  0071AA                     l2449:
  4081                           
  4082                           ;main.c: 499:             Count_Push_Button = 0;
  4083  0071AA  0E00               	movlw	0
  4084  0071AC  6E26               	movwf	_Count_Push_Button+1,c
  4085  0071AE  0E00               	movlw	0
  4086  0071B0  6E25               	movwf	_Count_Push_Button,c
  4087                           
  4088                           ;main.c: 500:             break;
  4089  0071B2  D010               	goto	l2455
  4090  0071B4                     l2453:
  4091  0071B4  C025  F039         	movff	_Count_Push_Button,??_Menu_P1
  4092  0071B8  C026  F03A         	movff	_Count_Push_Button+1,??_Menu_P1+1
  4093                           
  4094                           ; Switch on 2 bytes has been partitioned into a top level switch of size 1, and 1 sub-sw
      +                          itches
  4095                           ; Switch size 1, requested type "simple"
  4096                           ; Number of cases is 1, Range of values is 0 to 0
  4097                           ; switch strategies available:
  4098                           ; Name         Instructions Cycles
  4099                           ; simple_byte            4     3 (average)
  4100                           ;	Chosen strategy is simple_byte
  4101  0071BC  503A               	movf	??_Menu_P1+1,w,c
  4102  0071BE  0A00               	xorlw	0	; case 0
  4103  0071C0  A4D8               	btfss	status,2,c
  4104  0071C2  D7F3               	goto	l2449
  4105                           
  4106                           ; Switch size 1, requested type "simple"
  4107                           ; Number of cases is 2, Range of values is 0 to 1
  4108                           ; switch strategies available:
  4109                           ; Name         Instructions Cycles
  4110                           ; simple_byte            7     4 (average)
  4111                           ;	Chosen strategy is simple_byte
  4112  0071C4  5039               	movf	??_Menu_P1,w,c
  4113  0071C6  0A00               	xorlw	0	; case 0
  4114  0071C8  B4D8               	btfsc	status,2,c
  4115  0071CA  D7E9               	goto	l2445
  4116  0071CC  0A01               	xorlw	1	; case 1
  4117  0071CE  B4D8               	btfsc	status,2,c
  4118  0071D0  D7E9               	goto	l2447
  4119  0071D2  D7EB               	goto	l2449
  4120  0071D4                     l2455:
  4121                           
  4122                           ;main.c: 503:         Button_Menu_Down_State = PORTCbits.RC0;
  4123  0071D4  A082               	btfss	3970,0,c	;volatile
  4124  0071D6  D002               	goto	u890
  4125  0071D8  0E01               	movlw	1
  4126  0071DA  D001               	goto	u896
  4127  0071DC                     u890:
  4128  0071DC  0E00               	movlw	0
  4129  0071DE                     u896:
  4130  0071DE  6E30               	movwf	_Button_Menu_Down_State,c
  4131                           
  4132                           ;main.c: 504:         if (Button_Menu_Down_State == 0 && Last_Button_Menu_Down_State == 
      +                          1) {
  4133  0071E0  5030               	movf	_Button_Menu_Down_State,w,c
  4134  0071E2  A4D8               	btfss	status,2,c
  4135  0071E4  D00D               	goto	l2463
  4136  0071E6  0444               	decf	_Last_Button_Menu_Down_State,w,c
  4137  0071E8  A4D8               	btfss	status,2,c
  4138  0071EA  D00A               	goto	l2463
  4139                           
  4140                           ;main.c: 505:             Count_Push_Button++;
  4141  0071EC  4A25               	infsnz	_Count_Push_Button,f,c
  4142  0071EE  2A26               	incf	_Count_Push_Button+1,f,c
  4143                           
  4144                           ;main.c: 506:             Count_Exit_Menu = 0;
  4145  0071F0  0E00               	movlw	0
  4146  0071F2  6E11               	movwf	_Count_Exit_Menu,c
  4147  0071F4  0E00               	movlw	0
  4148  0071F6  6E12               	movwf	_Count_Exit_Menu+1,c
  4149  0071F8  0E00               	movlw	0
  4150  0071FA  6E13               	movwf	_Count_Exit_Menu+2,c
  4151  0071FC  0E00               	movlw	0
  4152  0071FE  6E14               	movwf	_Count_Exit_Menu+3,c
  4153  007200                     l2463:
  4154                           
  4155                           ;main.c: 508:         Last_Button_Menu_Down_State = Button_Menu_Down_State;
  4156  007200  C030  F044         	movff	_Button_Menu_Down_State,_Last_Button_Menu_Down_State
  4157                           
  4158                           ;main.c: 511:         Button_Menu_Up_State = PORTAbits.RA5;
  4159  007204  AA80               	btfss	3968,5,c	;volatile
  4160  007206  D002               	goto	u920
  4161  007208  0E01               	movlw	1
  4162  00720A  D001               	goto	u926
  4163  00720C                     u920:
  4164  00720C  0E00               	movlw	0
  4165  00720E                     u926:
  4166  00720E  6E43               	movwf	_Button_Menu_Up_State,c
  4167                           
  4168                           ;main.c: 512:         if (Button_Menu_Up_State == 0 && Last_Button_Menu_Up_State == 1) {
  4169  007210  5043               	movf	_Button_Menu_Up_State,w,c
  4170  007212  A4D8               	btfss	status,2,c
  4171  007214  D02D               	goto	l280
  4172  007216  0445               	decf	_Last_Button_Menu_Up_State,w,c
  4173  007218  B4D8               	btfsc	status,2,c
  4174  00721A  D01A               	goto	l2485
  4175  00721C  D029               	goto	l280
  4176  00721E                     l2473:
  4177                           
  4178                           ;main.c: 516:                 eeprom_writex(0x01, 0x00);
  4179  00721E  0E00               	movlw	0
  4180  007220  6E37               	movwf	eeprom_writex@address+1,c
  4181  007222  0E01               	movlw	1
  4182  007224  6E36               	movwf	eeprom_writex@address,c
  4183  007226  0E00               	movlw	0
  4184  007228  6E38               	movwf	eeprom_writex@data,c
  4185  00722A  ECEB  F034         	call	_eeprom_writex	;wreg free
  4186  00722E                     l2475:
  4187                           
  4188                           ;main.c: 517:                 Recording();
  4189  00722E  ECC9  F037         	call	_Recording	;wreg free
  4190                           
  4191                           ;main.c: 518:                 break;
  4192  007232  D01E               	goto	l280
  4193  007234                     l2477:
  4194                           
  4195                           ;main.c: 520:                 eeprom_writex(0x01, 0x01);
  4196  007234  0E00               	movlw	0
  4197  007236  6E37               	movwf	eeprom_writex@address+1,c
  4198  007238  0E01               	movlw	1
  4199  00723A  6E36               	movwf	eeprom_writex@address,c
  4200  00723C  0E01               	movlw	1
  4201  00723E  6E38               	movwf	eeprom_writex@data,c
  4202  007240  ECEB  F034         	call	_eeprom_writex	;wreg free
  4203  007244  D7F4               	goto	l2475
  4204  007246                     l2481:
  4205                           
  4206                           ;main.c: 524:                 Count_Push_Button = 0;
  4207  007246  0E00               	movlw	0
  4208  007248  6E26               	movwf	_Count_Push_Button+1,c
  4209  00724A  0E00               	movlw	0
  4210  00724C  6E25               	movwf	_Count_Push_Button,c
  4211                           
  4212                           ;main.c: 525:                 break;
  4213  00724E  D010               	goto	l280
  4214  007250                     l2485:
  4215  007250  C025  F039         	movff	_Count_Push_Button,??_Menu_P1
  4216  007254  C026  F03A         	movff	_Count_Push_Button+1,??_Menu_P1+1
  4217                           
  4218                           ; Switch on 2 bytes has been partitioned into a top level switch of size 1, and 1 sub-sw
      +                          itches
  4219                           ; Switch size 1, requested type "simple"
  4220                           ; Number of cases is 1, Range of values is 0 to 0
  4221                           ; switch strategies available:
  4222                           ; Name         Instructions Cycles
  4223                           ; simple_byte            4     3 (average)
  4224                           ;	Chosen strategy is simple_byte
  4225  007258  503A               	movf	??_Menu_P1+1,w,c
  4226  00725A  0A00               	xorlw	0	; case 0
  4227  00725C  A4D8               	btfss	status,2,c
  4228  00725E  D7F3               	goto	l2481
  4229                           
  4230                           ; Switch size 1, requested type "simple"
  4231                           ; Number of cases is 2, Range of values is 0 to 1
  4232                           ; switch strategies available:
  4233                           ; Name         Instructions Cycles
  4234                           ; simple_byte            7     4 (average)
  4235                           ;	Chosen strategy is simple_byte
  4236  007260  5039               	movf	??_Menu_P1,w,c
  4237  007262  0A00               	xorlw	0	; case 0
  4238  007264  B4D8               	btfsc	status,2,c
  4239  007266  D7DB               	goto	l2473
  4240  007268  0A01               	xorlw	1	; case 1
  4241  00726A  B4D8               	btfsc	status,2,c
  4242  00726C  D7E3               	goto	l2477
  4243  00726E  D7EB               	goto	l2481
  4244  007270                     l280:
  4245                           
  4246                           ;main.c: 528:         Last_Button_Menu_Up_State = Button_Menu_Up_State;
  4247  007270  C043  F045         	movff	_Button_Menu_Up_State,_Last_Button_Menu_Up_State
  4248                           
  4249                           ;main.c: 529:         Exit_Time_Menu();
  4250  007274  EC5D  F037         	call	_Exit_Time_Menu	;wreg free
  4251                           
  4252                           ;main.c: 530:     } while (Flag_Menu == 1);
  4253  007278  042D               	decf	_Flag_Menu,w,c
  4254  00727A  A4D8               	btfss	status,2,c
  4255  00727C  0012               	return	
  4256  00727E  D79A               	goto	l2453
  4257  007280                     __end_of_Menu_P1:
  4258                           	opt callstack 0
  4259                           
  4260 ;; *************** function _eeprom_writex *****************
  4261 ;; Defined at:
  4262 ;;		line 359 in file "main.c"
  4263 ;; Parameters:    Size  Location     Type
  4264 ;;  address         2    0[COMRAM] int 
  4265 ;;  data            1    2[COMRAM] unsigned char 
  4266 ;; Auto vars:     Size  Location     Type
  4267 ;;		None
  4268 ;; Return value:  Size  Location     Type
  4269 ;;                  1    wreg      void 
  4270 ;; Registers used:
  4271 ;;		wreg, status,2
  4272 ;; Tracked objects:
  4273 ;;		On entry : 0/0
  4274 ;;		On exit  : 0/0
  4275 ;;		Unchanged: 0/0
  4276 ;; Data sizes:     COMRAM   BANK0   BANK1   BANK2   BANK3   BANK4   BANK5   BANK6   BANK7
  4277 ;;      Params:         3       0       0       0       0       0       0       0       0
  4278 ;;      Locals:         0       0       0       0       0       0       0       0       0
  4279 ;;      Temps:          0       0       0       0       0       0       0       0       0
  4280 ;;      Totals:         3       0       0       0       0       0       0       0       0
  4281 ;;Total ram usage:        3 bytes
  4282 ;; Hardware stack levels used:    1
  4283 ;; This function calls:
  4284 ;;		Nothing
  4285 ;; This function is called by:
  4286 ;;		_Menu_P1
  4287 ;;		_Menu_P2
  4288 ;;		_Menu_P3
  4289 ;;		_Menu_P4
  4290 ;; This function uses a non-reentrant model
  4291 ;;
  4292                           
  4293                           	psect	text22
  4294  0069D6                     __ptext22:
  4295                           	opt callstack 0
  4296  0069D6                     _eeprom_writex:
  4297                           	opt callstack 27
  4298                           
  4299                           ;main.c: 360:     EEADR = address;
  4300                           
  4301                           ;incstack = 0
  4302  0069D6  C036  FFA9         	movff	eeprom_writex@address,4009	;volatile
  4303                           
  4304                           ;main.c: 361:     EEDATA = data;
  4305  0069DA  C038  FFA8         	movff	eeprom_writex@data,4008	;volatile
  4306                           
  4307                           ;main.c: 362:     EECON1bits.EEPGD = 0;
  4308  0069DE  9EA6               	bcf	4006,7,c	;volsfr
  4309                           
  4310                           ;main.c: 363:     EECON1bits.CFGS = 0;
  4311  0069E0  9CA6               	bcf	4006,6,c	;volsfr
  4312                           
  4313                           ;main.c: 364:     EECON1bits.WREN = 1;
  4314  0069E2  84A6               	bsf	4006,2,c	;volsfr
  4315                           
  4316                           ;main.c: 365:     INTCONbits.GIE = 0;
  4317  0069E4  9EF2               	bcf	4082,7,c	;volatile
  4318                           
  4319                           ;main.c: 367:     EECON2 = 0x55;
  4320  0069E6  0E55               	movlw	85
  4321  0069E8  6EA7               	movwf	4007,c	;volsfr
  4322                           
  4323                           ;main.c: 368:     EECON2 = 0xaa;
  4324  0069EA  0EAA               	movlw	170
  4325  0069EC  6EA7               	movwf	4007,c	;volsfr
  4326                           
  4327                           ;main.c: 369:     EECON1bits.WR = 1;
  4328  0069EE  82A6               	bsf	4006,1,c	;volsfr
  4329                           
  4330                           ;main.c: 371:     INTCONbits.GIE = 1;
  4331  0069F0  8EF2               	bsf	4082,7,c	;volatile
  4332  0069F2                     l232:
  4333  0069F2  B2A6               	btfsc	4006,1,c	;volsfr
  4334  0069F4  D7FE               	goto	l232
  4335  0069F6  0012               	return	
  4336  0069F8                     __end_of_eeprom_writex:
  4337                           	opt callstack 0
  4338                           
  4339 ;; *************** function _Recording *****************
  4340 ;; Defined at:
  4341 ;;		line 1123 in file "main.c"
  4342 ;; Parameters:    Size  Location     Type
  4343 ;;		None
  4344 ;; Auto vars:     Size  Location     Type
  4345 ;;		None
  4346 ;; Return value:  Size  Location     Type
  4347 ;;                  1    wreg      void 
  4348 ;; Registers used:
  4349 ;;		wreg, status,2, status,0, cstack
  4350 ;; Tracked objects:
  4351 ;;		On entry : 0/0
  4352 ;;		On exit  : 0/0
  4353 ;;		Unchanged: 0/0
  4354 ;; Data sizes:     COMRAM   BANK0   BANK1   BANK2   BANK3   BANK4   BANK5   BANK6   BANK7
  4355 ;;      Params:         0       0       0       0       0       0       0       0       0
  4356 ;;      Locals:         0       0       0       0       0       0       0       0       0
  4357 ;;      Temps:          2       0       0       0       0       0       0       0       0
  4358 ;;      Totals:         2       0       0       0       0       0       0       0       0
  4359 ;;Total ram usage:        2 bytes
  4360 ;; Hardware stack levels used:    1
  4361 ;; Hardware stack levels required when called:    1
  4362 ;; This function calls:
  4363 ;;		_Clear
  4364 ;;		_Draw_Save_Dot_One
  4365 ;;		_Draw_Save_Dot_Two
  4366 ;; This function is called by:
  4367 ;;		_Menu_P1
  4368 ;;		_Menu_P2
  4369 ;;		_Menu_P3
  4370 ;;		_Menu_P4
  4371 ;; This function uses a non-reentrant model
  4372 ;;
  4373                           
  4374                           	psect	text23
  4375  006F92                     __ptext23:
  4376                           	opt callstack 0
  4377  006F92                     _Recording:
  4378                           	opt callstack 26
  4379                           
  4380                           ;main.c: 1124:     Clear();
  4381                           
  4382                           ;incstack = 0
  4383  006F92  ECCE  F034         	call	_Clear	;wreg free
  4384                           
  4385                           ;main.c: 1125:     _delay((unsigned long)((500)*(20000000/4000.0)));
  4386  006F96  0E0D               	movlw	13
  4387  006F98  6E38               	movwf	(??_Recording+1)& (0+255),c
  4388  006F9A  0EAF               	movlw	175
  4389  006F9C  6E37               	movwf	??_Recording& (0+255),c
  4390  006F9E  0EB6               	movlw	182
  4391  006FA0                     u2097:
  4392  006FA0  2EE8               	decfsz	wreg,f,c
  4393  006FA2  D7FE               	bra	u2097
  4394  006FA4  2E37               	decfsz	??_Recording& (0+255),f,c
  4395  006FA6  D7FC               	bra	u2097
  4396  006FA8  2E38               	decfsz	(??_Recording+1)& (0+255),f,c
  4397  006FAA  D7FA               	bra	u2097
  4398  006FAC  D000               	nop2	
  4399  006FAE                     l1249:
  4400                           
  4401                           ;main.c: 1127:     {;main.c: 1128:         Draw_Save_Dot_One();
  4402  006FAE  ECCD  F035         	call	_Draw_Save_Dot_One	;wreg free
  4403                           
  4404                           ;main.c: 1129:         Count_Save++;
  4405  006FB2  0E01               	movlw	1
  4406  006FB4  2615               	addwf	_Count_Save,f,c
  4407  006FB6  0E00               	movlw	0
  4408  006FB8  2216               	addwfc	_Count_Save+1,f,c
  4409  006FBA  2217               	addwfc	_Count_Save+2,f,c
  4410  006FBC  2218               	addwfc	_Count_Save+3,f,c
  4411                           
  4412                           ;main.c: 1130:     } while (Count_Save < 250);
  4413  006FBE  BE18               	btfsc	_Count_Save+3,7,c
  4414  006FC0  D7F6               	goto	l1249
  4415  006FC2  5018               	movf	_Count_Save+3,w,c
  4416  006FC4  1017               	iorwf	_Count_Save+2,w,c
  4417  006FC6  1016               	iorwf	_Count_Save+1,w,c
  4418  006FC8  E104               	bnz	u40
  4419  006FCA  0EFA               	movlw	250
  4420  006FCC  5C15               	subwf	_Count_Save,w,c
  4421  006FCE  A0D8               	btfss	status,0,c
  4422  006FD0  D7EE               	goto	l1249
  4423  006FD2                     u40:
  4424                           
  4425                           ;main.c: 1131:     Count_Save = 0;
  4426  006FD2  0E00               	movlw	0
  4427  006FD4  6E15               	movwf	_Count_Save,c
  4428  006FD6  0E00               	movlw	0
  4429  006FD8  6E16               	movwf	_Count_Save+1,c
  4430  006FDA  0E00               	movlw	0
  4431  006FDC  6E17               	movwf	_Count_Save+2,c
  4432  006FDE  0E00               	movlw	0
  4433  006FE0  6E18               	movwf	_Count_Save+3,c
  4434  006FE2                     l1257:
  4435                           
  4436                           ;main.c: 1133:     {;main.c: 1134:         Draw_Save_Dot_Two();
  4437  006FE2  ECE6  F035         	call	_Draw_Save_Dot_Two	;wreg free
  4438                           
  4439                           ;main.c: 1135:         Count_Save++;
  4440  006FE6  0E01               	movlw	1
  4441  006FE8  2615               	addwf	_Count_Save,f,c
  4442  006FEA  0E00               	movlw	0
  4443  006FEC  2216               	addwfc	_Count_Save+1,f,c
  4444  006FEE  2217               	addwfc	_Count_Save+2,f,c
  4445  006FF0  2218               	addwfc	_Count_Save+3,f,c
  4446                           
  4447                           ;main.c: 1136:     } while (Count_Save < 250);
  4448  006FF2  BE18               	btfsc	_Count_Save+3,7,c
  4449  006FF4  D7F6               	goto	l1257
  4450  006FF6  5018               	movf	_Count_Save+3,w,c
  4451  006FF8  1017               	iorwf	_Count_Save+2,w,c
  4452  006FFA  1016               	iorwf	_Count_Save+1,w,c
  4453  006FFC  E104               	bnz	u50
  4454  006FFE  0EFA               	movlw	250
  4455  007000  5C15               	subwf	_Count_Save,w,c
  4456  007002  A0D8               	btfss	status,0,c
  4457  007004  D7EE               	goto	l1257
  4458  007006                     u50:
  4459                           
  4460                           ;main.c: 1137:     Count_Save = 0;
  4461  007006  0E00               	movlw	0
  4462  007008  6E15               	movwf	_Count_Save,c
  4463  00700A  0E00               	movlw	0
  4464  00700C  6E16               	movwf	_Count_Save+1,c
  4465  00700E  0E00               	movlw	0
  4466  007010  6E17               	movwf	_Count_Save+2,c
  4467  007012  0E00               	movlw	0
  4468  007014  6E18               	movwf	_Count_Save+3,c
  4469                           
  4470                           ;main.c: 1138:     Flag_Menu = 0;
  4471  007016  0E00               	movlw	0
  4472  007018  6E2D               	movwf	_Flag_Menu,c
  4473  00701A  0012               	return		;funcret
  4474  00701C                     __end_of_Recording:
  4475                           	opt callstack 0
  4476                           
  4477 ;; *************** function _Draw_Save_Dot_Two *****************
  4478 ;; Defined at:
  4479 ;;		line 1112 in file "main.c"
  4480 ;; Parameters:    Size  Location     Type
  4481 ;;		None
  4482 ;; Auto vars:     Size  Location     Type
  4483 ;;		None
  4484 ;; Return value:  Size  Location     Type
  4485 ;;                  1    wreg      void 
  4486 ;; Registers used:
  4487 ;;		wreg, status,2
  4488 ;; Tracked objects:
  4489 ;;		On entry : 0/0
  4490 ;;		On exit  : 0/0
  4491 ;;		Unchanged: 0/0
  4492 ;; Data sizes:     COMRAM   BANK0   BANK1   BANK2   BANK3   BANK4   BANK5   BANK6   BANK7
  4493 ;;      Params:         0       0       0       0       0       0       0       0       0
  4494 ;;      Locals:         0       0       0       0       0       0       0       0       0
  4495 ;;      Temps:          1       0       0       0       0       0       0       0       0
  4496 ;;      Totals:         1       0       0       0       0       0       0       0       0
  4497 ;;Total ram usage:        1 bytes
  4498 ;; Hardware stack levels used:    1
  4499 ;; This function calls:
  4500 ;;		Nothing
  4501 ;; This function is called by:
  4502 ;;		_Recording
  4503 ;; This function uses a non-reentrant model
  4504 ;;
  4505                           
  4506                           	psect	text24
  4507  006BCC                     __ptext24:
  4508                           	opt callstack 0
  4509  006BCC                     _Draw_Save_Dot_Two:
  4510                           	opt callstack 26
  4511                           
  4512                           ;main.c: 1113:     PORTB = 0xFE;
  4513                           
  4514                           ;incstack = 0
  4515  006BCC  0EFE               	movlw	254
  4516  006BCE  6E81               	movwf	3969,c	;volatile
  4517                           
  4518                           ;main.c: 1114:     PORTCbits.RC7 = 1;
  4519  006BD0  8E82               	bsf	3970,7,c	;volatile
  4520                           
  4521                           ;main.c: 1115:     _delay((unsigned long)((1600)*(20000000/4000000.0)));
  4522  006BD2  0E0B               	movlw	11
  4523  006BD4  6E36               	movwf	??_Draw_Save_Dot_Two& (0+255),c
  4524  006BD6  0E62               	movlw	98
  4525  006BD8                     u2107:
  4526  006BD8  2EE8               	decfsz	wreg,f,c
  4527  006BDA  D7FE               	bra	u2107
  4528  006BDC  2E36               	decfsz	??_Draw_Save_Dot_Two& (0+255),f,c
  4529  006BDE  D7FC               	bra	u2107
  4530  006BE0  D000               	nop2	
  4531                           
  4532                           ;main.c: 1116:     PORTCbits.RC7 = 0;
  4533  006BE2  9E82               	bcf	3970,7,c	;volatile
  4534                           
  4535                           ;main.c: 1117:     PORTB = 0xFE;
  4536  006BE4  0EFE               	movlw	254
  4537  006BE6  6E81               	movwf	3969,c	;volatile
  4538                           
  4539                           ;main.c: 1118:     PORTCbits.RC6 = 1;
  4540  006BE8  8C82               	bsf	3970,6,c	;volatile
  4541                           
  4542                           ;main.c: 1119:     _delay((unsigned long)((1600)*(20000000/4000000.0)));
  4543  006BEA  0E0B               	movlw	11
  4544  006BEC  6E36               	movwf	??_Draw_Save_Dot_Two& (0+255),c
  4545  006BEE  0E62               	movlw	98
  4546  006BF0                     u2117:
  4547  006BF0  2EE8               	decfsz	wreg,f,c
  4548  006BF2  D7FE               	bra	u2117
  4549  006BF4  2E36               	decfsz	??_Draw_Save_Dot_Two& (0+255),f,c
  4550  006BF6  D7FC               	bra	u2117
  4551  006BF8  D000               	nop2	
  4552                           
  4553                           ;main.c: 1120:     PORTCbits.RC6 = 0;
  4554  006BFA  9C82               	bcf	3970,6,c	;volatile
  4555  006BFC  0012               	return		;funcret
  4556  006BFE                     __end_of_Draw_Save_Dot_Two:
  4557                           	opt callstack 0
  4558                           
  4559 ;; *************** function _Draw_Save_Dot_One *****************
  4560 ;; Defined at:
  4561 ;;		line 1101 in file "main.c"
  4562 ;; Parameters:    Size  Location     Type
  4563 ;;		None
  4564 ;; Auto vars:     Size  Location     Type
  4565 ;;		None
  4566 ;; Return value:  Size  Location     Type
  4567 ;;                  1    wreg      void 
  4568 ;; Registers used:
  4569 ;;		wreg, status,2
  4570 ;; Tracked objects:
  4571 ;;		On entry : 0/0
  4572 ;;		On exit  : 0/0
  4573 ;;		Unchanged: 0/0
  4574 ;; Data sizes:     COMRAM   BANK0   BANK1   BANK2   BANK3   BANK4   BANK5   BANK6   BANK7
  4575 ;;      Params:         0       0       0       0       0       0       0       0       0
  4576 ;;      Locals:         0       0       0       0       0       0       0       0       0
  4577 ;;      Temps:          1       0       0       0       0       0       0       0       0
  4578 ;;      Totals:         1       0       0       0       0       0       0       0       0
  4579 ;;Total ram usage:        1 bytes
  4580 ;; Hardware stack levels used:    1
  4581 ;; This function calls:
  4582 ;;		Nothing
  4583 ;; This function is called by:
  4584 ;;		_Recording
  4585 ;; This function uses a non-reentrant model
  4586 ;;
  4587                           
  4588                           	psect	text25
  4589  006B9A                     __ptext25:
  4590                           	opt callstack 0
  4591  006B9A                     _Draw_Save_Dot_One:
  4592                           	opt callstack 26
  4593                           
  4594                           ;main.c: 1102:     PORTB = 0xFE;
  4595                           
  4596                           ;incstack = 0
  4597  006B9A  0EFE               	movlw	254
  4598  006B9C  6E81               	movwf	3969,c	;volatile
  4599                           
  4600                           ;main.c: 1103:     PORTCbits.RC7 = 1;
  4601  006B9E  8E82               	bsf	3970,7,c	;volatile
  4602                           
  4603                           ;main.c: 1104:     _delay((unsigned long)((1600)*(20000000/4000000.0)));
  4604  006BA0  0E0B               	movlw	11
  4605  006BA2  6E36               	movwf	??_Draw_Save_Dot_One& (0+255),c
  4606  006BA4  0E62               	movlw	98
  4607  006BA6                     u2127:
  4608  006BA6  2EE8               	decfsz	wreg,f,c
  4609  006BA8  D7FE               	bra	u2127
  4610  006BAA  2E36               	decfsz	??_Draw_Save_Dot_One& (0+255),f,c
  4611  006BAC  D7FC               	bra	u2127
  4612  006BAE  D000               	nop2	
  4613                           
  4614                           ;main.c: 1105:     PORTCbits.RC7 = 0;
  4615  006BB0  9E82               	bcf	3970,7,c	;volatile
  4616                           
  4617                           ;main.c: 1106:     PORTB = 0x11;
  4618  006BB2  0E11               	movlw	17
  4619  006BB4  6E81               	movwf	3969,c	;volatile
  4620                           
  4621                           ;main.c: 1107:     PORTCbits.RC6 = 0;
  4622  006BB6  9C82               	bcf	3970,6,c	;volatile
  4623                           
  4624                           ;main.c: 1108:     _delay((unsigned long)((1600)*(20000000/4000000.0)));
  4625  006BB8  0E0B               	movlw	11
  4626  006BBA  6E36               	movwf	??_Draw_Save_Dot_One& (0+255),c
  4627  006BBC  0E62               	movlw	98
  4628  006BBE                     u2137:
  4629  006BBE  2EE8               	decfsz	wreg,f,c
  4630  006BC0  D7FE               	bra	u2137
  4631  006BC2  2E36               	decfsz	??_Draw_Save_Dot_One& (0+255),f,c
  4632  006BC4  D7FC               	bra	u2137
  4633  006BC6  D000               	nop2	
  4634                           
  4635                           ;main.c: 1109:     PORTCbits.RC6 = 0;
  4636  006BC8  9C82               	bcf	3970,6,c	;volatile
  4637  006BCA  0012               	return		;funcret
  4638  006BCC                     __end_of_Draw_Save_Dot_One:
  4639                           	opt callstack 0
  4640                           
  4641 ;; *************** function _Exit_Time_Menu *****************
  4642 ;; Defined at:
  4643 ;;		line 480 in file "main.c"
  4644 ;; Parameters:    Size  Location     Type
  4645 ;;		None
  4646 ;; Auto vars:     Size  Location     Type
  4647 ;;		None
  4648 ;; Return value:  Size  Location     Type
  4649 ;;                  1    wreg      void 
  4650 ;; Registers used:
  4651 ;;		wreg, status,2, status,0
  4652 ;; Tracked objects:
  4653 ;;		On entry : 0/0
  4654 ;;		On exit  : 0/0
  4655 ;;		Unchanged: 0/0
  4656 ;; Data sizes:     COMRAM   BANK0   BANK1   BANK2   BANK3   BANK4   BANK5   BANK6   BANK7
  4657 ;;      Params:         0       0       0       0       0       0       0       0       0
  4658 ;;      Locals:         0       0       0       0       0       0       0       0       0
  4659 ;;      Temps:          0       0       0       0       0       0       0       0       0
  4660 ;;      Totals:         0       0       0       0       0       0       0       0       0
  4661 ;;Total ram usage:        0 bytes
  4662 ;; Hardware stack levels used:    1
  4663 ;; This function calls:
  4664 ;;		Nothing
  4665 ;; This function is called by:
  4666 ;;		_Menu
  4667 ;;		_Menu_P1
  4668 ;;		_Menu_P2
  4669 ;;		_Menu_P3
  4670 ;;		_Menu_P4
  4671 ;; This function uses a non-reentrant model
  4672 ;;
  4673                           
  4674                           	psect	text26
  4675  006EBA                     __ptext26:
  4676                           	opt callstack 0
  4677  006EBA                     _Exit_Time_Menu:
  4678                           	opt callstack 27
  4679                           
  4680                           ;main.c: 481:     Count_Exit_Menu++;
  4681                           
  4682                           ;incstack = 0
  4683  006EBA  0E01               	movlw	1
  4684  006EBC  2611               	addwf	_Count_Exit_Menu,f,c
  4685  006EBE  0E00               	movlw	0
  4686  006EC0  2212               	addwfc	_Count_Exit_Menu+1,f,c
  4687  006EC2  2213               	addwfc	_Count_Exit_Menu+2,f,c
  4688  006EC4  2214               	addwfc	_Count_Exit_Menu+3,f,c
  4689                           
  4690                           ;main.c: 482:     if (Count_Exit_Menu == 1000) {
  4691  006EC6  0EE8               	movlw	232
  4692  006EC8  1811               	xorwf	_Count_Exit_Menu,w,c
  4693  006ECA  E110               	bnz	l270
  4694  006ECC  0E03               	movlw	3
  4695  006ECE  1812               	xorwf	_Count_Exit_Menu+1,w,c
  4696  006ED0  1013               	iorwf	_Count_Exit_Menu+2,w,c
  4697  006ED2  1014               	iorwf	_Count_Exit_Menu+3,w,c
  4698  006ED4  A4D8               	btfss	status,2,c
  4699  006ED6  0012               	return	
  4700                           
  4701                           ;main.c: 483:         Flag_Menu = 0;
  4702  006ED8  0E00               	movlw	0
  4703  006EDA  6E2D               	movwf	_Flag_Menu,c
  4704                           
  4705                           ;main.c: 484:         Count_Exit_Menu = 0;
  4706  006EDC  0E00               	movlw	0
  4707  006EDE  6E11               	movwf	_Count_Exit_Menu,c
  4708  006EE0  0E00               	movlw	0
  4709  006EE2  6E12               	movwf	_Count_Exit_Menu+1,c
  4710  006EE4  0E00               	movlw	0
  4711  006EE6  6E13               	movwf	_Count_Exit_Menu+2,c
  4712  006EE8  0E00               	movlw	0
  4713  006EEA  6E14               	movwf	_Count_Exit_Menu+3,c
  4714  006EEC                     l270:
  4715  006EEC  0012               	return		;funcret
  4716  006EEE                     __end_of_Exit_Time_Menu:
  4717                           	opt callstack 0
  4718                           
  4719 ;; *************** function _Draw_1 *****************
  4720 ;; Defined at:
  4721 ;;		line 936 in file "main.c"
  4722 ;; Parameters:    Size  Location     Type
  4723 ;;		None
  4724 ;; Auto vars:     Size  Location     Type
  4725 ;;		None
  4726 ;; Return value:  Size  Location     Type
  4727 ;;                  1    wreg      void 
  4728 ;; Registers used:
  4729 ;;		wreg, status,2
  4730 ;; Tracked objects:
  4731 ;;		On entry : 0/0
  4732 ;;		On exit  : 0/0
  4733 ;;		Unchanged: 0/0
  4734 ;; Data sizes:     COMRAM   BANK0   BANK1   BANK2   BANK3   BANK4   BANK5   BANK6   BANK7
  4735 ;;      Params:         0       0       0       0       0       0       0       0       0
  4736 ;;      Locals:         0       0       0       0       0       0       0       0       0
  4737 ;;      Temps:          1       0       0       0       0       0       0       0       0
  4738 ;;      Totals:         1       0       0       0       0       0       0       0       0
  4739 ;;Total ram usage:        1 bytes
  4740 ;; Hardware stack levels used:    1
  4741 ;; This function calls:
  4742 ;;		Nothing
  4743 ;; This function is called by:
  4744 ;;		_Menu_P1
  4745 ;;		_Menu_P2
  4746 ;;		_Menu_P3
  4747 ;;		_Menu_P4
  4748 ;; This function uses a non-reentrant model
  4749 ;;
  4750                           
  4751                           	psect	text27
  4752  006B68                     __ptext27:
  4753                           	opt callstack 0
  4754  006B68                     _Draw_1:
  4755                           	opt callstack 27
  4756                           
  4757                           ;main.c: 937:     PORTB = 0x11;
  4758                           
  4759                           ;incstack = 0
  4760  006B68  0E11               	movlw	17
  4761  006B6A  6E81               	movwf	3969,c	;volatile
  4762                           
  4763                           ;main.c: 938:     PORTCbits.RC7 = 0;
  4764  006B6C  9E82               	bcf	3970,7,c	;volatile
  4765                           
  4766                           ;main.c: 939:     _delay((unsigned long)((1600)*(20000000/4000000.0)));
  4767  006B6E  0E0B               	movlw	11
  4768  006B70  6E36               	movwf	??_Draw_1& (0+255),c
  4769  006B72  0E62               	movlw	98
  4770  006B74                     u2147:
  4771  006B74  2EE8               	decfsz	wreg,f,c
  4772  006B76  D7FE               	bra	u2147
  4773  006B78  2E36               	decfsz	??_Draw_1& (0+255),f,c
  4774  006B7A  D7FC               	bra	u2147
  4775  006B7C  D000               	nop2	
  4776                           
  4777                           ;main.c: 940:     PORTCbits.RC7 = 0;
  4778  006B7E  9E82               	bcf	3970,7,c	;volatile
  4779                           
  4780                           ;main.c: 941:     PORTB = 0xF3;
  4781  006B80  0EF3               	movlw	243
  4782  006B82  6E81               	movwf	3969,c	;volatile
  4783                           
  4784                           ;main.c: 942:     PORTCbits.RC6 = 1;
  4785  006B84  8C82               	bsf	3970,6,c	;volatile
  4786                           
  4787                           ;main.c: 943:     _delay((unsigned long)((1600)*(20000000/4000000.0)));
  4788  006B86  0E0B               	movlw	11
  4789  006B88  6E36               	movwf	??_Draw_1& (0+255),c
  4790  006B8A  0E62               	movlw	98
  4791  006B8C                     u2157:
  4792  006B8C  2EE8               	decfsz	wreg,f,c
  4793  006B8E  D7FE               	bra	u2157
  4794  006B90  2E36               	decfsz	??_Draw_1& (0+255),f,c
  4795  006B92  D7FC               	bra	u2157
  4796  006B94  D000               	nop2	
  4797                           
  4798                           ;main.c: 944:     PORTCbits.RC6 = 0;
  4799  006B96  9C82               	bcf	3970,6,c	;volatile
  4800  006B98  0012               	return		;funcret
  4801  006B9A                     __end_of_Draw_1:
  4802                           	opt callstack 0
  4803                           
  4804 ;; *************** function _Draw_0 *****************
  4805 ;; Defined at:
  4806 ;;		line 925 in file "main.c"
  4807 ;; Parameters:    Size  Location     Type
  4808 ;;		None
  4809 ;; Auto vars:     Size  Location     Type
  4810 ;;		None
  4811 ;; Return value:  Size  Location     Type
  4812 ;;                  1    wreg      void 
  4813 ;; Registers used:
  4814 ;;		wreg, status,2
  4815 ;; Tracked objects:
  4816 ;;		On entry : 0/0
  4817 ;;		On exit  : 0/0
  4818 ;;		Unchanged: 0/0
  4819 ;; Data sizes:     COMRAM   BANK0   BANK1   BANK2   BANK3   BANK4   BANK5   BANK6   BANK7
  4820 ;;      Params:         0       0       0       0       0       0       0       0       0
  4821 ;;      Locals:         0       0       0       0       0       0       0       0       0
  4822 ;;      Temps:          1       0       0       0       0       0       0       0       0
  4823 ;;      Totals:         1       0       0       0       0       0       0       0       0
  4824 ;;Total ram usage:        1 bytes
  4825 ;; Hardware stack levels used:    1
  4826 ;; This function calls:
  4827 ;;		Nothing
  4828 ;; This function is called by:
  4829 ;;		_Menu_P1
  4830 ;;		_Menu_P2
  4831 ;;		_Menu_P3
  4832 ;;		_Menu_P4
  4833 ;; This function uses a non-reentrant model
  4834 ;;
  4835                           
  4836                           	psect	text28
  4837  006B36                     __ptext28:
  4838                           	opt callstack 0
  4839  006B36                     _Draw_0:
  4840                           	opt callstack 27
  4841                           
  4842                           ;main.c: 926:     PORTB = 0x11;
  4843                           
  4844                           ;incstack = 0
  4845  006B36  0E11               	movlw	17
  4846  006B38  6E81               	movwf	3969,c	;volatile
  4847                           
  4848                           ;main.c: 927:     PORTCbits.RC7 = 0;
  4849  006B3A  9E82               	bcf	3970,7,c	;volatile
  4850                           
  4851                           ;main.c: 928:     _delay((unsigned long)((1600)*(20000000/4000000.0)));
  4852  006B3C  0E0B               	movlw	11
  4853  006B3E  6E36               	movwf	??_Draw_0& (0+255),c
  4854  006B40  0E62               	movlw	98
  4855  006B42                     u2167:
  4856  006B42  2EE8               	decfsz	wreg,f,c
  4857  006B44  D7FE               	bra	u2167
  4858  006B46  2E36               	decfsz	??_Draw_0& (0+255),f,c
  4859  006B48  D7FC               	bra	u2167
  4860  006B4A  D000               	nop2	
  4861                           
  4862                           ;main.c: 929:     PORTCbits.RC7 = 0;
  4863  006B4C  9E82               	bcf	3970,7,c	;volatile
  4864                           
  4865                           ;main.c: 930:     PORTB = 0x81;
  4866  006B4E  0E81               	movlw	129
  4867  006B50  6E81               	movwf	3969,c	;volatile
  4868                           
  4869                           ;main.c: 931:     PORTCbits.RC6 = 1;
  4870  006B52  8C82               	bsf	3970,6,c	;volatile
  4871                           
  4872                           ;main.c: 932:     _delay((unsigned long)((1600)*(20000000/4000000.0)));
  4873  006B54  0E0B               	movlw	11
  4874  006B56  6E36               	movwf	??_Draw_0& (0+255),c
  4875  006B58  0E62               	movlw	98
  4876  006B5A                     u2177:
  4877  006B5A  2EE8               	decfsz	wreg,f,c
  4878  006B5C  D7FE               	bra	u2177
  4879  006B5E  2E36               	decfsz	??_Draw_0& (0+255),f,c
  4880  006B60  D7FC               	bra	u2177
  4881  006B62  D000               	nop2	
  4882                           
  4883                           ;main.c: 933:     PORTCbits.RC6 = 0;
  4884  006B64  9C82               	bcf	3970,6,c	;volatile
  4885  006B66  0012               	return		;funcret
  4886  006B68                     __end_of_Draw_0:
  4887                           	opt callstack 0
  4888                           
  4889 ;; *************** function _Draw_P4 *****************
  4890 ;; Defined at:
  4891 ;;		line 914 in file "main.c"
  4892 ;; Parameters:    Size  Location     Type
  4893 ;;		None
  4894 ;; Auto vars:     Size  Location     Type
  4895 ;;		None
  4896 ;; Return value:  Size  Location     Type
  4897 ;;                  1    wreg      void 
  4898 ;; Registers used:
  4899 ;;		wreg, status,2
  4900 ;; Tracked objects:
  4901 ;;		On entry : 0/0
  4902 ;;		On exit  : 0/0
  4903 ;;		Unchanged: 0/0
  4904 ;; Data sizes:     COMRAM   BANK0   BANK1   BANK2   BANK3   BANK4   BANK5   BANK6   BANK7
  4905 ;;      Params:         0       0       0       0       0       0       0       0       0
  4906 ;;      Locals:         0       0       0       0       0       0       0       0       0
  4907 ;;      Temps:          1       0       0       0       0       0       0       0       0
  4908 ;;      Totals:         1       0       0       0       0       0       0       0       0
  4909 ;;Total ram usage:        1 bytes
  4910 ;; Hardware stack levels used:    1
  4911 ;; This function calls:
  4912 ;;		Nothing
  4913 ;; This function is called by:
  4914 ;;		_Menu
  4915 ;; This function uses a non-reentrant model
  4916 ;;
  4917                           
  4918                           	psect	text29
  4919  006B04                     __ptext29:
  4920                           	opt callstack 0
  4921  006B04                     _Draw_P4:
  4922                           	opt callstack 28
  4923                           
  4924                           ;main.c: 915:     PORTB = 0x19;
  4925                           
  4926                           ;incstack = 0
  4927  006B04  0E19               	movlw	25
  4928  006B06  6E81               	movwf	3969,c	;volatile
  4929                           
  4930                           ;main.c: 916:     PORTCbits.RC7 = 1;
  4931  006B08  8E82               	bsf	3970,7,c	;volatile
  4932                           
  4933                           ;main.c: 917:     _delay((unsigned long)((1600)*(20000000/4000000.0)));
  4934  006B0A  0E0B               	movlw	11
  4935  006B0C  6E36               	movwf	??_Draw_P4& (0+255),c
  4936  006B0E  0E62               	movlw	98
  4937  006B10                     u2187:
  4938  006B10  2EE8               	decfsz	wreg,f,c
  4939  006B12  D7FE               	bra	u2187
  4940  006B14  2E36               	decfsz	??_Draw_P4& (0+255),f,c
  4941  006B16  D7FC               	bra	u2187
  4942  006B18  D000               	nop2	
  4943                           
  4944                           ;main.c: 918:     PORTCbits.RC7 = 0;
  4945  006B1A  9E82               	bcf	3970,7,c	;volatile
  4946                           
  4947                           ;main.c: 919:     PORTB = 0x33;
  4948  006B1C  0E33               	movlw	51
  4949  006B1E  6E81               	movwf	3969,c	;volatile
  4950                           
  4951                           ;main.c: 920:     PORTCbits.RC6 = 1;
  4952  006B20  8C82               	bsf	3970,6,c	;volatile
  4953                           
  4954                           ;main.c: 921:     _delay((unsigned long)((1600)*(20000000/4000000.0)));
  4955  006B22  0E0B               	movlw	11
  4956  006B24  6E36               	movwf	??_Draw_P4& (0+255),c
  4957  006B26  0E62               	movlw	98
  4958  006B28                     u2197:
  4959  006B28  2EE8               	decfsz	wreg,f,c
  4960  006B2A  D7FE               	bra	u2197
  4961  006B2C  2E36               	decfsz	??_Draw_P4& (0+255),f,c
  4962  006B2E  D7FC               	bra	u2197
  4963  006B30  D000               	nop2	
  4964                           
  4965                           ;main.c: 922:     PORTCbits.RC6 = 0;
  4966  006B32  9C82               	bcf	3970,6,c	;volatile
  4967  006B34  0012               	return		;funcret
  4968  006B36                     __end_of_Draw_P4:
  4969                           	opt callstack 0
  4970                           
  4971 ;; *************** function _Draw_P3 *****************
  4972 ;; Defined at:
  4973 ;;		line 903 in file "main.c"
  4974 ;; Parameters:    Size  Location     Type
  4975 ;;		None
  4976 ;; Auto vars:     Size  Location     Type
  4977 ;;		None
  4978 ;; Return value:  Size  Location     Type
  4979 ;;                  1    wreg      void 
  4980 ;; Registers used:
  4981 ;;		wreg, status,2
  4982 ;; Tracked objects:
  4983 ;;		On entry : 0/0
  4984 ;;		On exit  : 0/0
  4985 ;;		Unchanged: 0/0
  4986 ;; Data sizes:     COMRAM   BANK0   BANK1   BANK2   BANK3   BANK4   BANK5   BANK6   BANK7
  4987 ;;      Params:         0       0       0       0       0       0       0       0       0
  4988 ;;      Locals:         0       0       0       0       0       0       0       0       0
  4989 ;;      Temps:          1       0       0       0       0       0       0       0       0
  4990 ;;      Totals:         1       0       0       0       0       0       0       0       0
  4991 ;;Total ram usage:        1 bytes
  4992 ;; Hardware stack levels used:    1
  4993 ;; This function calls:
  4994 ;;		Nothing
  4995 ;; This function is called by:
  4996 ;;		_Menu
  4997 ;; This function uses a non-reentrant model
  4998 ;;
  4999                           
  5000                           	psect	text30
  5001  006AD2                     __ptext30:
  5002                           	opt callstack 0
  5003  006AD2                     _Draw_P3:
  5004                           	opt callstack 28
  5005                           
  5006                           ;main.c: 904:     PORTB = 0x19;
  5007                           
  5008                           ;incstack = 0
  5009  006AD2  0E19               	movlw	25
  5010  006AD4  6E81               	movwf	3969,c	;volatile
  5011                           
  5012                           ;main.c: 905:     PORTCbits.RC7 = 1;
  5013  006AD6  8E82               	bsf	3970,7,c	;volatile
  5014                           
  5015                           ;main.c: 906:     _delay((unsigned long)((1600)*(20000000/4000000.0)));
  5016  006AD8  0E0B               	movlw	11
  5017  006ADA  6E36               	movwf	??_Draw_P3& (0+255),c
  5018  006ADC  0E62               	movlw	98
  5019  006ADE                     u2207:
  5020  006ADE  2EE8               	decfsz	wreg,f,c
  5021  006AE0  D7FE               	bra	u2207
  5022  006AE2  2E36               	decfsz	??_Draw_P3& (0+255),f,c
  5023  006AE4  D7FC               	bra	u2207
  5024  006AE6  D000               	nop2	
  5025                           
  5026                           ;main.c: 907:     PORTCbits.RC7 = 0;
  5027  006AE8  9E82               	bcf	3970,7,c	;volatile
  5028                           
  5029                           ;main.c: 908:     PORTB = 0x61;
  5030  006AEA  0E61               	movlw	97
  5031  006AEC  6E81               	movwf	3969,c	;volatile
  5032                           
  5033                           ;main.c: 909:     PORTCbits.RC6 = 1;
  5034  006AEE  8C82               	bsf	3970,6,c	;volatile
  5035                           
  5036                           ;main.c: 910:     _delay((unsigned long)((1600)*(20000000/4000000.0)));
  5037  006AF0  0E0B               	movlw	11
  5038  006AF2  6E36               	movwf	??_Draw_P3& (0+255),c
  5039  006AF4  0E62               	movlw	98
  5040  006AF6                     u2217:
  5041  006AF6  2EE8               	decfsz	wreg,f,c
  5042  006AF8  D7FE               	bra	u2217
  5043  006AFA  2E36               	decfsz	??_Draw_P3& (0+255),f,c
  5044  006AFC  D7FC               	bra	u2217
  5045  006AFE  D000               	nop2	
  5046                           
  5047                           ;main.c: 911:     PORTCbits.RC6 = 0;
  5048  006B00  9C82               	bcf	3970,6,c	;volatile
  5049  006B02  0012               	return		;funcret
  5050  006B04                     __end_of_Draw_P3:
  5051                           	opt callstack 0
  5052                           
  5053 ;; *************** function _Draw_P2 *****************
  5054 ;; Defined at:
  5055 ;;		line 892 in file "main.c"
  5056 ;; Parameters:    Size  Location     Type
  5057 ;;		None
  5058 ;; Auto vars:     Size  Location     Type
  5059 ;;		None
  5060 ;; Return value:  Size  Location     Type
  5061 ;;                  1    wreg      void 
  5062 ;; Registers used:
  5063 ;;		wreg, status,2
  5064 ;; Tracked objects:
  5065 ;;		On entry : 0/0
  5066 ;;		On exit  : 0/0
  5067 ;;		Unchanged: 0/0
  5068 ;; Data sizes:     COMRAM   BANK0   BANK1   BANK2   BANK3   BANK4   BANK5   BANK6   BANK7
  5069 ;;      Params:         0       0       0       0       0       0       0       0       0
  5070 ;;      Locals:         0       0       0       0       0       0       0       0       0
  5071 ;;      Temps:          1       0       0       0       0       0       0       0       0
  5072 ;;      Totals:         1       0       0       0       0       0       0       0       0
  5073 ;;Total ram usage:        1 bytes
  5074 ;; Hardware stack levels used:    1
  5075 ;; This function calls:
  5076 ;;		Nothing
  5077 ;; This function is called by:
  5078 ;;		_Menu
  5079 ;; This function uses a non-reentrant model
  5080 ;;
  5081                           
  5082                           	psect	text31
  5083  006AA0                     __ptext31:
  5084                           	opt callstack 0
  5085  006AA0                     _Draw_P2:
  5086                           	opt callstack 28
  5087                           
  5088                           ;main.c: 893:     PORTB = 0x19;
  5089                           
  5090                           ;incstack = 0
  5091  006AA0  0E19               	movlw	25
  5092  006AA2  6E81               	movwf	3969,c	;volatile
  5093                           
  5094                           ;main.c: 894:     PORTCbits.RC7 = 1;
  5095  006AA4  8E82               	bsf	3970,7,c	;volatile
  5096                           
  5097                           ;main.c: 895:     _delay((unsigned long)((1600)*(20000000/4000000.0)));
  5098  006AA6  0E0B               	movlw	11
  5099  006AA8  6E36               	movwf	??_Draw_P2& (0+255),c
  5100  006AAA  0E62               	movlw	98
  5101  006AAC                     u2227:
  5102  006AAC  2EE8               	decfsz	wreg,f,c
  5103  006AAE  D7FE               	bra	u2227
  5104  006AB0  2E36               	decfsz	??_Draw_P2& (0+255),f,c
  5105  006AB2  D7FC               	bra	u2227
  5106  006AB4  D000               	nop2	
  5107                           
  5108                           ;main.c: 896:     PORTCbits.RC7 = 0;
  5109  006AB6  9E82               	bcf	3970,7,c	;volatile
  5110                           
  5111                           ;main.c: 897:     PORTB = 0x49;
  5112  006AB8  0E49               	movlw	73
  5113  006ABA  6E81               	movwf	3969,c	;volatile
  5114                           
  5115                           ;main.c: 898:     PORTCbits.RC6 = 1;
  5116  006ABC  8C82               	bsf	3970,6,c	;volatile
  5117                           
  5118                           ;main.c: 899:     _delay((unsigned long)((1600)*(20000000/4000000.0)));
  5119  006ABE  0E0B               	movlw	11
  5120  006AC0  6E36               	movwf	??_Draw_P2& (0+255),c
  5121  006AC2  0E62               	movlw	98
  5122  006AC4                     u2237:
  5123  006AC4  2EE8               	decfsz	wreg,f,c
  5124  006AC6  D7FE               	bra	u2237
  5125  006AC8  2E36               	decfsz	??_Draw_P2& (0+255),f,c
  5126  006ACA  D7FC               	bra	u2237
  5127  006ACC  D000               	nop2	
  5128                           
  5129                           ;main.c: 900:     PORTCbits.RC6 = 0;
  5130  006ACE  9C82               	bcf	3970,6,c	;volatile
  5131  006AD0  0012               	return		;funcret
  5132  006AD2                     __end_of_Draw_P2:
  5133                           	opt callstack 0
  5134                           
  5135 ;; *************** function _Draw_P1 *****************
  5136 ;; Defined at:
  5137 ;;		line 881 in file "main.c"
  5138 ;; Parameters:    Size  Location     Type
  5139 ;;		None
  5140 ;; Auto vars:     Size  Location     Type
  5141 ;;		None
  5142 ;; Return value:  Size  Location     Type
  5143 ;;                  1    wreg      void 
  5144 ;; Registers used:
  5145 ;;		wreg, status,2
  5146 ;; Tracked objects:
  5147 ;;		On entry : 0/0
  5148 ;;		On exit  : 0/0
  5149 ;;		Unchanged: 0/0
  5150 ;; Data sizes:     COMRAM   BANK0   BANK1   BANK2   BANK3   BANK4   BANK5   BANK6   BANK7
  5151 ;;      Params:         0       0       0       0       0       0       0       0       0
  5152 ;;      Locals:         0       0       0       0       0       0       0       0       0
  5153 ;;      Temps:          1       0       0       0       0       0       0       0       0
  5154 ;;      Totals:         1       0       0       0       0       0       0       0       0
  5155 ;;Total ram usage:        1 bytes
  5156 ;; Hardware stack levels used:    1
  5157 ;; This function calls:
  5158 ;;		Nothing
  5159 ;; This function is called by:
  5160 ;;		_Menu
  5161 ;; This function uses a non-reentrant model
  5162 ;;
  5163                           
  5164                           	psect	text32
  5165  006A6E                     __ptext32:
  5166                           	opt callstack 0
  5167  006A6E                     _Draw_P1:
  5168                           	opt callstack 28
  5169                           
  5170                           ;main.c: 882:     PORTB = 0x19;
  5171                           
  5172                           ;incstack = 0
  5173  006A6E  0E19               	movlw	25
  5174  006A70  6E81               	movwf	3969,c	;volatile
  5175                           
  5176                           ;main.c: 883:     PORTCbits.RC7 = 1;
  5177  006A72  8E82               	bsf	3970,7,c	;volatile
  5178                           
  5179                           ;main.c: 884:     _delay((unsigned long)((1600)*(20000000/4000000.0)));
  5180  006A74  0E0B               	movlw	11
  5181  006A76  6E36               	movwf	??_Draw_P1& (0+255),c
  5182  006A78  0E62               	movlw	98
  5183  006A7A                     u2247:
  5184  006A7A  2EE8               	decfsz	wreg,f,c
  5185  006A7C  D7FE               	bra	u2247
  5186  006A7E  2E36               	decfsz	??_Draw_P1& (0+255),f,c
  5187  006A80  D7FC               	bra	u2247
  5188  006A82  D000               	nop2	
  5189                           
  5190                           ;main.c: 885:     PORTCbits.RC7 = 0;
  5191  006A84  9E82               	bcf	3970,7,c	;volatile
  5192                           
  5193                           ;main.c: 886:     PORTB = 0xF3;
  5194  006A86  0EF3               	movlw	243
  5195  006A88  6E81               	movwf	3969,c	;volatile
  5196                           
  5197                           ;main.c: 887:     PORTCbits.RC6 = 1;
  5198  006A8A  8C82               	bsf	3970,6,c	;volatile
  5199                           
  5200                           ;main.c: 888:     _delay((unsigned long)((1600)*(20000000/4000000.0)));
  5201  006A8C  0E0B               	movlw	11
  5202  006A8E  6E36               	movwf	??_Draw_P1& (0+255),c
  5203  006A90  0E62               	movlw	98
  5204  006A92                     u2257:
  5205  006A92  2EE8               	decfsz	wreg,f,c
  5206  006A94  D7FE               	bra	u2257
  5207  006A96  2E36               	decfsz	??_Draw_P1& (0+255),f,c
  5208  006A98  D7FC               	bra	u2257
  5209  006A9A  D000               	nop2	
  5210                           
  5211                           ;main.c: 889:     PORTCbits.RC6 = 0;
  5212  006A9C  9C82               	bcf	3970,6,c	;volatile
  5213  006A9E  0012               	return		;funcret
  5214  006AA0                     __end_of_Draw_P1:
  5215                           	opt callstack 0
  5216                           
  5217 ;; *************** function _Close_Lock *****************
  5218 ;; Defined at:
  5219 ;;		line 160 in file "main.c"
  5220 ;; Parameters:    Size  Location     Type
  5221 ;;		None
  5222 ;; Auto vars:     Size  Location     Type
  5223 ;;		None
  5224 ;; Return value:  Size  Location     Type
  5225 ;;                  1    wreg      void 
  5226 ;; Registers used:
  5227 ;;		wreg, status,2, status,0, prodl, prodh, cstack
  5228 ;; Tracked objects:
  5229 ;;		On entry : 0/0
  5230 ;;		On exit  : 0/0
  5231 ;;		Unchanged: 0/0
  5232 ;; Data sizes:     COMRAM   BANK0   BANK1   BANK2   BANK3   BANK4   BANK5   BANK6   BANK7
  5233 ;;      Params:         0       0       0       0       0       0       0       0       0
  5234 ;;      Locals:         0       0       0       0       0       0       0       0       0
  5235 ;;      Temps:          2       0       0       0       0       0       0       0       0
  5236 ;;      Totals:         2       0       0       0       0       0       0       0       0
  5237 ;;Total ram usage:        2 bytes
  5238 ;; Hardware stack levels used:    1
  5239 ;; Hardware stack levels required when called:    3
  5240 ;; This function calls:
  5241 ;;		_Closing
  5242 ;;		___wmul
  5243 ;;		_eeprom_readx
  5244 ;; This function is called by:
  5245 ;;		_main
  5246 ;; This function uses a non-reentrant model
  5247 ;;
  5248                           
  5249                           	psect	text33
  5250  007C82                     __ptext33:
  5251                           	opt callstack 0
  5252  007C82                     _Close_Lock:
  5253                           	opt callstack 27
  5254                           
  5255                           ;main.c: 161:     Inductive_State = PORTAbits.RA1;
  5256                           
  5257                           ;incstack = 0
  5258  007C82  A280               	btfss	3968,1,c	;volatile
  5259  007C84  D002               	goto	u1390
  5260  007C86  0E01               	movlw	1
  5261  007C88  D001               	goto	u1396
  5262  007C8A                     u1390:
  5263  007C8A  0E00               	movlw	0
  5264  007C8C                     u1396:
  5265  007C8C  6E34               	movwf	_Inductive_State,c
  5266                           
  5267                           ;main.c: 162:     _delay((unsigned long)((50)*(20000000/4000.0)));
  5268  007C8E  0E02               	movlw	2
  5269  007C90  6E3D               	movwf	(??_Close_Lock+1)& (0+255),c
  5270  007C92  0E45               	movlw	69
  5271  007C94  6E3C               	movwf	??_Close_Lock& (0+255),c
  5272  007C96  0EAA               	movlw	170
  5273  007C98                     u2267:
  5274  007C98  2EE8               	decfsz	wreg,f,c
  5275  007C9A  D7FE               	bra	u2267
  5276  007C9C  2E3C               	decfsz	??_Close_Lock& (0+255),f,c
  5277  007C9E  D7FC               	bra	u2267
  5278  007CA0  2E3D               	decfsz	(??_Close_Lock+1)& (0+255),f,c
  5279  007CA2  D7FA               	bra	u2267
  5280                           
  5281                           ;main.c: 163:     if(Inductive_State == 1 && Last_Inductive_State == 0) {
  5282  007CA4  0434               	decf	_Inductive_State,w,c
  5283  007CA6  A4D8               	btfss	status,2,c
  5284  007CA8  D1A8               	goto	l3045
  5285  007CAA  5035               	movf	_Last_Inductive_State,w,c
  5286  007CAC  A4D8               	btfss	status,2,c
  5287  007CAE  D1A5               	goto	l3045
  5288                           
  5289                           ;main.c: 164:         _delay((unsigned long)((50)*(20000000/4000.0)));
  5290  007CB0  0E02               	movlw	2
  5291  007CB2  6E3D               	movwf	(??_Close_Lock+1)& (0+255),c
  5292  007CB4  0E45               	movlw	69
  5293  007CB6  6E3C               	movwf	??_Close_Lock& (0+255),c
  5294  007CB8  0EAA               	movlw	170
  5295  007CBA                     u2277:
  5296  007CBA  2EE8               	decfsz	wreg,f,c
  5297  007CBC  D7FE               	bra	u2277
  5298  007CBE  2E3C               	decfsz	??_Close_Lock& (0+255),f,c
  5299  007CC0  D7FC               	bra	u2277
  5300  007CC2  2E3D               	decfsz	(??_Close_Lock+1)& (0+255),f,c
  5301  007CC4  D7FA               	bra	u2277
  5302                           
  5303                           ;main.c: 165:         End_Stop_Open_State = PORTAbits.RA2;
  5304  007CC6  A480               	btfss	3968,2,c	;volatile
  5305  007CC8  D002               	goto	u1420
  5306  007CCA  0E01               	movlw	1
  5307  007CCC  D001               	goto	u1426
  5308  007CCE                     u1420:
  5309  007CCE  0E00               	movlw	0
  5310  007CD0                     u1426:
  5311  007CD0  6E31               	movwf	_End_Stop_Open_State,c
  5312                           
  5313                           ;main.c: 166:         if(Inductive_State == 1 && Last_Inductive_State == 0 && End_Stop_O
      +                          pen_State == 0) {
  5314  007CD2  0434               	decf	_Inductive_State,w,c
  5315  007CD4  A4D8               	btfss	status,2,c
  5316  007CD6  D191               	goto	l3045
  5317  007CD8  5035               	movf	_Last_Inductive_State,w,c
  5318  007CDA  A4D8               	btfss	status,2,c
  5319  007CDC  D18E               	goto	l3045
  5320  007CDE  5031               	movf	_End_Stop_Open_State,w,c
  5321  007CE0  A4D8               	btfss	status,2,c
  5322  007CE2  D18B               	goto	l3045
  5323                           
  5324                           ;main.c: 167:             Time_Inductive_State = eeprom_readx(0x02);
  5325  007CE4  0E00               	movlw	0
  5326  007CE6  6E37               	movwf	eeprom_readx@address+1,c
  5327  007CE8  0E02               	movlw	2
  5328  007CEA  6E36               	movwf	eeprom_readx@address,c
  5329  007CEC  ECD3  F034         	call	_eeprom_readx	;wreg free
  5330  007CF0  6E3C               	movwf	??_Close_Lock& (0+255),c
  5331  007CF2  503C               	movf	??_Close_Lock,w,c
  5332  007CF4  6E40               	movwf	_Time_Inductive_State,c
  5333  007CF6  6A41               	clrf	_Time_Inductive_State+1,c
  5334                           
  5335                           ;main.c: 168:             Time_Inductive_State = Time_Inductive_State * 1000;
  5336  007CF8  C040  F036         	movff	_Time_Inductive_State,___wmul@multiplier
  5337  007CFC  C041  F037         	movff	_Time_Inductive_State+1,___wmul@multiplier+1
  5338  007D00  0E03               	movlw	3
  5339  007D02  6E39               	movwf	___wmul@multiplicand+1,c
  5340  007D04  0EE8               	movlw	232
  5341  007D06  6E38               	movwf	___wmul@multiplicand,c
  5342  007D08  ECFC  F034         	call	___wmul	;wreg free
  5343  007D0C  C036  F040         	movff	?___wmul,_Time_Inductive_State
  5344  007D10  C037  F041         	movff	?___wmul+1,_Time_Inductive_State+1
  5345                           
  5346                           ;main.c: 169:             switch (Time_Inductive_State)
  5347  007D14  D0ED               	goto	l3041
  5348  007D16                     l3009:
  5349                           
  5350                           ;main.c: 175:                 _delay((unsigned long)((1000)*(20000000/4000.0)));
  5351  007D16  0E1A               	movlw	26
  5352  007D18  6E3D               	movwf	(??_Close_Lock+1)& (0+255),c
  5353  007D1A  0E5E               	movlw	94
  5354  007D1C  6E3C               	movwf	??_Close_Lock& (0+255),c
  5355  007D1E  0E6E               	movlw	110
  5356  007D20                     u2287:
  5357  007D20  2EE8               	decfsz	wreg,f,c
  5358  007D22  D7FE               	bra	u2287
  5359  007D24  2E3C               	decfsz	??_Close_Lock& (0+255),f,c
  5360  007D26  D7FC               	bra	u2287
  5361  007D28  2E3D               	decfsz	(??_Close_Lock+1)& (0+255),f,c
  5362  007D2A  D7FA               	bra	u2287
  5363  007D2C  D082               	goto	L5
  5364  007D2E                     l3011:
  5365                           
  5366                           ;main.c: 178:                 _delay((unsigned long)((2000)*(20000000/4000.0)));
  5367  007D2E  0E33               	movlw	51
  5368  007D30  6E3D               	movwf	(??_Close_Lock+1)& (0+255),c
  5369  007D32  0EBB               	movlw	187
  5370  007D34  6E3C               	movwf	??_Close_Lock& (0+255),c
  5371  007D36  0EE0               	movlw	224
  5372  007D38                     u2297:
  5373  007D38  2EE8               	decfsz	wreg,f,c
  5374  007D3A  D7FE               	bra	u2297
  5375  007D3C  2E3C               	decfsz	??_Close_Lock& (0+255),f,c
  5376  007D3E  D7FC               	bra	u2297
  5377  007D40  2E3D               	decfsz	(??_Close_Lock+1)& (0+255),f,c
  5378  007D42  D7FA               	bra	u2297
  5379                           
  5380                           ;main.c: 179:                 break;
  5381  007D44  D158               	goto	l3043
  5382  007D46                     l3013:
  5383                           
  5384                           ;main.c: 181:                 _delay((unsigned long)((3000)*(20000000/4000.0)));
  5385  007D46  0E4D               	movlw	77
  5386  007D48  6E3D               	movwf	(??_Close_Lock+1)& (0+255),c
  5387  007D4A  0E19               	movlw	25
  5388  007D4C  6E3C               	movwf	??_Close_Lock& (0+255),c
  5389  007D4E  0E50               	movlw	80
  5390  007D50                     u2307:
  5391  007D50  2EE8               	decfsz	wreg,f,c
  5392  007D52  D7FE               	bra	u2307
  5393  007D54  2E3C               	decfsz	??_Close_Lock& (0+255),f,c
  5394  007D56  D7FC               	bra	u2307
  5395  007D58  2E3D               	decfsz	(??_Close_Lock+1)& (0+255),f,c
  5396  007D5A  D7FA               	bra	u2307
  5397                           
  5398                           ;main.c: 182:                 break;
  5399  007D5C  D14C               	goto	l3043
  5400  007D5E                     l3015:
  5401                           
  5402                           ;main.c: 184:                 _delay((unsigned long)((4000)*(20000000/4000.0)));
  5403  007D5E  0E66               	movlw	102
  5404  007D60  6E3D               	movwf	(??_Close_Lock+1)& (0+255),c
  5405  007D62  0E76               	movlw	118
  5406  007D64  6E3C               	movwf	??_Close_Lock& (0+255),c
  5407  007D66  0EC1               	movlw	193
  5408  007D68                     u2317:
  5409  007D68  2EE8               	decfsz	wreg,f,c
  5410  007D6A  D7FE               	bra	u2317
  5411  007D6C  2E3C               	decfsz	??_Close_Lock& (0+255),f,c
  5412  007D6E  D7FC               	bra	u2317
  5413  007D70  2E3D               	decfsz	(??_Close_Lock+1)& (0+255),f,c
  5414  007D72  D7FA               	bra	u2317
  5415  007D74  D0A4               	goto	L6
  5416  007D76                     l3017:
  5417                           
  5418                           ;main.c: 187:                 _delay((unsigned long)((5000)*(20000000/4000.0)));
  5419  007D76  0E7F               	movlw	127
  5420  007D78  6E3D               	movwf	(??_Close_Lock+1)& (0+255),c
  5421  007D7A  0ED4               	movlw	212
  5422  007D7C  6E3C               	movwf	??_Close_Lock& (0+255),c
  5423  007D7E  0E32               	movlw	50
  5424  007D80                     u2327:
  5425  007D80  2EE8               	decfsz	wreg,f,c
  5426  007D82  D7FE               	bra	u2327
  5427  007D84  2E3C               	decfsz	??_Close_Lock& (0+255),f,c
  5428  007D86  D7FC               	bra	u2327
  5429  007D88  2E3D               	decfsz	(??_Close_Lock+1)& (0+255),f,c
  5430  007D8A  D7FA               	bra	u2327
  5431                           
  5432                           ;main.c: 188:                 break;
  5433  007D8C  D134               	goto	l3043
  5434  007D8E                     l3019:
  5435                           
  5436                           ;main.c: 190:                 _delay((unsigned long)((6000)*(20000000/4000.0)));
  5437  007D8E  0E99               	movlw	153
  5438  007D90  6E3D               	movwf	(??_Close_Lock+1)& (0+255),c
  5439  007D92  0E31               	movlw	49
  5440  007D94  6E3C               	movwf	??_Close_Lock& (0+255),c
  5441  007D96  0EA2               	movlw	162
  5442  007D98                     u2337:
  5443  007D98  2EE8               	decfsz	wreg,f,c
  5444  007D9A  D7FE               	bra	u2337
  5445  007D9C  2E3C               	decfsz	??_Close_Lock& (0+255),f,c
  5446  007D9E  D7FC               	bra	u2337
  5447  007DA0  2E3D               	decfsz	(??_Close_Lock+1)& (0+255),f,c
  5448  007DA2  D7FA               	bra	u2337
  5449  007DA4  D046               	goto	L5
  5450  007DA6                     l3021:
  5451                           
  5452                           ;main.c: 193:                 _delay((unsigned long)((7000)*(20000000/4000.0)));
  5453  007DA6  0EB2               	movlw	178
  5454  007DA8  6E3D               	movwf	(??_Close_Lock+1)& (0+255),c
  5455  007DAA  0E8F               	movlw	143
  5456  007DAC  6E3C               	movwf	??_Close_Lock& (0+255),c
  5457  007DAE  0E13               	movlw	19
  5458  007DB0                     u2347:
  5459  007DB0  2EE8               	decfsz	wreg,f,c
  5460  007DB2  D7FE               	bra	u2347
  5461  007DB4  2E3C               	decfsz	??_Close_Lock& (0+255),f,c
  5462  007DB6  D7FC               	bra	u2347
  5463  007DB8  2E3D               	decfsz	(??_Close_Lock+1)& (0+255),f,c
  5464  007DBA  D7FA               	bra	u2347
  5465  007DBC  D080               	goto	L6
  5466  007DBE                     l3023:
  5467                           
  5468                           ;main.c: 196:                 _delay((unsigned long)((8000)*(20000000/4000.0)));
  5469  007DBE  0ECB               	movlw	203
  5470  007DC0  6E3D               	movwf	(??_Close_Lock+1)& (0+255),c
  5471  007DC2  0EEC               	movlw	236
  5472  007DC4  6E3C               	movwf	??_Close_Lock& (0+255),c
  5473  007DC6  0E84               	movlw	132
  5474  007DC8                     u2357:
  5475  007DC8  2EE8               	decfsz	wreg,f,c
  5476  007DCA  D7FE               	bra	u2357
  5477  007DCC  2E3C               	decfsz	??_Close_Lock& (0+255),f,c
  5478  007DCE  D7FC               	bra	u2357
  5479  007DD0  2E3D               	decfsz	(??_Close_Lock+1)& (0+255),f,c
  5480  007DD2  D7FA               	bra	u2357
  5481  007DD4  D02E               	goto	L5
  5482  007DD6                     l3025:
  5483                           
  5484                           ;main.c: 199:                 _delay((unsigned long)((9000)*(20000000/4000.0)));
  5485  007DD6  0EE5               	movlw	229
  5486  007DD8  6E3D               	movwf	(??_Close_Lock+1)& (0+255),c
  5487  007DDA  0E49               	movlw	73
  5488  007DDC  6E3C               	movwf	??_Close_Lock& (0+255),c
  5489  007DDE  0EF5               	movlw	245
  5490  007DE0                     u2367:
  5491  007DE0  2EE8               	decfsz	wreg,f,c
  5492  007DE2  D7FE               	bra	u2367
  5493  007DE4  2E3C               	decfsz	??_Close_Lock& (0+255),f,c
  5494  007DE6  D7FC               	bra	u2367
  5495  007DE8  2E3D               	decfsz	(??_Close_Lock+1)& (0+255),f,c
  5496  007DEA  D7FA               	bra	u2367
  5497  007DEC  D068               	goto	L6
  5498  007DEE                     l3027:
  5499                           
  5500                           ;main.c: 202:                 _delay((unsigned long)((10000)*(20000000/4000.0)));
  5501  007DEE  0EFE               	movlw	254
  5502  007DF0  6E3D               	movwf	(??_Close_Lock+1)& (0+255),c
  5503  007DF2  0EA7               	movlw	167
  5504  007DF4  6E3C               	movwf	??_Close_Lock& (0+255),c
  5505  007DF6  0E66               	movlw	102
  5506  007DF8                     u2377:
  5507  007DF8  2EE8               	decfsz	wreg,f,c
  5508  007DFA  D7FE               	bra	u2377
  5509  007DFC  2E3C               	decfsz	??_Close_Lock& (0+255),f,c
  5510  007DFE  D7FC               	bra	u2377
  5511  007E00  2E3D               	decfsz	(??_Close_Lock+1)& (0+255),f,c
  5512  007E02  D7FA               	bra	u2377
  5513                           
  5514                           ;main.c: 203:                 break;
  5515  007E04  D0F8               	goto	l3043
  5516  007E06                     l3029:
  5517                           
  5518                           ;main.c: 205:                 _delay((unsigned long)((10000)*(20000000/4000.0)));
  5519  007E06  0EFE               	movlw	254
  5520  007E08  6E3D               	movwf	(??_Close_Lock+1)& (0+255),c
  5521  007E0A  0EA7               	movlw	167
  5522  007E0C  6E3C               	movwf	??_Close_Lock& (0+255),c
  5523  007E0E  0E66               	movlw	102
  5524  007E10                     u2387:
  5525  007E10  2EE8               	decfsz	wreg,f,c
  5526  007E12  D7FE               	bra	u2387
  5527  007E14  2E3C               	decfsz	??_Close_Lock& (0+255),f,c
  5528  007E16  D7FC               	bra	u2387
  5529  007E18  2E3D               	decfsz	(??_Close_Lock+1)& (0+255),f,c
  5530  007E1A  D7FA               	bra	u2387
  5531                           
  5532                           ;main.c: 206:                 _delay((unsigned long)((1000)*(20000000/4000.0)));
  5533  007E1C  0E1A               	movlw	26
  5534  007E1E  6E3D               	movwf	(??_Close_Lock+1)& (0+255),c
  5535  007E20  0E5E               	movlw	94
  5536  007E22  6E3C               	movwf	??_Close_Lock& (0+255),c
  5537  007E24  0E6E               	movlw	110
  5538  007E26                     u2397:
  5539  007E26  2EE8               	decfsz	wreg,f,c
  5540  007E28  D7FE               	bra	u2397
  5541  007E2A  2E3C               	decfsz	??_Close_Lock& (0+255),f,c
  5542  007E2C  D7FC               	bra	u2397
  5543  007E2E  2E3D               	decfsz	(??_Close_Lock+1)& (0+255),f,c
  5544  007E30  D7FA               	bra	u2397
  5545  007E32                     L5:
  5546  007E32  D000               	nop2	
  5547                           
  5548                           ;main.c: 207:                 break;
  5549  007E34  D0E0               	goto	l3043
  5550  007E36                     l3031:
  5551                           
  5552                           ;main.c: 209:                 _delay((unsigned long)((10000)*(20000000/4000.0)));
  5553  007E36  0EFE               	movlw	254
  5554  007E38  6E3D               	movwf	(??_Close_Lock+1)& (0+255),c
  5555  007E3A  0EA7               	movlw	167
  5556  007E3C  6E3C               	movwf	??_Close_Lock& (0+255),c
  5557  007E3E  0E66               	movlw	102
  5558  007E40                     u2407:
  5559  007E40  2EE8               	decfsz	wreg,f,c
  5560  007E42  D7FE               	bra	u2407
  5561  007E44  2E3C               	decfsz	??_Close_Lock& (0+255),f,c
  5562  007E46  D7FC               	bra	u2407
  5563  007E48  2E3D               	decfsz	(??_Close_Lock+1)& (0+255),f,c
  5564  007E4A  D7FA               	bra	u2407
  5565                           
  5566                           ;main.c: 210:                 _delay((unsigned long)((2000)*(20000000/4000.0)));
  5567  007E4C  0E33               	movlw	51
  5568  007E4E  6E3D               	movwf	(??_Close_Lock+1)& (0+255),c
  5569  007E50  0EBB               	movlw	187
  5570  007E52  6E3C               	movwf	??_Close_Lock& (0+255),c
  5571  007E54  0EE0               	movlw	224
  5572  007E56                     u2417:
  5573  007E56  2EE8               	decfsz	wreg,f,c
  5574  007E58  D7FE               	bra	u2417
  5575  007E5A  2E3C               	decfsz	??_Close_Lock& (0+255),f,c
  5576  007E5C  D7FC               	bra	u2417
  5577  007E5E  2E3D               	decfsz	(??_Close_Lock+1)& (0+255),f,c
  5578  007E60  D7FA               	bra	u2417
  5579                           
  5580                           ;main.c: 211:                 break;
  5581  007E62  D0C9               	goto	l3043
  5582  007E64                     l3033:
  5583                           
  5584                           ;main.c: 213:                 _delay((unsigned long)((10000)*(20000000/4000.0)));
  5585  007E64  0EFE               	movlw	254
  5586  007E66  6E3D               	movwf	(??_Close_Lock+1)& (0+255),c
  5587  007E68  0EA7               	movlw	167
  5588  007E6A  6E3C               	movwf	??_Close_Lock& (0+255),c
  5589  007E6C  0E66               	movlw	102
  5590  007E6E                     u2427:
  5591  007E6E  2EE8               	decfsz	wreg,f,c
  5592  007E70  D7FE               	bra	u2427
  5593  007E72  2E3C               	decfsz	??_Close_Lock& (0+255),f,c
  5594  007E74  D7FC               	bra	u2427
  5595  007E76  2E3D               	decfsz	(??_Close_Lock+1)& (0+255),f,c
  5596  007E78  D7FA               	bra	u2427
  5597                           
  5598                           ;main.c: 214:                 _delay((unsigned long)((3000)*(20000000/4000.0)));
  5599  007E7A  0E4D               	movlw	77
  5600  007E7C  6E3D               	movwf	(??_Close_Lock+1)& (0+255),c
  5601  007E7E  0E19               	movlw	25
  5602  007E80  6E3C               	movwf	??_Close_Lock& (0+255),c
  5603  007E82  0E50               	movlw	80
  5604  007E84                     u2437:
  5605  007E84  2EE8               	decfsz	wreg,f,c
  5606  007E86  D7FE               	bra	u2437
  5607  007E88  2E3C               	decfsz	??_Close_Lock& (0+255),f,c
  5608  007E8A  D7FC               	bra	u2437
  5609  007E8C  2E3D               	decfsz	(??_Close_Lock+1)& (0+255),f,c
  5610  007E8E  D7FA               	bra	u2437
  5611                           
  5612                           ;main.c: 215:                 break;
  5613  007E90  D0B2               	goto	l3043
  5614  007E92                     l3035:
  5615                           
  5616                           ;main.c: 217:                 _delay((unsigned long)((10000)*(20000000/4000.0)));
  5617  007E92  0EFE               	movlw	254
  5618  007E94  6E3D               	movwf	(??_Close_Lock+1)& (0+255),c
  5619  007E96  0EA7               	movlw	167
  5620  007E98  6E3C               	movwf	??_Close_Lock& (0+255),c
  5621  007E9A  0E66               	movlw	102
  5622  007E9C                     u2447:
  5623  007E9C  2EE8               	decfsz	wreg,f,c
  5624  007E9E  D7FE               	bra	u2447
  5625  007EA0  2E3C               	decfsz	??_Close_Lock& (0+255),f,c
  5626  007EA2  D7FC               	bra	u2447
  5627  007EA4  2E3D               	decfsz	(??_Close_Lock+1)& (0+255),f,c
  5628  007EA6  D7FA               	bra	u2447
  5629                           
  5630                           ;main.c: 218:                 _delay((unsigned long)((4000)*(20000000/4000.0)));
  5631  007EA8  0E66               	movlw	102
  5632  007EAA  6E3D               	movwf	(??_Close_Lock+1)& (0+255),c
  5633  007EAC  0E76               	movlw	118
  5634  007EAE  6E3C               	movwf	??_Close_Lock& (0+255),c
  5635  007EB0  0EC1               	movlw	193
  5636  007EB2                     u2457:
  5637  007EB2  2EE8               	decfsz	wreg,f,c
  5638  007EB4  D7FE               	bra	u2457
  5639  007EB6  2E3C               	decfsz	??_Close_Lock& (0+255),f,c
  5640  007EB8  D7FC               	bra	u2457
  5641  007EBA  2E3D               	decfsz	(??_Close_Lock+1)& (0+255),f,c
  5642  007EBC  D7FA               	bra	u2457
  5643  007EBE                     L6:
  5644  007EBE  F000               	nop	
  5645                           
  5646                           ;main.c: 219:                 break;
  5647  007EC0  D09A               	goto	l3043
  5648  007EC2                     l3037:
  5649                           
  5650                           ;main.c: 221:                 _delay((unsigned long)((10000)*(20000000/4000.0)));
  5651  007EC2  0EFE               	movlw	254
  5652  007EC4  6E3D               	movwf	(??_Close_Lock+1)& (0+255),c
  5653  007EC6  0EA7               	movlw	167
  5654  007EC8  6E3C               	movwf	??_Close_Lock& (0+255),c
  5655  007ECA  0E66               	movlw	102
  5656  007ECC                     u2467:
  5657  007ECC  2EE8               	decfsz	wreg,f,c
  5658  007ECE  D7FE               	bra	u2467
  5659  007ED0  2E3C               	decfsz	??_Close_Lock& (0+255),f,c
  5660  007ED2  D7FC               	bra	u2467
  5661  007ED4  2E3D               	decfsz	(??_Close_Lock+1)& (0+255),f,c
  5662  007ED6  D7FA               	bra	u2467
  5663                           
  5664                           ;main.c: 222:                 _delay((unsigned long)((5000)*(20000000/4000.0)));
  5665  007ED8  0E7F               	movlw	127
  5666  007EDA  6E3D               	movwf	(??_Close_Lock+1)& (0+255),c
  5667  007EDC  0ED4               	movlw	212
  5668  007EDE  6E3C               	movwf	??_Close_Lock& (0+255),c
  5669  007EE0  0E32               	movlw	50
  5670  007EE2                     u2477:
  5671  007EE2  2EE8               	decfsz	wreg,f,c
  5672  007EE4  D7FE               	bra	u2477
  5673  007EE6  2E3C               	decfsz	??_Close_Lock& (0+255),f,c
  5674  007EE8  D7FC               	bra	u2477
  5675  007EEA  2E3D               	decfsz	(??_Close_Lock+1)& (0+255),f,c
  5676  007EEC  D7FA               	bra	u2477
  5677                           
  5678                           ;main.c: 223:                 break;
  5679  007EEE  D083               	goto	l3043
  5680  007EF0                     l3041:
  5681  007EF0  C040  F03C         	movff	_Time_Inductive_State,??_Close_Lock
  5682  007EF4  C041  F03D         	movff	_Time_Inductive_State+1,??_Close_Lock+1
  5683                           
  5684                           ; Switch on 2 bytes has been partitioned into a top level switch of size 1, and 16 sub-s
      +                          witches
  5685                           ; Switch size 1, requested type "simple"
  5686                           ; Number of cases is 16, Range of values is 0 to 58
  5687                           ; switch strategies available:
  5688                           ; Name         Instructions Cycles
  5689                           ; simple_byte           49    25 (average)
  5690                           ;	Chosen strategy is simple_byte
  5691  007EF8  503D               	movf	??_Close_Lock+1,w,c
  5692  007EFA  0A00               	xorlw	0	; case 0
  5693  007EFC  B4D8               	btfsc	status,2,c
  5694  007EFE  D02E               	goto	l3359
  5695  007F00  0A03               	xorlw	3	; case 3
  5696  007F02  B4D8               	btfsc	status,2,c
  5697  007F04  D02E               	goto	l3361
  5698  007F06  0A04               	xorlw	4	; case 7
  5699  007F08  B4D8               	btfsc	status,2,c
  5700  007F0A  D030               	goto	l3363
  5701  007F0C  0A0C               	xorlw	12	; case 11
  5702  007F0E  B4D8               	btfsc	status,2,c
  5703  007F10  D032               	goto	l3365
  5704  007F12  0A04               	xorlw	4	; case 15
  5705  007F14  B4D8               	btfsc	status,2,c
  5706  007F16  D034               	goto	l3367
  5707  007F18  0A1C               	xorlw	28	; case 19
  5708  007F1A  B4D8               	btfsc	status,2,c
  5709  007F1C  D036               	goto	l3369
  5710  007F1E  0A04               	xorlw	4	; case 23
  5711  007F20  B4D8               	btfsc	status,2,c
  5712  007F22  D038               	goto	l3371
  5713  007F24  0A0C               	xorlw	12	; case 27
  5714  007F26  B4D8               	btfsc	status,2,c
  5715  007F28  D03A               	goto	l3373
  5716  007F2A  0A04               	xorlw	4	; case 31
  5717  007F2C  B4D8               	btfsc	status,2,c
  5718  007F2E  D03C               	goto	l3375
  5719  007F30  0A3C               	xorlw	60	; case 35
  5720  007F32  B4D8               	btfsc	status,2,c
  5721  007F34  D03E               	goto	l3377
  5722  007F36  0A04               	xorlw	4	; case 39
  5723  007F38  B4D8               	btfsc	status,2,c
  5724  007F3A  D040               	goto	l3379
  5725  007F3C  0A0D               	xorlw	13	; case 42
  5726  007F3E  B4D8               	btfsc	status,2,c
  5727  007F40  D042               	goto	l3381
  5728  007F42  0A04               	xorlw	4	; case 46
  5729  007F44  B4D8               	btfsc	status,2,c
  5730  007F46  D044               	goto	l3383
  5731  007F48  0A1C               	xorlw	28	; case 50
  5732  007F4A  B4D8               	btfsc	status,2,c
  5733  007F4C  D046               	goto	l3385
  5734  007F4E  0A04               	xorlw	4	; case 54
  5735  007F50  B4D8               	btfsc	status,2,c
  5736  007F52  D048               	goto	l3387
  5737  007F54  0A0C               	xorlw	12	; case 58
  5738  007F56  B4D8               	btfsc	status,2,c
  5739  007F58  D04A               	goto	l3389
  5740  007F5A  D04D               	goto	l3043
  5741  007F5C                     l3359:
  5742                           
  5743                           ; Switch size 1, requested type "simple"
  5744                           ; Number of cases is 1, Range of values is 0 to 0
  5745                           ; switch strategies available:
  5746                           ; Name         Instructions Cycles
  5747                           ; simple_byte            4     3 (average)
  5748                           ;	Chosen strategy is simple_byte
  5749  007F5C  503C               	movf	??_Close_Lock,w,c
  5750  007F5E  0A00               	xorlw	0	; case 0
  5751  007F60  D04A               	goto	l3043
  5752  007F62                     l3361:
  5753                           
  5754                           ; Switch size 1, requested type "simple"
  5755                           ; Number of cases is 1, Range of values is 232 to 232
  5756                           ; switch strategies available:
  5757                           ; Name         Instructions Cycles
  5758                           ; simple_byte            4     3 (average)
  5759                           ;	Chosen strategy is simple_byte
  5760  007F62  503C               	movf	??_Close_Lock,w,c
  5761  007F64  0AE8               	xorlw	232	; case 232
  5762  007F66  B4D8               	btfsc	status,2,c
  5763  007F68  D6D6               	goto	l3009
  5764  007F6A  D045               	goto	l3043
  5765  007F6C                     l3363:
  5766                           
  5767                           ; Switch size 1, requested type "simple"
  5768                           ; Number of cases is 1, Range of values is 208 to 208
  5769                           ; switch strategies available:
  5770                           ; Name         Instructions Cycles
  5771                           ; simple_byte            4     3 (average)
  5772                           ;	Chosen strategy is simple_byte
  5773  007F6C  503C               	movf	??_Close_Lock,w,c
  5774  007F6E  0AD0               	xorlw	208	; case 208
  5775  007F70  B4D8               	btfsc	status,2,c
  5776  007F72  D6DD               	goto	l3011
  5777  007F74  D040               	goto	l3043
  5778  007F76                     l3365:
  5779                           
  5780                           ; Switch size 1, requested type "simple"
  5781                           ; Number of cases is 1, Range of values is 184 to 184
  5782                           ; switch strategies available:
  5783                           ; Name         Instructions Cycles
  5784                           ; simple_byte            4     3 (average)
  5785                           ;	Chosen strategy is simple_byte
  5786  007F76  503C               	movf	??_Close_Lock,w,c
  5787  007F78  0AB8               	xorlw	184	; case 184
  5788  007F7A  B4D8               	btfsc	status,2,c
  5789  007F7C  D6E4               	goto	l3013
  5790  007F7E  D03B               	goto	l3043
  5791  007F80                     l3367:
  5792                           
  5793                           ; Switch size 1, requested type "simple"
  5794                           ; Number of cases is 1, Range of values is 160 to 160
  5795                           ; switch strategies available:
  5796                           ; Name         Instructions Cycles
  5797                           ; simple_byte            4     3 (average)
  5798                           ;	Chosen strategy is simple_byte
  5799  007F80  503C               	movf	??_Close_Lock,w,c
  5800  007F82  0AA0               	xorlw	160	; case 160
  5801  007F84  B4D8               	btfsc	status,2,c
  5802  007F86  D6EB               	goto	l3015
  5803  007F88  D036               	goto	l3043
  5804  007F8A                     l3369:
  5805                           
  5806                           ; Switch size 1, requested type "simple"
  5807                           ; Number of cases is 1, Range of values is 136 to 136
  5808                           ; switch strategies available:
  5809                           ; Name         Instructions Cycles
  5810                           ; simple_byte            4     3 (average)
  5811                           ;	Chosen strategy is simple_byte
  5812  007F8A  503C               	movf	??_Close_Lock,w,c
  5813  007F8C  0A88               	xorlw	136	; case 136
  5814  007F8E  B4D8               	btfsc	status,2,c
  5815  007F90  D6F2               	goto	l3017
  5816  007F92  D031               	goto	l3043
  5817  007F94                     l3371:
  5818                           
  5819                           ; Switch size 1, requested type "simple"
  5820                           ; Number of cases is 1, Range of values is 112 to 112
  5821                           ; switch strategies available:
  5822                           ; Name         Instructions Cycles
  5823                           ; simple_byte            4     3 (average)
  5824                           ;	Chosen strategy is simple_byte
  5825  007F94  503C               	movf	??_Close_Lock,w,c
  5826  007F96  0A70               	xorlw	112	; case 112
  5827  007F98  B4D8               	btfsc	status,2,c
  5828  007F9A  D6F9               	goto	l3019
  5829  007F9C  D02C               	goto	l3043
  5830  007F9E                     l3373:
  5831                           
  5832                           ; Switch size 1, requested type "simple"
  5833                           ; Number of cases is 1, Range of values is 88 to 88
  5834                           ; switch strategies available:
  5835                           ; Name         Instructions Cycles
  5836                           ; simple_byte            4     3 (average)
  5837                           ;	Chosen strategy is simple_byte
  5838  007F9E  503C               	movf	??_Close_Lock,w,c
  5839  007FA0  0A58               	xorlw	88	; case 88
  5840  007FA2  B4D8               	btfsc	status,2,c
  5841  007FA4  D700               	goto	l3021
  5842  007FA6  D027               	goto	l3043
  5843  007FA8                     l3375:
  5844                           
  5845                           ; Switch size 1, requested type "simple"
  5846                           ; Number of cases is 1, Range of values is 64 to 64
  5847                           ; switch strategies available:
  5848                           ; Name         Instructions Cycles
  5849                           ; simple_byte            4     3 (average)
  5850                           ;	Chosen strategy is simple_byte
  5851  007FA8  503C               	movf	??_Close_Lock,w,c
  5852  007FAA  0A40               	xorlw	64	; case 64
  5853  007FAC  B4D8               	btfsc	status,2,c
  5854  007FAE  D707               	goto	l3023
  5855  007FB0  D022               	goto	l3043
  5856  007FB2                     l3377:
  5857                           
  5858                           ; Switch size 1, requested type "simple"
  5859                           ; Number of cases is 1, Range of values is 40 to 40
  5860                           ; switch strategies available:
  5861                           ; Name         Instructions Cycles
  5862                           ; simple_byte            4     3 (average)
  5863                           ;	Chosen strategy is simple_byte
  5864  007FB2  503C               	movf	??_Close_Lock,w,c
  5865  007FB4  0A28               	xorlw	40	; case 40
  5866  007FB6  B4D8               	btfsc	status,2,c
  5867  007FB8  D70E               	goto	l3025
  5868  007FBA  D01D               	goto	l3043
  5869  007FBC                     l3379:
  5870                           
  5871                           ; Switch size 1, requested type "simple"
  5872                           ; Number of cases is 1, Range of values is 16 to 16
  5873                           ; switch strategies available:
  5874                           ; Name         Instructions Cycles
  5875                           ; simple_byte            4     3 (average)
  5876                           ;	Chosen strategy is simple_byte
  5877  007FBC  503C               	movf	??_Close_Lock,w,c
  5878  007FBE  0A10               	xorlw	16	; case 16
  5879  007FC0  B4D8               	btfsc	status,2,c
  5880  007FC2  D715               	goto	l3027
  5881  007FC4  D018               	goto	l3043
  5882  007FC6                     l3381:
  5883                           
  5884                           ; Switch size 1, requested type "simple"
  5885                           ; Number of cases is 1, Range of values is 248 to 248
  5886                           ; switch strategies available:
  5887                           ; Name         Instructions Cycles
  5888                           ; simple_byte            4     3 (average)
  5889                           ;	Chosen strategy is simple_byte
  5890  007FC6  503C               	movf	??_Close_Lock,w,c
  5891  007FC8  0AF8               	xorlw	248	; case 248
  5892  007FCA  B4D8               	btfsc	status,2,c
  5893  007FCC  D71C               	goto	l3029
  5894  007FCE  D013               	goto	l3043
  5895  007FD0                     l3383:
  5896                           
  5897                           ; Switch size 1, requested type "simple"
  5898                           ; Number of cases is 1, Range of values is 224 to 224
  5899                           ; switch strategies available:
  5900                           ; Name         Instructions Cycles
  5901                           ; simple_byte            4     3 (average)
  5902                           ;	Chosen strategy is simple_byte
  5903  007FD0  503C               	movf	??_Close_Lock,w,c
  5904  007FD2  0AE0               	xorlw	224	; case 224
  5905  007FD4  B4D8               	btfsc	status,2,c
  5906  007FD6  D72F               	goto	l3031
  5907  007FD8  D00E               	goto	l3043
  5908  007FDA                     l3385:
  5909                           
  5910                           ; Switch size 1, requested type "simple"
  5911                           ; Number of cases is 1, Range of values is 200 to 200
  5912                           ; switch strategies available:
  5913                           ; Name         Instructions Cycles
  5914                           ; simple_byte            4     3 (average)
  5915                           ;	Chosen strategy is simple_byte
  5916  007FDA  503C               	movf	??_Close_Lock,w,c
  5917  007FDC  0AC8               	xorlw	200	; case 200
  5918  007FDE  B4D8               	btfsc	status,2,c
  5919  007FE0  D741               	goto	l3033
  5920  007FE2  D009               	goto	l3043
  5921  007FE4                     l3387:
  5922                           
  5923                           ; Switch size 1, requested type "simple"
  5924                           ; Number of cases is 1, Range of values is 176 to 176
  5925                           ; switch strategies available:
  5926                           ; Name         Instructions Cycles
  5927                           ; simple_byte            4     3 (average)
  5928                           ;	Chosen strategy is simple_byte
  5929  007FE4  503C               	movf	??_Close_Lock,w,c
  5930  007FE6  0AB0               	xorlw	176	; case 176
  5931  007FE8  B4D8               	btfsc	status,2,c
  5932  007FEA  D753               	goto	l3035
  5933  007FEC  D004               	goto	l3043
  5934  007FEE                     l3389:
  5935                           
  5936                           ; Switch size 1, requested type "simple"
  5937                           ; Number of cases is 1, Range of values is 152 to 152
  5938                           ; switch strategies available:
  5939                           ; Name         Instructions Cycles
  5940                           ; simple_byte            4     3 (average)
  5941                           ;	Chosen strategy is simple_byte
  5942  007FEE  503C               	movf	??_Close_Lock,w,c
  5943  007FF0  0A98               	xorlw	152	; case 152
  5944  007FF2  B4D8               	btfsc	status,2,c
  5945  007FF4  D766               	goto	l3037
  5946  007FF6                     l3043:
  5947                           
  5948                           ;main.c: 228:             Closing();
  5949  007FF6  EC0E  F038         	call	_Closing	;wreg free
  5950  007FFA                     l3045:
  5951                           
  5952                           ;main.c: 239:     Last_Inductive_State = Inductive_State;
  5953  007FFA  C034  F035         	movff	_Inductive_State,_Last_Inductive_State
  5954  007FFE  0012               	return		;funcret
  5955  008000                     __end_of_Close_Lock:
  5956                           	opt callstack 0
  5957                           
  5958 ;; *************** function _eeprom_readx *****************
  5959 ;; Defined at:
  5960 ;;		line 375 in file "main.c"
  5961 ;; Parameters:    Size  Location     Type
  5962 ;;  address         2    0[COMRAM] int 
  5963 ;; Auto vars:     Size  Location     Type
  5964 ;;		None
  5965 ;; Return value:  Size  Location     Type
  5966 ;;                  1    wreg      unsigned char 
  5967 ;; Registers used:
  5968 ;;		wreg, status,2
  5969 ;; Tracked objects:
  5970 ;;		On entry : 0/0
  5971 ;;		On exit  : 0/0
  5972 ;;		Unchanged: 0/0
  5973 ;; Data sizes:     COMRAM   BANK0   BANK1   BANK2   BANK3   BANK4   BANK5   BANK6   BANK7
  5974 ;;      Params:         2       0       0       0       0       0       0       0       0
  5975 ;;      Locals:         0       0       0       0       0       0       0       0       0
  5976 ;;      Temps:          0       0       0       0       0       0       0       0       0
  5977 ;;      Totals:         2       0       0       0       0       0       0       0       0
  5978 ;;Total ram usage:        2 bytes
  5979 ;; Hardware stack levels used:    1
  5980 ;; This function calls:
  5981 ;;		Nothing
  5982 ;; This function is called by:
  5983 ;;		_main
  5984 ;;		_Close_Lock
  5985 ;;		_Open_Lock
  5986 ;; This function uses a non-reentrant model
  5987 ;;
  5988                           
  5989                           	psect	text34
  5990  0069A6                     __ptext34:
  5991                           	opt callstack 0
  5992  0069A6                     _eeprom_readx:
  5993                           	opt callstack 30
  5994                           
  5995                           ;main.c: 376:     EEADR = address;
  5996                           
  5997                           ;incstack = 0
  5998  0069A6  C036  FFA9         	movff	eeprom_readx@address,4009	;volatile
  5999                           
  6000                           ;main.c: 377:     EECON1bits.EEPGD = 0;
  6001  0069AA  9EA6               	bcf	4006,7,c	;volsfr
  6002                           
  6003                           ;main.c: 378:     EECON1bits.CFGS = 0;
  6004  0069AC  9CA6               	bcf	4006,6,c	;volsfr
  6005                           
  6006                           ;main.c: 379:     EECON1bits.RD = 1;
  6007  0069AE  80A6               	bsf	4006,0,c	;volsfr
  6008                           
  6009                           ;main.c: 380:     return(EEDATA);
  6010  0069B0  50A8               	movf	4008,w,c	;volatile
  6011  0069B2  0012               	return		;funcret
  6012  0069B4                     __end_of_eeprom_readx:
  6013                           	opt callstack 0
  6014                           
  6015 ;; *************** function ___wmul *****************
  6016 ;; Defined at:
  6017 ;;		line 15 in file "C:\Program Files (x86)\Microchip\xc8\v2.05\pic\sources\c99\common\Umul16.c"
  6018 ;; Parameters:    Size  Location     Type
  6019 ;;  multiplier      2    0[COMRAM] unsigned int 
  6020 ;;  multiplicand    2    2[COMRAM] unsigned int 
  6021 ;; Auto vars:     Size  Location     Type
  6022 ;;  product         2    4[COMRAM] unsigned int 
  6023 ;; Return value:  Size  Location     Type
  6024 ;;                  2    0[COMRAM] unsigned int 
  6025 ;; Registers used:
  6026 ;;		wreg, status,2, status,0, prodl, prodh
  6027 ;; Tracked objects:
  6028 ;;		On entry : 0/0
  6029 ;;		On exit  : 0/0
  6030 ;;		Unchanged: 0/0
  6031 ;; Data sizes:     COMRAM   BANK0   BANK1   BANK2   BANK3   BANK4   BANK5   BANK6   BANK7
  6032 ;;      Params:         4       0       0       0       0       0       0       0       0
  6033 ;;      Locals:         2       0       0       0       0       0       0       0       0
  6034 ;;      Temps:          0       0       0       0       0       0       0       0       0
  6035 ;;      Totals:         6       0       0       0       0       0       0       0       0
  6036 ;;Total ram usage:        6 bytes
  6037 ;; Hardware stack levels used:    1
  6038 ;; This function calls:
  6039 ;;		Nothing
  6040 ;; This function is called by:
  6041 ;;		_Close_Lock
  6042 ;; This function uses a non-reentrant model
  6043 ;;
  6044                           
  6045                           	psect	text35
  6046  0069F8                     __ptext35:
  6047                           	opt callstack 0
  6048  0069F8                     ___wmul:
  6049                           	opt callstack 29
  6050                           
  6051                           ;incstack = 0
  6052  0069F8  5036               	movf	___wmul@multiplier,w,c
  6053  0069FA  0238               	mulwf	___wmul@multiplicand,c
  6054  0069FC  CFF3 F03A          	movff	prodl,___wmul@product
  6055  006A00  CFF4 F03B          	movff	prodh,___wmul@product+1
  6056  006A04  5036               	movf	___wmul@multiplier,w,c
  6057  006A06  0239               	mulwf	___wmul@multiplicand+1,c
  6058  006A08  50F3               	movf	prodl,w,c
  6059  006A0A  263B               	addwf	___wmul@product+1,f,c
  6060  006A0C  5037               	movf	___wmul@multiplier+1,w,c
  6061  006A0E  0238               	mulwf	___wmul@multiplicand,c
  6062  006A10  50F3               	movf	prodl,w,c
  6063  006A12  263B               	addwf	___wmul@product+1,f,c
  6064  006A14  C03A  F036         	movff	___wmul@product,?___wmul
  6065  006A18  C03B  F037         	movff	___wmul@product+1,?___wmul+1
  6066  006A1C  0012               	return		;funcret
  6067  006A1E                     __end_of___wmul:
  6068                           	opt callstack 0
  6069                           
  6070 ;; *************** function _Closing *****************
  6071 ;; Defined at:
  6072 ;;		line 302 in file "main.c"
  6073 ;; Parameters:    Size  Location     Type
  6074 ;;		None
  6075 ;; Auto vars:     Size  Location     Type
  6076 ;;		None
  6077 ;; Return value:  Size  Location     Type
  6078 ;;                  1    wreg      void 
  6079 ;; Registers used:
  6080 ;;		wreg, status,2, status,0, cstack
  6081 ;; Tracked objects:
  6082 ;;		On entry : 0/0
  6083 ;;		On exit  : 0/0
  6084 ;;		Unchanged: 0/0
  6085 ;; Data sizes:     COMRAM   BANK0   BANK1   BANK2   BANK3   BANK4   BANK5   BANK6   BANK7
  6086 ;;      Params:         0       0       0       0       0       0       0       0       0
  6087 ;;      Locals:         0       0       0       0       0       0       0       0       0
  6088 ;;      Temps:          0       0       0       0       0       0       0       0       0
  6089 ;;      Totals:         0       0       0       0       0       0       0       0       0
  6090 ;;Total ram usage:        0 bytes
  6091 ;; Hardware stack levels used:    1
  6092 ;; Hardware stack levels required when called:    2
  6093 ;; This function calls:
  6094 ;;		_Analog_Read
  6095 ;;		_Sense_Current
  6096 ;; This function is called by:
  6097 ;;		_Close_Lock
  6098 ;;		_Open_Lock
  6099 ;; This function uses a non-reentrant model
  6100 ;;
  6101                           
  6102                           	psect	text36
  6103  00701C                     __ptext36:
  6104                           	opt callstack 0
  6105  00701C                     _Closing:
  6106                           	opt callstack 27
  6107                           
  6108                           ;main.c: 304:         PORTCbits.RC1 = 1;
  6109                           
  6110                           ;incstack = 0
  6111                           ;main.c: 303:     do {
  6112  00701C  8282               	bsf	3970,1,c	;volatile
  6113                           
  6114                           ;main.c: 305:         End_Stop_Close_State = PORTAbits.RA3;
  6115  00701E  A680               	btfss	3968,3,c	;volatile
  6116  007020  D002               	goto	u1170
  6117  007022  0E01               	movlw	1
  6118  007024  D001               	goto	u1176
  6119  007026                     u1170:
  6120  007026  0E00               	movlw	0
  6121  007028                     u1176:
  6122  007028  6E32               	movwf	_End_Stop_Close_State,c
  6123                           
  6124                           ;main.c: 306:         Count_Time_Close++;
  6125  00702A  0E01               	movlw	1
  6126  00702C  261D               	addwf	_Count_Time_Close,f,c
  6127  00702E  0E00               	movlw	0
  6128  007030  221E               	addwfc	_Count_Time_Close+1,f,c
  6129  007032  221F               	addwfc	_Count_Time_Close+2,f,c
  6130  007034  2220               	addwfc	_Count_Time_Close+3,f,c
  6131                           
  6132                           ;main.c: 307:         Current = Analog_Read();
  6133  007036  EC0F  F035         	call	_Analog_Read	;wreg free
  6134  00703A  C036  F027         	movff	?_Analog_Read,_Current
  6135  00703E  C037  F028         	movff	?_Analog_Read+1,_Current+1
  6136                           
  6137                           ;main.c: 308:         Sense_Current();
  6138  007042  EC23  F035         	call	_Sense_Current	;wreg free
  6139                           
  6140                           ;main.c: 309:         if(Count_Time_Close == 250000) {
  6141  007046  0E90               	movlw	144
  6142  007048  181D               	xorwf	_Count_Time_Close,w,c
  6143  00704A  E111               	bnz	l2849
  6144  00704C  0ED0               	movlw	208
  6145  00704E  181E               	xorwf	_Count_Time_Close+1,w,c
  6146  007050  E10E               	bnz	l2849
  6147  007052  0E03               	movlw	3
  6148  007054  181F               	xorwf	_Count_Time_Close+2,w,c
  6149  007056  1020               	iorwf	_Count_Time_Close+3,w,c
  6150  007058  A4D8               	btfss	status,2,c
  6151  00705A  D009               	goto	l2849
  6152                           
  6153                           ;main.c: 310:             Count_Time_Close = 0;
  6154  00705C  0E00               	movlw	0
  6155  00705E  6E1D               	movwf	_Count_Time_Close,c
  6156  007060  0E00               	movlw	0
  6157  007062  6E1E               	movwf	_Count_Time_Close+1,c
  6158  007064  0E00               	movlw	0
  6159  007066  6E1F               	movwf	_Count_Time_Close+2,c
  6160  007068  0E00               	movlw	0
  6161  00706A  6E20               	movwf	_Count_Time_Close+3,c
  6162                           
  6163                           ;main.c: 311:             break;
  6164  00706C  D01A               	goto	u1210
  6165  00706E                     l2849:
  6166  00706E  BE28               	btfsc	_Current+1,7,c
  6167  007070  D015               	goto	l2857
  6168  007072  0E21               	movlw	33
  6169  007074  5C27               	subwf	_Current,w,c
  6170  007076  0E02               	movlw	2
  6171  007078  5828               	subwfb	_Current+1,w,c
  6172  00707A  A0D8               	btfss	status,0,c
  6173  00707C  D00F               	goto	l2857
  6174                           
  6175                           ;main.c: 313:             Count_Peake_Current++;
  6176  00707E  4A29               	infsnz	_Count_Peake_Current,f,c
  6177  007080  2A2A               	incf	_Count_Peake_Current+1,f,c
  6178                           
  6179                           ;main.c: 314:             if (Count_Peake_Current > 2000) {
  6180  007082  BE2A               	btfsc	_Count_Peake_Current+1,7,c
  6181  007084  D00B               	goto	l2857
  6182  007086  0ED1               	movlw	209
  6183  007088  5C29               	subwf	_Count_Peake_Current,w,c
  6184  00708A  0E07               	movlw	7
  6185  00708C  582A               	subwfb	_Count_Peake_Current+1,w,c
  6186  00708E  A0D8               	btfss	status,0,c
  6187  007090  D005               	goto	l2857
  6188                           
  6189                           ;main.c: 315:                 Count_Peake_Current = 0;
  6190  007092  0E00               	movlw	0
  6191  007094  6E2A               	movwf	_Count_Peake_Current+1,c
  6192  007096  0E00               	movlw	0
  6193  007098  6E29               	movwf	_Count_Peake_Current,c
  6194                           
  6195                           ;main.c: 316:                 break;
  6196  00709A  D003               	goto	u1210
  6197  00709C                     l2857:
  6198                           
  6199                           ;main.c: 319:     } while(End_Stop_Close_State == 1);
  6200  00709C  0432               	decf	_End_Stop_Close_State,w,c
  6201  00709E  B4D8               	btfsc	status,2,c
  6202  0070A0  D7BD               	goto	_Closing
  6203  0070A2                     u1210:
  6204                           
  6205                           ;main.c: 320:     PORTCbits.RC1 = 0;
  6206  0070A2  9282               	bcf	3970,1,c	;volatile
  6207                           
  6208                           ;main.c: 321:     Count_Time_Close = 0;
  6209  0070A4  0E00               	movlw	0
  6210  0070A6  6E1D               	movwf	_Count_Time_Close,c
  6211  0070A8  0E00               	movlw	0
  6212  0070AA  6E1E               	movwf	_Count_Time_Close+1,c
  6213  0070AC  0E00               	movlw	0
  6214  0070AE  6E1F               	movwf	_Count_Time_Close+2,c
  6215  0070B0  0E00               	movlw	0
  6216  0070B2  6E20               	movwf	_Count_Time_Close+3,c
  6217                           
  6218                           ;main.c: 322:     Count_Peake_Current = 0;
  6219  0070B4  0E00               	movlw	0
  6220  0070B6  6E2A               	movwf	_Count_Peake_Current+1,c
  6221  0070B8  0E00               	movlw	0
  6222  0070BA  6E29               	movwf	_Count_Peake_Current,c
  6223                           
  6224                           ;main.c: 323:     Toggle_Up = 0;
  6225  0070BC  0E00               	movlw	0
  6226  0070BE  6E2F               	movwf	_Toggle_Up,c
  6227                           
  6228                           ;main.c: 324:     Toggle_Down = 0;
  6229  0070C0  0E00               	movlw	0
  6230  0070C2  6E2E               	movwf	_Toggle_Down,c
  6231  0070C4  0012               	return		;funcret
  6232  0070C6                     __end_of_Closing:
  6233                           	opt callstack 0
  6234                           
  6235 ;; *************** function _Sense_Current *****************
  6236 ;; Defined at:
  6237 ;;		line 344 in file "main.c"
  6238 ;; Parameters:    Size  Location     Type
  6239 ;;		None
  6240 ;; Auto vars:     Size  Location     Type
  6241 ;;		None
  6242 ;; Return value:  Size  Location     Type
  6243 ;;                  1    wreg      void 
  6244 ;; Registers used:
  6245 ;;		wreg, status,2, status,0, cstack
  6246 ;; Tracked objects:
  6247 ;;		On entry : 0/0
  6248 ;;		On exit  : 0/0
  6249 ;;		Unchanged: 0/0
  6250 ;; Data sizes:     COMRAM   BANK0   BANK1   BANK2   BANK3   BANK4   BANK5   BANK6   BANK7
  6251 ;;      Params:         0       0       0       0       0       0       0       0       0
  6252 ;;      Locals:         0       0       0       0       0       0       0       0       0
  6253 ;;      Temps:          0       0       0       0       0       0       0       0       0
  6254 ;;      Totals:         0       0       0       0       0       0       0       0       0
  6255 ;;Total ram usage:        0 bytes
  6256 ;; Hardware stack levels used:    1
  6257 ;; Hardware stack levels required when called:    1
  6258 ;; This function calls:
  6259 ;;		_Analog_Read
  6260 ;;		_Clear
  6261 ;;		_Draw_CL
  6262 ;; This function is called by:
  6263 ;;		_Open_Lock
  6264 ;;		_Closing
  6265 ;; This function uses a non-reentrant model
  6266 ;;
  6267                           
  6268                           	psect	text37
  6269  006A46                     __ptext37:
  6270                           	opt callstack 0
  6271  006A46                     _Sense_Current:
  6272                           	opt callstack 28
  6273                           
  6274                           ;main.c: 345:     Current = Analog_Read();
  6275                           
  6276                           ;incstack = 0
  6277  006A46  EC0F  F035         	call	_Analog_Read	;wreg free
  6278  006A4A  C036  F027         	movff	?_Analog_Read,_Current
  6279  006A4E  C037  F028         	movff	?_Analog_Read+1,_Current+1
  6280                           
  6281                           ;main.c: 346:         if (Current > 544) {
  6282  006A52  BE28               	btfsc	_Current+1,7,c
  6283  006A54  D009               	goto	l2443
  6284  006A56  0E21               	movlw	33
  6285  006A58  5C27               	subwf	_Current,w,c
  6286  006A5A  0E02               	movlw	2
  6287  006A5C  5828               	subwfb	_Current+1,w,c
  6288  006A5E  A0D8               	btfss	status,0,c
  6289  006A60  D003               	goto	l2443
  6290                           
  6291                           ;main.c: 347:             Draw_CL();
  6292  006A62  ECDA  F034         	call	_Draw_CL	;wreg free
  6293                           
  6294                           ;main.c: 348:         } else {
  6295  006A66  0012               	return	
  6296  006A68                     l2443:
  6297                           
  6298                           ;main.c: 349:             Clear();
  6299  006A68  ECCE  F034         	call	_Clear	;wreg free
  6300  006A6C  0012               	return		;funcret
  6301  006A6E                     __end_of_Sense_Current:
  6302                           	opt callstack 0
  6303                           
  6304 ;; *************** function _Draw_CL *****************
  6305 ;; Defined at:
  6306 ;;		line 870 in file "main.c"
  6307 ;; Parameters:    Size  Location     Type
  6308 ;;		None
  6309 ;; Auto vars:     Size  Location     Type
  6310 ;;		None
  6311 ;; Return value:  Size  Location     Type
  6312 ;;                  1    wreg      void 
  6313 ;; Registers used:
  6314 ;;		wreg, status,2
  6315 ;; Tracked objects:
  6316 ;;		On entry : 0/0
  6317 ;;		On exit  : 0/0
  6318 ;;		Unchanged: 0/0
  6319 ;; Data sizes:     COMRAM   BANK0   BANK1   BANK2   BANK3   BANK4   BANK5   BANK6   BANK7
  6320 ;;      Params:         0       0       0       0       0       0       0       0       0
  6321 ;;      Locals:         0       0       0       0       0       0       0       0       0
  6322 ;;      Temps:          0       0       0       0       0       0       0       0       0
  6323 ;;      Totals:         0       0       0       0       0       0       0       0       0
  6324 ;;Total ram usage:        0 bytes
  6325 ;; Hardware stack levels used:    1
  6326 ;; This function calls:
  6327 ;;		Nothing
  6328 ;; This function is called by:
  6329 ;;		_Sense_Current
  6330 ;; This function uses a non-reentrant model
  6331 ;;
  6332                           
  6333                           	psect	text38
  6334  0069B4                     __ptext38:
  6335                           	opt callstack 0
  6336  0069B4                     _Draw_CL:
  6337                           	opt callstack 28
  6338                           
  6339                           ;main.c: 871:     PORTB = 0x8D;
  6340                           
  6341                           ;incstack = 0
  6342  0069B4  0E8D               	movlw	141
  6343  0069B6  6E81               	movwf	3969,c	;volatile
  6344                           
  6345                           ;main.c: 872:     PORTCbits.RC7 = 1;
  6346  0069B8  8E82               	bsf	3970,7,c	;volatile
  6347                           
  6348                           ;main.c: 873:     _delay((unsigned long)((5)*(20000000/4000000.0)));
  6349  0069BA  0E08               	movlw	8
  6350  0069BC                     u2487:
  6351  0069BC  2EE8               	decfsz	wreg,f,c
  6352  0069BE  D7FE               	bra	u2487
  6353  0069C0  F000               	nop	
  6354                           
  6355                           ;main.c: 874:     PORTCbits.RC7 = 0;
  6356  0069C2  9E82               	bcf	3970,7,c	;volatile
  6357                           
  6358                           ;main.c: 875:     PORTB = 0x8F;
  6359  0069C4  0E8F               	movlw	143
  6360  0069C6  6E81               	movwf	3969,c	;volatile
  6361                           
  6362                           ;main.c: 876:     PORTCbits.RC6 = 1;
  6363  0069C8  8C82               	bsf	3970,6,c	;volatile
  6364                           
  6365                           ;main.c: 877:     _delay((unsigned long)((5)*(20000000/4000000.0)));
  6366  0069CA  0E08               	movlw	8
  6367  0069CC                     u2497:
  6368  0069CC  2EE8               	decfsz	wreg,f,c
  6369  0069CE  D7FE               	bra	u2497
  6370  0069D0  F000               	nop	
  6371                           
  6372                           ;main.c: 878:     PORTCbits.RC6 = 0;
  6373  0069D2  9C82               	bcf	3970,6,c	;volatile
  6374  0069D4  0012               	return		;funcret
  6375  0069D6                     __end_of_Draw_CL:
  6376                           	opt callstack 0
  6377                           
  6378 ;; *************** function _Clear *****************
  6379 ;; Defined at:
  6380 ;;		line 864 in file "main.c"
  6381 ;; Parameters:    Size  Location     Type
  6382 ;;		None
  6383 ;; Auto vars:     Size  Location     Type
  6384 ;;		None
  6385 ;; Return value:  Size  Location     Type
  6386 ;;                  1    wreg      void 
  6387 ;; Registers used:
  6388 ;;		wreg, status,2
  6389 ;; Tracked objects:
  6390 ;;		On entry : 0/0
  6391 ;;		On exit  : 0/0
  6392 ;;		Unchanged: 0/0
  6393 ;; Data sizes:     COMRAM   BANK0   BANK1   BANK2   BANK3   BANK4   BANK5   BANK6   BANK7
  6394 ;;      Params:         0       0       0       0       0       0       0       0       0
  6395 ;;      Locals:         0       0       0       0       0       0       0       0       0
  6396 ;;      Temps:          0       0       0       0       0       0       0       0       0
  6397 ;;      Totals:         0       0       0       0       0       0       0       0       0
  6398 ;;Total ram usage:        0 bytes
  6399 ;; Hardware stack levels used:    1
  6400 ;; This function calls:
  6401 ;;		Nothing
  6402 ;; This function is called by:
  6403 ;;		_Sense_Current
  6404 ;;		_Recording
  6405 ;; This function uses a non-reentrant model
  6406 ;;
  6407                           
  6408                           	psect	text39
  6409  00699C                     __ptext39:
  6410                           	opt callstack 0
  6411  00699C                     _Clear:
  6412                           	opt callstack 28
  6413                           
  6414                           ;main.c: 865:     PORTCbits.RC7 = 0;
  6415                           
  6416                           ;incstack = 0
  6417  00699C  9E82               	bcf	3970,7,c	;volatile
  6418                           
  6419                           ;main.c: 866:     PORTCbits.RC6 = 0;
  6420  00699E  9C82               	bcf	3970,6,c	;volatile
  6421                           
  6422                           ;main.c: 867:     PORTB = 0x11;
  6423  0069A0  0E11               	movlw	17
  6424  0069A2  6E81               	movwf	3969,c	;volatile
  6425  0069A4  0012               	return		;funcret
  6426  0069A6                     __end_of_Clear:
  6427                           	opt callstack 0
  6428                           
  6429 ;; *************** function _Analog_Read *****************
  6430 ;; Defined at:
  6431 ;;		line 327 in file "main.c"
  6432 ;; Parameters:    Size  Location     Type
  6433 ;;		None
  6434 ;; Auto vars:     Size  Location     Type
  6435 ;;		None
  6436 ;; Return value:  Size  Location     Type
  6437 ;;                  2    0[COMRAM] int 
  6438 ;; Registers used:
  6439 ;;		wreg, status,2, status,0
  6440 ;; Tracked objects:
  6441 ;;		On entry : 0/0
  6442 ;;		On exit  : 0/0
  6443 ;;		Unchanged: 0/0
  6444 ;; Data sizes:     COMRAM   BANK0   BANK1   BANK2   BANK3   BANK4   BANK5   BANK6   BANK7
  6445 ;;      Params:         2       0       0       0       0       0       0       0       0
  6446 ;;      Locals:         0       0       0       0       0       0       0       0       0
  6447 ;;      Temps:          0       0       0       0       0       0       0       0       0
  6448 ;;      Totals:         2       0       0       0       0       0       0       0       0
  6449 ;;Total ram usage:        2 bytes
  6450 ;; Hardware stack levels used:    1
  6451 ;; This function calls:
  6452 ;;		Nothing
  6453 ;; This function is called by:
  6454 ;;		_Closing
  6455 ;;		_Sense_Current
  6456 ;; This function uses a non-reentrant model
  6457 ;;
  6458                           
  6459                           	psect	text40
  6460  006A1E                     __ptext40:
  6461                           	opt callstack 0
  6462  006A1E                     _Analog_Read:
  6463                           	opt callstack 28
  6464                           
  6465                           ;main.c: 328:     ADCON0bits.GO_nDONE = 1;
  6466                           
  6467                           ;incstack = 0
  6468  006A1E  82C2               	bsf	4034,1,c	;volatile
  6469  006A20                     l221:
  6470                           
  6471                           ;main.c: 329:         while(ADCON0bits.GO_nDONE)
  6472  006A20  B2C2               	btfsc	4034,1,c	;volatile
  6473  006A22  D7FE               	goto	l221
  6474                           
  6475                           ;main.c: 331:             ADC = ADRESH;
  6476  006A24  CFC4 F023          	movff	4036,_ADC	;volatile
  6477  006A28  6A24               	clrf	_ADC+1,c
  6478                           
  6479                           ;main.c: 332:             ADC = ADC << 8;
  6480  006A2A  5023               	movf	_ADC,w,c
  6481  006A2C  6E24               	movwf	_ADC+1,c
  6482  006A2E  6A23               	clrf	_ADC,c
  6483                           
  6484                           ;main.c: 333:             ADC = ADC + ADRESL;
  6485  006A30  50C3               	movf	4035,w,c	;volatile
  6486  006A32  2423               	addwf	_ADC,w,c
  6487  006A34  6E23               	movwf	_ADC,c
  6488  006A36  0E00               	movlw	0
  6489  006A38  2024               	addwfc	_ADC+1,w,c
  6490  006A3A  6E24               	movwf	_ADC+1,c
  6491                           
  6492                           ;main.c: 335:     return ADC;
  6493  006A3C  C023  F036         	movff	_ADC,?_Analog_Read
  6494  006A40  C024  F037         	movff	_ADC+1,?_Analog_Read+1
  6495  006A44  0012               	return		;funcret
  6496  006A46                     __end_of_Analog_Read:
  6497                           	opt callstack 0
  6498  0000                     
  6499                           	psect	rparam
  6500  0000                     tosu	equ	0xFFF
  6501                           tosh	equ	0xFFE
  6502                           tosl	equ	0xFFD
  6503                           stkptr	equ	0xFFC
  6504                           pclatu	equ	0xFFB
  6505                           pclath	equ	0xFFA
  6506                           pcl	equ	0xFF9
  6507                           tblptru	equ	0xFF8
  6508                           tblptrh	equ	0xFF7
  6509                           tblptrl	equ	0xFF6
  6510                           tablat	equ	0xFF5
  6511                           prodh	equ	0xFF4
  6512                           prodl	equ	0xFF3
  6513                           indf0	equ	0xFEF
  6514                           postinc0	equ	0xFEE
  6515                           postdec0	equ	0xFED
  6516                           preinc0	equ	0xFEC
  6517                           plusw0	equ	0xFEB
  6518                           fsr0h	equ	0xFEA
  6519                           fsr0l	equ	0xFE9
  6520                           wreg	equ	0xFE8
  6521                           indf1	equ	0xFE7
  6522                           postinc1	equ	0xFE6
  6523                           postdec1	equ	0xFE5
  6524                           preinc1	equ	0xFE4
  6525                           plusw1	equ	0xFE3
  6526                           fsr1h	equ	0xFE2
  6527                           fsr1l	equ	0xFE1
  6528                           bsr	equ	0xFE0
  6529                           indf2	equ	0xFDF
  6530                           postinc2	equ	0xFDE
  6531                           postdec2	equ	0xFDD
  6532                           preinc2	equ	0xFDC
  6533                           plusw2	equ	0xFDB
  6534                           fsr2h	equ	0xFDA
  6535                           fsr2l	equ	0xFD9
  6536                           status	equ	0xFD8


Data Sizes:
    Strings     0
    Constant    0
    Data        3
    BSS         53
    Persistent  4
    Stack       0

Auto Spaces:
    Space          Size  Autos    Used
    COMRAM           95     10      70
    BANK0           160      0       0
    BANK1           256      0       0
    BANK2           256      0       0
    BANK3           256      0       0
    BANK4           256      0       0
    BANK5           256      0       0
    BANK6           256      0       0
    BANK7           256      0       0

Pointer List with Targets:

    None.

Critical Paths under _main in COMRAM

    _main->_Menu_In
    _Open_Lock->_eeprom_readx
    _Menu_In->_Menu
    _Menu->_Menu_P1
    _Menu->_Menu_P2
    _Menu->_Menu_P3
    _Menu->_Menu_P4
    _Menu_P4->_Recording
    _Menu_P4->_eeprom_writex
    _Menu_P3->_Recording
    _Menu_P3->_eeprom_writex
    _Menu_P2->_Recording
    _Menu_P2->_eeprom_writex
    _Menu_P1->_Recording
    _Menu_P1->_eeprom_writex
    _Recording->_Draw_Save_Dot_One
    _Recording->_Draw_Save_Dot_Two
    _Close_Lock->___wmul
    _Closing->_Analog_Read
    _Sense_Current->_Analog_Read

Critical Paths under _main in BANK0

    None.

Critical Paths under _main in BANK1

    None.

Critical Paths under _main in BANK2

    None.

Critical Paths under _main in BANK3

    None.

Critical Paths under _main in BANK4

    None.

Critical Paths under _main in BANK5

    None.

Critical Paths under _main in BANK6

    None.

Critical Paths under _main in BANK7

    None.

Call Graph Tables:

 ---------------------------------------------------------------------------------
 (Depth) Function   	        Calls       Base Space   Used Autos Params    Refs
 ---------------------------------------------------------------------------------
 (0) _main                                                 1     1      0   23376
                                              9 COMRAM     1     1      0
                         _Close_Lock
                            _Menu_In
                          _Open_Lock
                       _eeprom_readx
 ---------------------------------------------------------------------------------
 (1) _Open_Lock                                            4     4      0     349
                                              2 COMRAM     4     4      0
                            _Closing
                      _Sense_Current
                       _eeprom_readx
 ---------------------------------------------------------------------------------
 (1) _Menu_In                                              2     2      0   22064
                                              7 COMRAM     2     2      0
                               _Menu
 ---------------------------------------------------------------------------------
 (2) _Menu                                                 2     2      0   22064
                                              5 COMRAM     2     2      0
                            _Draw_P1
                            _Draw_P2
                            _Draw_P3
                            _Draw_P4
                     _Exit_Time_Menu
                            _Menu_P1
                            _Menu_P2
                            _Menu_P3
                            _Menu_P4
 ---------------------------------------------------------------------------------
 (3) _Menu_P4                                              2     2      0    5516
                                              3 COMRAM     2     2      0
                             _Draw_0
                             _Draw_1
                            _Draw_10
                            _Draw_11
                            _Draw_12
                            _Draw_13
                            _Draw_14
                            _Draw_15
                             _Draw_2
                             _Draw_3
                             _Draw_4
                             _Draw_5
                             _Draw_6
                             _Draw_7
                             _Draw_8
                             _Draw_9
                     _Exit_Time_Menu
                          _Recording
                      _eeprom_writex
 ---------------------------------------------------------------------------------
 (3) _Menu_P3                                              2     2      0    5516
                                              3 COMRAM     2     2      0
                             _Draw_0
                             _Draw_1
                     _Exit_Time_Menu
                          _Recording
                      _eeprom_writex
 ---------------------------------------------------------------------------------
 (3) _Menu_P2                                              2     2      0    5516
                                              3 COMRAM     2     2      0
                             _Draw_0
                             _Draw_1
                            _Draw_10
                            _Draw_11
                            _Draw_12
                            _Draw_13
                            _Draw_14
                            _Draw_15
                             _Draw_2
                             _Draw_3
                             _Draw_4
                             _Draw_5
                             _Draw_6
                             _Draw_7
                             _Draw_8
                             _Draw_9
                     _Exit_Time_Menu
                          _Recording
                      _eeprom_writex
 ---------------------------------------------------------------------------------
 (4) _Draw_9                                               1     1      0       0
                                              0 COMRAM     1     1      0
 ---------------------------------------------------------------------------------
 (4) _Draw_8                                               1     1      0       0
                                              0 COMRAM     1     1      0
 ---------------------------------------------------------------------------------
 (4) _Draw_7                                               1     1      0       0
                                              0 COMRAM     1     1      0
 ---------------------------------------------------------------------------------
 (4) _Draw_6                                               1     1      0       0
                                              0 COMRAM     1     1      0
 ---------------------------------------------------------------------------------
 (4) _Draw_5                                               1     1      0       0
                                              0 COMRAM     1     1      0
 ---------------------------------------------------------------------------------
 (4) _Draw_4                                               1     1      0       0
                                              0 COMRAM     1     1      0
 ---------------------------------------------------------------------------------
 (4) _Draw_3                                               1     1      0       0
                                              0 COMRAM     1     1      0
 ---------------------------------------------------------------------------------
 (4) _Draw_2                                               1     1      0       0
                                              0 COMRAM     1     1      0
 ---------------------------------------------------------------------------------
 (4) _Draw_15                                              1     1      0       0
                                              0 COMRAM     1     1      0
 ---------------------------------------------------------------------------------
 (4) _Draw_14                                              1     1      0       0
                                              0 COMRAM     1     1      0
 ---------------------------------------------------------------------------------
 (4) _Draw_13                                              1     1      0       0
                                              0 COMRAM     1     1      0
 ---------------------------------------------------------------------------------
 (4) _Draw_12                                              1     1      0       0
                                              0 COMRAM     1     1      0
 ---------------------------------------------------------------------------------
 (4) _Draw_11                                              1     1      0       0
                                              0 COMRAM     1     1      0
 ---------------------------------------------------------------------------------
 (4) _Draw_10                                              1     1      0       0
                                              0 COMRAM     1     1      0
 ---------------------------------------------------------------------------------
 (3) _Menu_P1                                              2     2      0    5516
                                              3 COMRAM     2     2      0
                             _Draw_0
                             _Draw_1
                     _Exit_Time_Menu
                          _Recording
                      _eeprom_writex
 ---------------------------------------------------------------------------------
 (4) _eeprom_writex                                        3     0      3    5516
                                              0 COMRAM     3     0      3
 ---------------------------------------------------------------------------------
 (4) _Recording                                            2     2      0       0
                                              1 COMRAM     2     2      0
                              _Clear
                  _Draw_Save_Dot_One
                  _Draw_Save_Dot_Two
 ---------------------------------------------------------------------------------
 (5) _Draw_Save_Dot_Two                                    1     1      0       0
                                              0 COMRAM     1     1      0
 ---------------------------------------------------------------------------------
 (5) _Draw_Save_Dot_One                                    1     1      0       0
                                              0 COMRAM     1     1      0
 ---------------------------------------------------------------------------------
 (4) _Exit_Time_Menu                                       0     0      0       0
 ---------------------------------------------------------------------------------
 (4) _Draw_1                                               1     1      0       0
                                              0 COMRAM     1     1      0
 ---------------------------------------------------------------------------------
 (4) _Draw_0                                               1     1      0       0
                                              0 COMRAM     1     1      0
 ---------------------------------------------------------------------------------
 (3) _Draw_P4                                              1     1      0       0
                                              0 COMRAM     1     1      0
 ---------------------------------------------------------------------------------
 (3) _Draw_P3                                              1     1      0       0
                                              0 COMRAM     1     1      0
 ---------------------------------------------------------------------------------
 (3) _Draw_P2                                              1     1      0       0
                                              0 COMRAM     1     1      0
 ---------------------------------------------------------------------------------
 (3) _Draw_P1                                              1     1      0       0
                                              0 COMRAM     1     1      0
 ---------------------------------------------------------------------------------
 (1) _Close_Lock                                           2     2      0     637
                                              6 COMRAM     2     2      0
                            _Closing
                             ___wmul
                       _eeprom_readx
 ---------------------------------------------------------------------------------
 (1) _eeprom_readx                                         2     0      2     326
                                              0 COMRAM     2     0      2
 ---------------------------------------------------------------------------------
 (2) ___wmul                                               6     2      4     311
                                              0 COMRAM     6     2      4
 ---------------------------------------------------------------------------------
 (2) _Closing                                              0     0      0       0
                        _Analog_Read
                      _Sense_Current
 ---------------------------------------------------------------------------------
 (2) _Sense_Current                                        0     0      0       0
                        _Analog_Read
                              _Clear
                            _Draw_CL
 ---------------------------------------------------------------------------------
 (3) _Draw_CL                                              0     0      0       0
 ---------------------------------------------------------------------------------
 (3) _Clear                                                0     0      0       0
 ---------------------------------------------------------------------------------
 (3) _Analog_Read                                          2     0      2       0
                                              0 COMRAM     2     0      2
 ---------------------------------------------------------------------------------
 Estimated maximum stack depth 5
 ---------------------------------------------------------------------------------

 Call Graph Graphs:

 _main (ROOT)
   _Close_Lock
     _Closing
       _Analog_Read
       _Sense_Current
         _Analog_Read
         _Clear
         _Draw_CL
     ___wmul
     _eeprom_readx
   _Menu_In
     _Menu
       _Draw_P1
       _Draw_P2
       _Draw_P3
       _Draw_P4
       _Exit_Time_Menu
       _Menu_P1
         _Draw_0
         _Draw_1
         _Exit_Time_Menu
         _Recording
           _Clear
           _Draw_Save_Dot_One
           _Draw_Save_Dot_Two
         _eeprom_writex
       _Menu_P2
         _Draw_0
         _Draw_1
         _Draw_10
         _Draw_11
         _Draw_12
         _Draw_13
         _Draw_14
         _Draw_15
         _Draw_2
         _Draw_3
         _Draw_4
         _Draw_5
         _Draw_6
         _Draw_7
         _Draw_8
         _Draw_9
         _Exit_Time_Menu
         _Recording
           _Clear
           _Draw_Save_Dot_One
           _Draw_Save_Dot_Two
         _eeprom_writex
       _Menu_P3
         _Draw_0
         _Draw_1
         _Exit_Time_Menu
         _Recording
           _Clear
           _Draw_Save_Dot_One
           _Draw_Save_Dot_Two
         _eeprom_writex
       _Menu_P4
         _Draw_0
         _Draw_1
         _Draw_10
         _Draw_11
         _Draw_12
         _Draw_13
         _Draw_14
         _Draw_15
         _Draw_2
         _Draw_3
         _Draw_4
         _Draw_5
         _Draw_6
         _Draw_7
         _Draw_8
         _Draw_9
         _Exit_Time_Menu
         _Recording
           _Clear
           _Draw_Save_Dot_One
           _Draw_Save_Dot_Two
         _eeprom_writex
   _Open_Lock
     _Closing
       _Analog_Read
       _Sense_Current
         _Analog_Read
         _Clear
         _Draw_CL
     _Sense_Current
       _Analog_Read
       _Clear
       _Draw_CL
     _eeprom_readx
   _eeprom_readx

 Address spaces:
Name               Size   Autos  Total    Cost      Usage
BIGRAM             7FF      0       0      21        0.0%
EEDATA             100      0       0       0        0.0%
BITBANK7           100      0       0      18        0.0%
BANK7              100      0       0      19        0.0%
BITBANK6           100      0       0      16        0.0%
BANK6              100      0       0      17        0.0%
BITBANK5           100      0       0      14        0.0%
BANK5              100      0       0      15        0.0%
BITBANK4           100      0       0      12        0.0%
BANK4              100      0       0      13        0.0%
BITBANK3           100      0       0      10        0.0%
BANK3              100      0       0      11        0.0%
BITBANK2           100      0       0       8        0.0%
BANK2              100      0       0       9        0.0%
BITBANK1           100      0       0       6        0.0%
BANK1              100      0       0       7        0.0%
BITBANK0            A0      0       0       4        0.0%
BANK0               A0      0       0       5        0.0%
BITCOMRAM           5F      0       0       0        0.0%
COMRAM              5F      A      46       1       73.7%
BITSFR               0      0       0     200        0.0%
SFR                  0      0       0     200        0.0%
STACK                0      0       0       2        0.0%
NULL                 0      0       0       0        0.0%
ABS                  0      0      46      20        0.0%
DATA                 0      0      46       3        0.0%
CODE                 0      0       0       0        0.0%


Microchip Technology PIC18 Macro Assembler V2.05 build -831301201 
Symbol Table                                                                                   Thu Jul 25 17:27:52 2019

       _Last_Inductive_State 0035                           u40 6FD2                           u50 7006  
        ___wmul@multiplicand 0038                  __CFG_BORV$3 000000                 __CFG_CP0$OFF 000000  
               __CFG_CP1$OFF 000000                 __CFG_CP2$OFF 000000                 __CFG_CP3$OFF 000000  
                        l221 6A20                          l311 7996                          l232 69F2  
                        l270 6EEC                          l342 7354                          _ADC 0023  
                        l280 7270                          l257 74EA                          l373 7C72  
               __CFG_CPB$OFF 000000                 __CFG_CPD$OFF 000000                          u920 720C  
                        u926 720E                          u960 77B2                          u890 71DC  
                        u990 77E2                          u966 77B4                          u896 71DE  
                        u996 77E4                 __CFG_BOR$OFF 000000                          wreg 000FE8  
               __CFG_FOSC$HS 000000          _Count_Peake_Current 0029                 __CFG_LVP$OFF 000000  
               __CFG_WDT$OFF 000000                         l3011 7D2E                         l3021 7DA6  
                       l3013 7D46                         l3031 7E36                         l3023 7DBE  
                       l3015 7D5E                         l3033 7E64                         l3025 7DD6  
                       l3017 7D76                         l3009 7D16                         l3041 7EF0  
                       l1257 6FE2                         l1249 6FAE                         l3035 7E92  
                       l3027 7DEE                         l3019 7D8E                         l3043 7FF6  
                       l3131 7560                         l3037 7EC2                         l3029 7E06  
                       l3045 7FFA                         l2501 76D2                         l2511 76F0  
                       l2503 76D8                         l2521 770E                         l2513 76F6  
                       l2505 76DE                         l3153 75D6                         l2443 6A68  
                       l2611 78F4                         l2603 78D0                         l2531 772C  
                       l2523 7714                         l2515 76FC                         l2507 76E4  
                       l3171 7658                         l2445 719E                         l2453 71B4  
                       l2525 771A                         l2517 7702                         l2509 76EA  
                       l2701 79C6                         l3181 76AE                         l3229 6F84  
                       l2463 7200                         l2447 71A4                         l2455 71D4  
                       l2615 7906                         l2607 78E2                         l2623 7922  
                       l2527 7720                         l2519 7708                         l2535 7736  
                       l2711 79E4                         l2703 79CC                         l3167 762C  
                       l3159 75FE                         l3361 7F62                         l2481 7246  
                       l2473 721E                         l2449 71AA                         l2545 77D6  
                       l2529 7726                         l2537 77AA                         l2641 728E  
                       l2721 7A02                         l2713 79EA                         l2705 79D2  
                       l3185 76C4                         l3371 7F94                         l3363 7F6C  
                       l2475 722E                         l2619 7918                         l2571 7840  
                       l2563 781C                         l2555 77F4                         l2811 7BF4  
                       l2803 7BD0                         l2723 7A08                         l2715 79F0  
                       l2707 79D8                         l3381 7FC6                         l3373 7F9E  
                       l3365 7F76                         l2477 7234                         l2485 7250  
                       l2557 7804                         l2637 7282                         l2645 7298  
                       l2717 79F6                         l2709 79DE                         l3383 7FD0  
                       l3375 7FA8                         l3367 7F80                         l3359 7F5C  
                       l2591 789A                         l2583 7876                         l2575 7852  
                       l2567 782E                         l2559 780A                         l2655 72E4  
                       l2639 7288                         l2647 72B8                         l2807 7BE2  
                       l2751 7AE6                         l2815 7BFE                         l2719 79FC  
                       l2727 7A12                         l2911 747A                         l3385 7FDA  
                       l3377 7FB2                         l3369 7F8A                         l2673 732A  
                       l2665 7302                         l2737 7AB2                         l2729 7A86  
                       l2905 7456                         l3387 7FE4                         l3379 7FBC  
                       l2595 78AC                         l2587 7888                         l2579 7864  
                       l2499 76CC                         l2667 7312                         l2771 7B40  
                       l2763 7B1C                         l2755 7AF8                         l2747 7AD0  
                       l2691 79A8                         l2923 74BE                         l3389 7FEE  
                       l2669 7318                         l2677 7334                         l2749 7AE0  
                       l2693 79AE                         l2917 749E                         l2861 7366  
                       l2599 78BE                         l2791 7B9A                         l2783 7B76  
                       l2775 7B52                         l2767 7B2E                         l2759 7B0A  
                       l2695 79B4                         l2863 736C                         l2857 709C  
                       l2849 706E                         l2697 79BA                         l2865 7372  
                       l2873 7388                         l2795 7BAC                         l2787 7B88  
                       l2779 7B64                         l2699 79C0                         l2883 73E0  
                       l2867 7378                         l2875 73B4                         l2963 712C  
                       l2893 740E                         l2869 737E                         l2799 7BBE  
                       l2985 7196                         l2899 7432               ??_eeprom_readx 0038  
                       u1100 7A8E                         u1030 72C0                         u1210 70A2  
                       u1130 7ABE                         u1106 7A90                         u1060 72F0  
                       u1036 72C2                         u1220 73BC                         u2007 6CEA  
                       u1136 7AC0                         u2017 6CA0                         u1170 7026  
                       u1066 72F2                         u1250 73EC                         u1226 73BE  
                       u2107 6BD8                         u2027 6CB8                         u1420 7CCE  
                       u1340 7138                         u2117 6BF0                         u2037 6C6E  
                       u2207 6ADE                         u2127 6BA6                         u2047 6C86  
                       u1176 7028                         u1256 73EE                         u1600 7654  
                       u2217 6AF6                         u2137 6BBE                         u2057 6C3C  
                       u1426 7CD0                         u1346 713A                         u1290 70CE  
                       u1610 766C                         u1530 756A                         u2307 7D50  
                       u2227 6AAC                         u2147 6B74                         u2067 6C54  
                       u1460 7502                         u2317 7D68                         u2237 6AC4  
                       u2157 6B8C                         u2077 6C0A                         u1390 7C8A  
                       u1630 768E                         u1606 7656                         u2407 7E40  
                       u2327 7D80                         u2247 6A7A                         u2167 6B42  
                       u2087 6C22                         u1296 70D0                         u1616 766E  
                       u1536 756C                         u2417 7E56                         u2337 7D98  
                       u2257 6A92                         u2177 6B5A                         u2097 6FA0  
                       u1650 76B4                         u1490 7546                         u1466 7504  
                       u2427 7E6E                         u2347 7DB0                         u2267 7C98  
                       u2187 6B10                         u1707 75AE                         u1396 7C8C  
                       u1636 7690                         u1660 6F6C                         u2437 7E84  
                       u2357 7DC8                         u2277 7CBA                         u2197 6B28  
                       u1717 75C8                         u1590 7632                         u1670 6F6E  
                       u2447 7E9C                         u2367 7DE0                         u2287 7D20  
                       u1807 74B0                         u1727 70D8                         u1496 7548  
                       u2457 7EB2                         u2377 7DF8                         u2297 7D38  
                       u1817 6E94                         u1737 711C                         u2467 7ECC  
                       u2387 7E10                         u1907 6DE4                         u1827 6EAC  
                       u1747 7142                         u2477 7EE2                         u2397 7E26  
                       u1917 6D9A                         u1837 6E62                         u1757 7186  
                       u2487 69BC                         u1927 6DB2                         u1847 6E7A  
                       u1767 7420                         u1687 7510                         u2497 69CC  
                       u1937 6D68                         u1857 6E30                         u1777 7444  
                       u1697 7532                         u1947 6D80                         u1867 6E48  
                       u1787 7468                         u1957 6D36                         u1877 6DFE  
                       u1797 748C                         u1967 6D4E                         u1887 6E16  
                       u1977 6D04                         u1897 6DCC                         u1987 6D1C  
                       u1997 6CD2                         _Menu 7364                         _main 6F22  
                       prodh 000FF4                         prodl 000FF3                         start 0000  
              __CFG_IESO$OFF 000000              __end_of_Draw_10 6C30              __end_of_Draw_11 6C62  
            __end_of_Draw_12 6C94              __end_of_Draw_13 6CC6              __end_of_Draw_14 6CF8  
            __end_of_Draw_15 6D2A              __end_of_Draw_P1 6AA0              __end_of_Draw_CL 69D6  
            __end_of_Draw_P2 6AD2              __end_of_Draw_P3 6B04              __end_of_Draw_P4 6B36  
              __CFG_MCLRE$ON 000000              __end_of_Closing 70C6                 ___param_bank 000000  
                 _Flag_Latch 002C              __end_of_Menu_P1 7280              __end_of_Menu_P2 79A6  
            __end_of_Menu_P3 7364              __end_of_Menu_P4 7C82              __end_of_Menu_In 719C  
              __CFG_PLLDIV$1 000000                        ?_Menu 0036               __CFG_CCP2MX$ON 000000  
                      ?_main 0036                        _EEADR 000FA9        __end_of_Sense_Current 6A6E  
                 _Close_Lock 7C82                        _PORTB 000F81                __CFG_USBDIV$1 000000  
                      _TRISB 000F93              ??_eeprom_writex 0039                __CFG_PWRT$OFF 000000  
                      _Clear 699C                __CFG_WRT0$OFF 000000                __CFG_WRT1$OFF 000000  
              __CFG_WRT2$OFF 000000                __CFG_WRT3$OFF 000000                        _Latch 0042  
             __CFG_EBTR0$OFF 000000               __CFG_FCMEN$OFF 000000               __CFG_EBTR1$OFF 000000  
             __CFG_EBTR2$OFF 000000               __CFG_EBTR3$OFF 000000                __CFG_WRTB$OFF 000000  
              __CFG_WRTC$OFF 000000                __CFG_WRTD$OFF 000000               __CFG_EBTRB$OFF 000000  
                _Analog_Read 6A1E                        tablat 000FF5                        status 000FD8  
    __size_of_Exit_Time_Menu 0034                   _Count_Save 0015               __CFG_PBADEN$ON 000000  
            __initialization 6EEE                 __end_of_Menu 74FA                 __end_of_main 6F92  
                     ??_Menu 003B                       ??_main 003F                __activetblptr 000002  
                     ?_Clear 0036                       _ADCON1 000FC1                       _ADRESH 000FC4  
                     _ADRESL 000FC3                       _EEDATA 000FA8                       _EECON2 000FA7  
        _End_Stop_Open_State 0031         _End_Stop_Close_State 0032                    ??_Draw_10 0036  
                  ??_Draw_11 0036                    ??_Draw_12 0036                    ??_Draw_13 0036  
                  ??_Draw_14 0036                    ??_Draw_15 0036                    ??_Draw_P1 0036  
                  ??_Draw_P2 0036                    ??_Draw_CL 0036                    ??_Draw_P3 0036  
                  ??_Draw_P4 0036                    ??_Closing 0038                    ??_Menu_P1 0039  
                  ??_Menu_P2 0039                    ??_Menu_P3 0039                    ??_Menu_P4 0039  
                  ??_Menu_In 003D                       _Draw_0 6B36                       _Draw_1 6B68  
                     _Draw_2 6D2A                       _Draw_3 6D5C                       _Draw_4 6D8E  
                     _Draw_5 6DC0                       _Draw_6 6DF2                       _Draw_7 6E24  
                     _Draw_8 6E56                       _Draw_9 6E88               __CFG_XINST$OFF 000000  
         __size_of_Recording 008A                       ___wmul 69F8               __CFG_STVREN$ON 000000  
         __size_of_Open_Lock 01D0          eeprom_readx@address 0036         __end_of_eeprom_readx 69B4  
                     clear_0 6F12                  ?_Close_Lock 0036                 __pdataCOMRAM 0044  
     _Button_Menu_Down_State 0030                       tblptrh 000FF7                       tblptrl 000FF6  
                     tblptru 000FF8         Open_Lock@Value_Latch 003A                   __accesstop 0060  
    __end_of__initialization 6F18                ___rparam_used 000001      _Last_Open_Contact_State 0046  
              __end_of_Clear 69A6               __pcstackCOMRAM 0036                      ??_Clear 0036  
          __end_of_Recording 701C            __end_of_Open_Lock 76CA            eeprom_writex@data 0038  
             _Exit_Time_Menu 6EBA    _Last_Button_Menu_Up_State 0045                   __pnvCOMRAM 0040  
                    ?_Draw_0 0036                      ?_Draw_1 0036                      ?_Draw_2 0036  
                    ?_Draw_3 0036                      ?_Draw_4 0036                      ?_Draw_5 0036  
                    ?_Draw_6 0036                      ?_Draw_7 0036                      ?_Draw_8 0036  
                    ?_Draw_9 0036          __size_of_Close_Lock 037E                      ?___wmul 0036  
          _Draw_Save_Dot_One 6B9A            _Draw_Save_Dot_Two 6BCC           ?_Draw_Save_Dot_One 0036  
         ?_Draw_Save_Dot_Two 0036          ??_Draw_Save_Dot_One 0036          ??_Draw_Save_Dot_Two 0036  
               ?_Analog_Read 0036           _Flag_End_Stop_Open 002B       __end_of_Exit_Time_Menu 6EEE  
            __CFG_VREGEN$OFF 000000                      _Draw_10 6BFE                      _Draw_11 6C30  
                    _Draw_12 6C62                      _Draw_13 6C94                      _Draw_14 6CC6  
                    _Draw_15 6CF8                      _Draw_P1 6A6E                      _Draw_CL 69B4  
                    _Draw_P2 6AA0                      _Draw_P3 6AD2                      _Draw_P4 6B04  
                    _Buffer1 0001                      _Closing 701C                      _Menu_P1 719C  
                    _Menu_P2 76CA                      _Menu_P3 7280                      _Menu_P4 79A6  
                    _Menu_In 70C6                      _Current 0027              __size_of_Draw_0 0032  
            __size_of_Draw_1 0032              __size_of_Draw_2 0032              __size_of_Draw_3 0032  
            __size_of_Draw_4 0032              __size_of_Draw_5 0032              __size_of_Draw_6 0032  
            __size_of_Draw_7 0032              __size_of_Draw_8 0032              __size_of_Draw_9 0032  
                    __Hparam 0000                      __Lparam 0000        __size_of_eeprom_readx 000E  
  __end_of_Draw_Save_Dot_One 6BCC    __end_of_Draw_Save_Dot_Two 6BFE              __size_of___wmul 0026  
                    __pcinit 6EEE                      __ramtop 0800                      __ptext0 6F22  
                    __ptext1 74FA                      __ptext2 70C6                      __ptext3 7364  
                    __ptext4 79A6                      __ptext5 7280                      __ptext6 76CA  
                    __ptext7 6E88                      __ptext8 6E56                      __ptext9 6E24  
            _Inductive_State 0034        __end_of_eeprom_writex 69F8              ?_Exit_Time_Menu 0036  
       end_of_initialization 6F18                  _Toggle_Down 002E                 _eeprom_readx 69A6  
              __Lmediumconst 0000            _Count_Push_Button 0025       __size_of_Sense_Current 0028  
                    postinc0 000FEE                    _PORTAbits 000F80                    _PORTCbits 000F82  
               ??_Close_Lock 003C                    _TRISAbits 000F92                    _TRISCbits 000F94  
       eeprom_writex@address 0036           __end_of_Close_Lock 8000               __end_of_Draw_0 6B68  
             __end_of_Draw_1 6B9A               __end_of_Draw_2 6D5C               __end_of_Draw_3 6D8E  
             __end_of_Draw_4 6DC0               __end_of_Draw_5 6DF2               __end_of_Draw_6 6E24  
             __end_of_Draw_7 6E56               __end_of_Draw_8 6E88               __end_of_Draw_9 6EBA  
                  _Flag_Menu 002D   __size_of_Draw_Save_Dot_One 0032   __size_of_Draw_Save_Dot_Two 0032  
         _Open_Contact_State 0033               __end_of___wmul 6A1E                __pidataCOMRAM 6999  
              _Sense_Current 6A46          start_initialization 6EEE         __size_of_Analog_Read 0028  
                  _Recording 6F92                    _Open_Lock 74FA                     ??_Draw_0 0036  
                   ??_Draw_1 0036                     ??_Draw_2 0036                     ??_Draw_3 0036  
                   ??_Draw_4 0036                     ??_Draw_5 0036                     ??_Draw_6 0036  
                   ??_Draw_7 0036                     ??_Draw_8 0036                     ??_Draw_9 0036  
                   ??___wmul 003A             _Count_Auto_Close 0019             __CFG_LPT1OSC$OFF 000000  
                  _Toggle_Up 002F               ?_Sense_Current 0036                  __pbssCOMRAM 0001  
                   ?_Draw_10 0036                     ?_Draw_11 0036                     ?_Draw_12 0036  
                   ?_Draw_13 0036                     ?_Draw_14 0036                     ?_Draw_15 0036  
                 ?_Recording 0036                     ?_Draw_P1 0036                     ?_Draw_P2 0036  
                   ?_Draw_CL 0036                     ?_Draw_P3 0036                     ?_Draw_P4 0036  
                   ?_Closing 0036                   ?_Open_Lock 0036                     ?_Menu_P1 0036  
                   ?_Menu_P2 0036                     ?_Menu_P3 0036                     ?_Menu_P4 0036  
                   ?_Menu_In 0036                    _data_test 0021             _Count_Time_Close 001D  
           ??_Exit_Time_Menu 0036               __size_of_Clear 000A               ___wmul@product 003A  
           __CFG_WDTPS$32768 000000              ??_Sense_Current 0038                   _ADCON0bits 000FC2  
                 _ADCON2bits 000FC0            ___wmul@multiplier 0036         _Time_Inductive_State 0040  
                ??_Recording 0037  _Last_Button_Menu_Down_State 0044                  ??_Open_Lock 0038  
           __size_of_Draw_10 0032             __size_of_Draw_11 0032             __size_of_Draw_12 0032  
           __size_of_Draw_13 0032             __size_of_Draw_14 0032             __size_of_Draw_15 0032  
           __size_of_Draw_P1 0032             __size_of_Draw_CL 0022             __size_of_Draw_P2 0032  
           __size_of_Draw_P3 0032             __size_of_Draw_P4 0032                   _EECON1bits 000FA6  
           __size_of_Closing 00AA                     __Hrparam 0000             __size_of_Menu_P1 00E4  
           __size_of_Menu_P2 02DC             __size_of_Menu_P3 00E4             __size_of_Menu_P4 02DC  
           __size_of_Menu_In 00D6                     __Lrparam 0000       __size_of_eeprom_writex 0022  
            _Count_Exit_Menu 0011         _Button_Menu_Up_State 0043                     __ptext10 6DF2  
                   __ptext11 6DC0                     __ptext20 6BFE                     __ptext12 6D8E  
                   __ptext21 719C                     __ptext13 6D5C                     __ptext30 6AD2  
                   __ptext22 69D6                     __ptext14 6D2A                     __ptext31 6AA0  
                   __ptext23 6F92                     __ptext15 6CF8                     __ptext40 6A1E  
                   __ptext32 6A6E                     __ptext24 6BCC                     __ptext16 6CC6  
                   __ptext33 7C82                     __ptext25 6B9A                     __ptext17 6C94  
                   __ptext34 69A6                     __ptext26 6EBA                     __ptext18 6C62  
                   __ptext35 69F8                     __ptext27 6B68                     __ptext19 6C30  
                   __ptext36 701C                     __ptext28 6B36                     __ptext37 6A46  
                   __ptext29 6B04                     __ptext38 69B4                     __ptext39 699C  
              __size_of_Menu 0196                __size_of_main 0070        __CFG_CPUDIV$OSC1_PLL2 000000  
                 _INTCONbits 000FF2                ??_Analog_Read 0038                _eeprom_writex 69D6  
             ?_eeprom_writex 0036                ?_eeprom_readx 0036          __end_of_Analog_Read 6A46  
